
safe.elf:     file format elf32-avr

Sections:
Idx Name          Size      VMA       LMA       File off  Algn
  0 .text         00004f12  00000000  00000000  00000074  2**1
                  CONTENTS, ALLOC, LOAD, READONLY, CODE
  1 .data         000000e4  00800060  00004f12  00004f86  2**0
                  CONTENTS, ALLOC, LOAD, DATA
  2 .stab         00005154  00000000  00000000  0000506c  2**2
                  CONTENTS, READONLY, DEBUGGING
  3 .stabstr      000014c3  00000000  00000000  0000a1c0  2**0
                  CONTENTS, READONLY, DEBUGGING
  4 .comment      00000024  00000000  00000000  0000b683  2**0
                  CONTENTS, READONLY
  5 .note.gnu.avr.deviceinfo 0000003c  00000000  00000000  0000b6a8  2**2
                  CONTENTS, READONLY, OCTETS
  6 .debug_aranges 00000040  00000000  00000000  0000b6e8  2**3
                  CONTENTS, READONLY, DEBUGGING, OCTETS
  7 .debug_info   00000532  00000000  00000000  0000b728  2**0
                  CONTENTS, READONLY, DEBUGGING, OCTETS
  8 .debug_abbrev 000004cb  00000000  00000000  0000bc5a  2**0
                  CONTENTS, READONLY, DEBUGGING, OCTETS
  9 .debug_line   00000115  00000000  00000000  0000c125  2**0
                  CONTENTS, READONLY, DEBUGGING, OCTETS
 10 .debug_str    00000219  00000000  00000000  0000c23a  2**0
                  CONTENTS, READONLY, DEBUGGING, OCTETS

Disassembly of section .text:

00000000 <__vectors>:
       0:	0c 94 2a 00 	jmp	0x54	; 0x54 <__ctors_end>
       4:	0c 94 3f 00 	jmp	0x7e	; 0x7e <__bad_interrupt>
       8:	0c 94 3f 00 	jmp	0x7e	; 0x7e <__bad_interrupt>
       c:	0c 94 3f 00 	jmp	0x7e	; 0x7e <__bad_interrupt>
      10:	0c 94 3f 00 	jmp	0x7e	; 0x7e <__bad_interrupt>
      14:	0c 94 3f 00 	jmp	0x7e	; 0x7e <__bad_interrupt>
      18:	0c 94 3f 00 	jmp	0x7e	; 0x7e <__bad_interrupt>
      1c:	0c 94 3f 00 	jmp	0x7e	; 0x7e <__bad_interrupt>
      20:	0c 94 3f 00 	jmp	0x7e	; 0x7e <__bad_interrupt>
      24:	0c 94 3f 00 	jmp	0x7e	; 0x7e <__bad_interrupt>
      28:	0c 94 3f 00 	jmp	0x7e	; 0x7e <__bad_interrupt>
      2c:	0c 94 3f 00 	jmp	0x7e	; 0x7e <__bad_interrupt>
      30:	0c 94 3f 00 	jmp	0x7e	; 0x7e <__bad_interrupt>
      34:	0c 94 3f 00 	jmp	0x7e	; 0x7e <__bad_interrupt>
      38:	0c 94 3f 00 	jmp	0x7e	; 0x7e <__bad_interrupt>
      3c:	0c 94 3f 00 	jmp	0x7e	; 0x7e <__bad_interrupt>
      40:	0c 94 3f 00 	jmp	0x7e	; 0x7e <__bad_interrupt>
      44:	0c 94 3f 00 	jmp	0x7e	; 0x7e <__bad_interrupt>
      48:	0c 94 3f 00 	jmp	0x7e	; 0x7e <__bad_interrupt>
      4c:	0c 94 3f 00 	jmp	0x7e	; 0x7e <__bad_interrupt>
      50:	0c 94 3f 00 	jmp	0x7e	; 0x7e <__bad_interrupt>

00000054 <__ctors_end>:
      54:	11 24       	eor	r1, r1
      56:	1f be       	out	0x3f, r1	; 63
      58:	cf e5       	ldi	r28, 0x5F	; 95
      5a:	d8 e0       	ldi	r29, 0x08	; 8
      5c:	de bf       	out	0x3e, r29	; 62
      5e:	cd bf       	out	0x3d, r28	; 61

00000060 <__do_copy_data>:
      60:	11 e0       	ldi	r17, 0x01	; 1

00000062 <.Loc.1>:
      62:	a0 e6       	ldi	r26, 0x60	; 96

00000064 <.Loc.2>:
      64:	b0 e0       	ldi	r27, 0x00	; 0

00000066 <.Loc.3>:
      66:	e2 e1       	ldi	r30, 0x12	; 18

00000068 <.Loc.4>:
      68:	ff e4       	ldi	r31, 0x4F	; 79

0000006a <.Loc.5>:
      6a:	02 c0       	rjmp	.+4      	; 0x70 <.L__do_copy_data_start>

0000006c <.L__do_copy_data_loop>:
      6c:	05 90       	lpm	r0, Z+

0000006e <.Loc.7>:
      6e:	0d 92       	st	X+, r0

00000070 <.L__do_copy_data_start>:
      70:	a4 34       	cpi	r26, 0x44	; 68

00000072 <.Loc.9>:
      72:	b1 07       	cpc	r27, r17

00000074 <.Loc.10>:
      74:	d9 f7       	brne	.-10     	; 0x6c <.L__do_copy_data_loop>

00000076 <L0^A>:
      76:	0e 94 b1 25 	call	0x4b62	; 0x4b62 <main>
      7a:	0c 94 87 27 	jmp	0x4f0e	; 0x4f0e <_exit>

0000007e <__bad_interrupt>:
      7e:	0c 94 00 00 	jmp	0	; 0x0 <__vectors>

00000082 <GPIO_setupPinDirection>:
      82:	cf 93       	push	r28
      84:	df 93       	push	r29
      86:	00 d0       	rcall	.+0      	; 0x88 <L0^A>

00000088 <L0^A>:
      88:	0f 92       	push	r0
      8a:	cd b7       	in	r28, 0x3d	; 61
      8c:	de b7       	in	r29, 0x3e	; 62
      8e:	89 83       	std	Y+1, r24	; 0x01
      90:	6a 83       	std	Y+2, r22	; 0x02
      92:	4b 83       	std	Y+3, r20	; 0x03

00000094 <.LM1>:
      94:	8a 81       	ldd	r24, Y+2	; 0x02
      96:	88 30       	cpi	r24, 0x08	; 8
      98:	08 f0       	brcs	.+2      	; 0x9c <.LM2>

0000009a <L0^A>:
      9a:	db c0       	rjmp	.+438    	; 0x252 <.L13>

0000009c <.LM2>:
      9c:	8b 81       	ldd	r24, Y+3	; 0x03
      9e:	81 30       	cpi	r24, 0x01	; 1
      a0:	09 f0       	breq	.+2      	; 0xa4 <.LM3>

000000a2 <L0^A>:
      a2:	67 c0       	rjmp	.+206    	; 0x172 <.L3>

000000a4 <.LM3>:
      a4:	89 81       	ldd	r24, Y+1	; 0x01
      a6:	88 2f       	mov	r24, r24
      a8:	90 e0       	ldi	r25, 0x00	; 0
      aa:	82 30       	cpi	r24, 0x02	; 2
      ac:	91 05       	cpc	r25, r1
      ae:	a9 f1       	breq	.+106    	; 0x11a <.L4>
      b0:	83 30       	cpi	r24, 0x03	; 3
      b2:	91 05       	cpc	r25, r1
      b4:	0c f0       	brlt	.+2      	; 0xb8 <.Lname32+0x1>

000000b6 <L0^A>:
      b6:	47 c0       	rjmp	.+142    	; 0x146 <.L5>
      b8:	00 97       	sbiw	r24, 0x00	; 0
      ba:	19 f0       	breq	.+6      	; 0xc2 <.L6>
      bc:	01 97       	sbiw	r24, 0x01	; 1
      be:	b9 f0       	breq	.+46     	; 0xee <.L7>
      c0:	42 c0       	rjmp	.+132    	; 0x146 <.L5>

000000c2 <.L6>:
      c2:	8a e3       	ldi	r24, 0x3A	; 58
      c4:	90 e0       	ldi	r25, 0x00	; 0
      c6:	fc 01       	movw	r30, r24
      c8:	80 81       	ld	r24, Z
      ca:	48 2f       	mov	r20, r24

000000cc <.LM5>:
      cc:	8a 81       	ldd	r24, Y+2	; 0x02
      ce:	28 2f       	mov	r18, r24
      d0:	30 e0       	ldi	r19, 0x00	; 0
      d2:	81 e0       	ldi	r24, 0x01	; 1
      d4:	90 e0       	ldi	r25, 0x00	; 0
      d6:	02 c0       	rjmp	.+4      	; 0xdc <.L2^B1>

000000d8 <.L1^B1>:
      d8:	88 0f       	add	r24, r24
      da:	99 1f       	adc	r25, r25

000000dc <.L2^B1>:
      dc:	2a 95       	dec	r18
      de:	e2 f7       	brpl	.-8      	; 0xd8 <.L1^B1>

000000e0 <.LM6>:
      e0:	24 2f       	mov	r18, r20
      e2:	28 2b       	or	r18, r24
      e4:	8a e3       	ldi	r24, 0x3A	; 58
      e6:	90 e0       	ldi	r25, 0x00	; 0
      e8:	fc 01       	movw	r30, r24
      ea:	20 83       	st	Z, r18

000000ec <.LM7>:
      ec:	b2 c0       	rjmp	.+356    	; 0x252 <.L13>

000000ee <.L7>:
      ee:	87 e3       	ldi	r24, 0x37	; 55
      f0:	90 e0       	ldi	r25, 0x00	; 0
      f2:	fc 01       	movw	r30, r24
      f4:	80 81       	ld	r24, Z
      f6:	48 2f       	mov	r20, r24

000000f8 <.LM9>:
      f8:	8a 81       	ldd	r24, Y+2	; 0x02
      fa:	28 2f       	mov	r18, r24
      fc:	30 e0       	ldi	r19, 0x00	; 0
      fe:	81 e0       	ldi	r24, 0x01	; 1
     100:	90 e0       	ldi	r25, 0x00	; 0
     102:	02 c0       	rjmp	.+4      	; 0x108 <.L2^B2>

00000104 <.L1^B2>:
     104:	88 0f       	add	r24, r24
     106:	99 1f       	adc	r25, r25

00000108 <.L2^B2>:
     108:	2a 95       	dec	r18
     10a:	e2 f7       	brpl	.-8      	; 0x104 <.L1^B2>

0000010c <.LM10>:
     10c:	24 2f       	mov	r18, r20
     10e:	28 2b       	or	r18, r24
     110:	87 e3       	ldi	r24, 0x37	; 55
     112:	90 e0       	ldi	r25, 0x00	; 0
     114:	fc 01       	movw	r30, r24
     116:	20 83       	st	Z, r18

00000118 <.LM11>:
     118:	9c c0       	rjmp	.+312    	; 0x252 <.L13>

0000011a <.L4>:
     11a:	84 e3       	ldi	r24, 0x34	; 52
     11c:	90 e0       	ldi	r25, 0x00	; 0
     11e:	fc 01       	movw	r30, r24
     120:	80 81       	ld	r24, Z
     122:	48 2f       	mov	r20, r24

00000124 <.LM13>:
     124:	8a 81       	ldd	r24, Y+2	; 0x02
     126:	28 2f       	mov	r18, r24
     128:	30 e0       	ldi	r19, 0x00	; 0
     12a:	81 e0       	ldi	r24, 0x01	; 1
     12c:	90 e0       	ldi	r25, 0x00	; 0
     12e:	02 c0       	rjmp	.+4      	; 0x134 <.L2^B3>

00000130 <.L1^B3>:
     130:	88 0f       	add	r24, r24
     132:	99 1f       	adc	r25, r25

00000134 <.L2^B3>:
     134:	2a 95       	dec	r18
     136:	e2 f7       	brpl	.-8      	; 0x130 <.L1^B3>

00000138 <.LM14>:
     138:	24 2f       	mov	r18, r20
     13a:	28 2b       	or	r18, r24
     13c:	84 e3       	ldi	r24, 0x34	; 52
     13e:	90 e0       	ldi	r25, 0x00	; 0
     140:	fc 01       	movw	r30, r24
     142:	20 83       	st	Z, r18

00000144 <.LM15>:
     144:	86 c0       	rjmp	.+268    	; 0x252 <.L13>

00000146 <.L5>:
     146:	81 e3       	ldi	r24, 0x31	; 49
     148:	90 e0       	ldi	r25, 0x00	; 0
     14a:	fc 01       	movw	r30, r24
     14c:	80 81       	ld	r24, Z
     14e:	48 2f       	mov	r20, r24

00000150 <.LM17>:
     150:	8a 81       	ldd	r24, Y+2	; 0x02
     152:	28 2f       	mov	r18, r24
     154:	30 e0       	ldi	r19, 0x00	; 0
     156:	81 e0       	ldi	r24, 0x01	; 1
     158:	90 e0       	ldi	r25, 0x00	; 0
     15a:	02 c0       	rjmp	.+4      	; 0x160 <.L2^B4>

0000015c <.L1^B4>:
     15c:	88 0f       	add	r24, r24
     15e:	99 1f       	adc	r25, r25

00000160 <.L2^B4>:
     160:	2a 95       	dec	r18
     162:	e2 f7       	brpl	.-8      	; 0x15c <.L1^B4>

00000164 <.LM18>:
     164:	24 2f       	mov	r18, r20
     166:	28 2b       	or	r18, r24
     168:	81 e3       	ldi	r24, 0x31	; 49
     16a:	90 e0       	ldi	r25, 0x00	; 0
     16c:	fc 01       	movw	r30, r24
     16e:	20 83       	st	Z, r18

00000170 <.LM19>:
     170:	70 c0       	rjmp	.+224    	; 0x252 <.L13>

00000172 <.L3>:
     172:	8b 81       	ldd	r24, Y+3	; 0x03
     174:	88 23       	and	r24, r24
     176:	09 f0       	breq	.+2      	; 0x17a <.LM21>

00000178 <L0^A>:
     178:	6b c0       	rjmp	.+214    	; 0x250 <.L14>

0000017a <.LM21>:
     17a:	89 81       	ldd	r24, Y+1	; 0x01
     17c:	88 2f       	mov	r24, r24
     17e:	90 e0       	ldi	r25, 0x00	; 0
     180:	82 30       	cpi	r24, 0x02	; 2
     182:	91 05       	cpc	r25, r1
     184:	b9 f1       	breq	.+110    	; 0x1f4 <.L9>
     186:	83 30       	cpi	r24, 0x03	; 3
     188:	91 05       	cpc	r25, r1
     18a:	0c f0       	brlt	.+2      	; 0x18e <L0^A+0x2>

0000018c <L0^A>:
     18c:	4a c0       	rjmp	.+148    	; 0x222 <.L10>
     18e:	00 97       	sbiw	r24, 0x00	; 0
     190:	19 f0       	breq	.+6      	; 0x198 <.L11>
     192:	01 97       	sbiw	r24, 0x01	; 1
     194:	c1 f0       	breq	.+48     	; 0x1c6 <.L12>
     196:	45 c0       	rjmp	.+138    	; 0x222 <.L10>

00000198 <.L11>:
     198:	8a e3       	ldi	r24, 0x3A	; 58
     19a:	90 e0       	ldi	r25, 0x00	; 0
     19c:	fc 01       	movw	r30, r24
     19e:	80 81       	ld	r24, Z
     1a0:	48 2f       	mov	r20, r24

000001a2 <.LM23>:
     1a2:	8a 81       	ldd	r24, Y+2	; 0x02
     1a4:	28 2f       	mov	r18, r24
     1a6:	30 e0       	ldi	r19, 0x00	; 0
     1a8:	81 e0       	ldi	r24, 0x01	; 1
     1aa:	90 e0       	ldi	r25, 0x00	; 0
     1ac:	02 c0       	rjmp	.+4      	; 0x1b2 <.L2^B5>

000001ae <.L1^B5>:
     1ae:	88 0f       	add	r24, r24
     1b0:	99 1f       	adc	r25, r25

000001b2 <.L2^B5>:
     1b2:	2a 95       	dec	r18
     1b4:	e2 f7       	brpl	.-8      	; 0x1ae <.L1^B5>

000001b6 <.LM24>:
     1b6:	80 95       	com	r24
     1b8:	24 2f       	mov	r18, r20
     1ba:	28 23       	and	r18, r24
     1bc:	8a e3       	ldi	r24, 0x3A	; 58
     1be:	90 e0       	ldi	r25, 0x00	; 0
     1c0:	fc 01       	movw	r30, r24
     1c2:	20 83       	st	Z, r18

000001c4 <.LM25>:
     1c4:	46 c0       	rjmp	.+140    	; 0x252 <.L13>

000001c6 <.L12>:
     1c6:	87 e3       	ldi	r24, 0x37	; 55
     1c8:	90 e0       	ldi	r25, 0x00	; 0
     1ca:	fc 01       	movw	r30, r24
     1cc:	80 81       	ld	r24, Z
     1ce:	48 2f       	mov	r20, r24

000001d0 <.LM27>:
     1d0:	8a 81       	ldd	r24, Y+2	; 0x02
     1d2:	28 2f       	mov	r18, r24
     1d4:	30 e0       	ldi	r19, 0x00	; 0
     1d6:	81 e0       	ldi	r24, 0x01	; 1
     1d8:	90 e0       	ldi	r25, 0x00	; 0
     1da:	02 c0       	rjmp	.+4      	; 0x1e0 <.L2^B6>

000001dc <.L1^B6>:
     1dc:	88 0f       	add	r24, r24
     1de:	99 1f       	adc	r25, r25

000001e0 <.L2^B6>:
     1e0:	2a 95       	dec	r18
     1e2:	e2 f7       	brpl	.-8      	; 0x1dc <.L1^B6>

000001e4 <.LM28>:
     1e4:	80 95       	com	r24
     1e6:	24 2f       	mov	r18, r20
     1e8:	28 23       	and	r18, r24
     1ea:	87 e3       	ldi	r24, 0x37	; 55
     1ec:	90 e0       	ldi	r25, 0x00	; 0
     1ee:	fc 01       	movw	r30, r24
     1f0:	20 83       	st	Z, r18

000001f2 <.LM29>:
     1f2:	2f c0       	rjmp	.+94     	; 0x252 <.L13>

000001f4 <.L9>:
     1f4:	84 e3       	ldi	r24, 0x34	; 52
     1f6:	90 e0       	ldi	r25, 0x00	; 0
     1f8:	fc 01       	movw	r30, r24
     1fa:	80 81       	ld	r24, Z
     1fc:	48 2f       	mov	r20, r24

000001fe <.LM31>:
     1fe:	8a 81       	ldd	r24, Y+2	; 0x02
     200:	28 2f       	mov	r18, r24
     202:	30 e0       	ldi	r19, 0x00	; 0
     204:	81 e0       	ldi	r24, 0x01	; 1
     206:	90 e0       	ldi	r25, 0x00	; 0
     208:	02 c0       	rjmp	.+4      	; 0x20e <.L2^B7>

0000020a <.L1^B7>:
     20a:	88 0f       	add	r24, r24
     20c:	99 1f       	adc	r25, r25

0000020e <.L2^B7>:
     20e:	2a 95       	dec	r18
     210:	e2 f7       	brpl	.-8      	; 0x20a <.L1^B7>

00000212 <.LM32>:
     212:	80 95       	com	r24
     214:	24 2f       	mov	r18, r20
     216:	28 23       	and	r18, r24
     218:	84 e3       	ldi	r24, 0x34	; 52
     21a:	90 e0       	ldi	r25, 0x00	; 0
     21c:	fc 01       	movw	r30, r24
     21e:	20 83       	st	Z, r18

00000220 <.LM33>:
     220:	18 c0       	rjmp	.+48     	; 0x252 <.L13>

00000222 <.L10>:
     222:	81 e3       	ldi	r24, 0x31	; 49
     224:	90 e0       	ldi	r25, 0x00	; 0
     226:	fc 01       	movw	r30, r24
     228:	80 81       	ld	r24, Z
     22a:	48 2f       	mov	r20, r24

0000022c <.LM35>:
     22c:	8a 81       	ldd	r24, Y+2	; 0x02
     22e:	28 2f       	mov	r18, r24
     230:	30 e0       	ldi	r19, 0x00	; 0
     232:	81 e0       	ldi	r24, 0x01	; 1
     234:	90 e0       	ldi	r25, 0x00	; 0
     236:	02 c0       	rjmp	.+4      	; 0x23c <.L2^B8>

00000238 <.L1^B8>:
     238:	88 0f       	add	r24, r24
     23a:	99 1f       	adc	r25, r25

0000023c <.L2^B8>:
     23c:	2a 95       	dec	r18
     23e:	e2 f7       	brpl	.-8      	; 0x238 <.L1^B8>

00000240 <.LM36>:
     240:	80 95       	com	r24
     242:	24 2f       	mov	r18, r20
     244:	28 23       	and	r18, r24
     246:	81 e3       	ldi	r24, 0x31	; 49
     248:	90 e0       	ldi	r25, 0x00	; 0
     24a:	fc 01       	movw	r30, r24
     24c:	20 83       	st	Z, r18

0000024e <.LM37>:
     24e:	01 c0       	rjmp	.+2      	; 0x252 <.L13>

00000250 <.L14>:
	...

00000252 <.L13>:
     252:	00 00       	nop
     254:	0f 90       	pop	r0
     256:	0f 90       	pop	r0
     258:	0f 90       	pop	r0
     25a:	df 91       	pop	r29
     25c:	cf 91       	pop	r28
     25e:	08 95       	ret

00000260 <GPIO_setupPortDirection>:
     260:	cf 93       	push	r28
     262:	df 93       	push	r29
     264:	00 d0       	rcall	.+0      	; 0x266 <L0^A>

00000266 <L0^A>:
     266:	cd b7       	in	r28, 0x3d	; 61
     268:	de b7       	in	r29, 0x3e	; 62
     26a:	89 83       	std	Y+1, r24	; 0x01
     26c:	6a 83       	std	Y+2, r22	; 0x02

0000026e <.LM41>:
     26e:	89 81       	ldd	r24, Y+1	; 0x01
     270:	84 30       	cpi	r24, 0x04	; 4
     272:	30 f5       	brcc	.+76     	; 0x2c0 <.L16>

00000274 <.LM42>:
     274:	89 81       	ldd	r24, Y+1	; 0x01
     276:	88 2f       	mov	r24, r24
     278:	90 e0       	ldi	r25, 0x00	; 0
     27a:	82 30       	cpi	r24, 0x02	; 2
     27c:	91 05       	cpc	r25, r1
     27e:	a1 f0       	breq	.+40     	; 0x2a8 <.L17>
     280:	83 30       	cpi	r24, 0x03	; 3
     282:	91 05       	cpc	r25, r1
     284:	bc f4       	brge	.+46     	; 0x2b4 <.L18>
     286:	00 97       	sbiw	r24, 0x00	; 0
     288:	19 f0       	breq	.+6      	; 0x290 <.L19>
     28a:	01 97       	sbiw	r24, 0x01	; 1
     28c:	39 f0       	breq	.+14     	; 0x29c <.L20>
     28e:	12 c0       	rjmp	.+36     	; 0x2b4 <.L18>

00000290 <.L19>:
     290:	8a e3       	ldi	r24, 0x3A	; 58
     292:	90 e0       	ldi	r25, 0x00	; 0

00000294 <.LM44>:
     294:	2a 81       	ldd	r18, Y+2	; 0x02
     296:	fc 01       	movw	r30, r24
     298:	20 83       	st	Z, r18

0000029a <.LM45>:
     29a:	12 c0       	rjmp	.+36     	; 0x2c0 <.L16>

0000029c <.L20>:
     29c:	87 e3       	ldi	r24, 0x37	; 55
     29e:	90 e0       	ldi	r25, 0x00	; 0

000002a0 <.LM47>:
     2a0:	2a 81       	ldd	r18, Y+2	; 0x02
     2a2:	fc 01       	movw	r30, r24
     2a4:	20 83       	st	Z, r18

000002a6 <.LM48>:
     2a6:	0c c0       	rjmp	.+24     	; 0x2c0 <.L16>

000002a8 <.L17>:
     2a8:	84 e3       	ldi	r24, 0x34	; 52
     2aa:	90 e0       	ldi	r25, 0x00	; 0

000002ac <.LM50>:
     2ac:	2a 81       	ldd	r18, Y+2	; 0x02
     2ae:	fc 01       	movw	r30, r24
     2b0:	20 83       	st	Z, r18

000002b2 <.LM51>:
     2b2:	06 c0       	rjmp	.+12     	; 0x2c0 <.L16>

000002b4 <.L18>:
     2b4:	81 e3       	ldi	r24, 0x31	; 49
     2b6:	90 e0       	ldi	r25, 0x00	; 0

000002b8 <.LM53>:
     2b8:	2a 81       	ldd	r18, Y+2	; 0x02
     2ba:	fc 01       	movw	r30, r24
     2bc:	20 83       	st	Z, r18

000002be <.LM54>:
	...

000002c0 <.L16>:
     2c0:	00 00       	nop
     2c2:	0f 90       	pop	r0
     2c4:	0f 90       	pop	r0
     2c6:	df 91       	pop	r29
     2c8:	cf 91       	pop	r28
     2ca:	08 95       	ret

000002cc <GPIO_writePin>:
     2cc:	cf 93       	push	r28
     2ce:	df 93       	push	r29
     2d0:	00 d0       	rcall	.+0      	; 0x2d2 <L0^A>

000002d2 <L0^A>:
     2d2:	0f 92       	push	r0
     2d4:	cd b7       	in	r28, 0x3d	; 61
     2d6:	de b7       	in	r29, 0x3e	; 62
     2d8:	89 83       	std	Y+1, r24	; 0x01
     2da:	6a 83       	std	Y+2, r22	; 0x02
     2dc:	4b 83       	std	Y+3, r20	; 0x03

000002de <.LM57>:
     2de:	8a 81       	ldd	r24, Y+2	; 0x02
     2e0:	88 30       	cpi	r24, 0x08	; 8
     2e2:	08 f0       	brcs	.+2      	; 0x2e6 <.LM58>

000002e4 <L0^A>:
     2e4:	e1 c0       	rjmp	.+450    	; 0x4a8 <.L35>

000002e6 <.LM58>:
     2e6:	8b 81       	ldd	r24, Y+3	; 0x03
     2e8:	81 30       	cpi	r24, 0x01	; 1
     2ea:	21 f0       	breq	.+8      	; 0x2f4 <.L24>

000002ec <.LM59>:
     2ec:	8b 81       	ldd	r24, Y+3	; 0x03
     2ee:	88 23       	and	r24, r24
     2f0:	09 f0       	breq	.+2      	; 0x2f4 <.L24>

000002f2 <L0^A>:
     2f2:	db c0       	rjmp	.+438    	; 0x4aa <.L23>

000002f4 <.L24>:
     2f4:	8b 81       	ldd	r24, Y+3	; 0x03
     2f6:	81 30       	cpi	r24, 0x01	; 1
     2f8:	09 f0       	breq	.+2      	; 0x2fc <.LM61>

000002fa <L0^A>:
     2fa:	67 c0       	rjmp	.+206    	; 0x3ca <.L25>

000002fc <.LM61>:
     2fc:	89 81       	ldd	r24, Y+1	; 0x01
     2fe:	88 2f       	mov	r24, r24
     300:	90 e0       	ldi	r25, 0x00	; 0
     302:	82 30       	cpi	r24, 0x02	; 2
     304:	91 05       	cpc	r25, r1
     306:	a9 f1       	breq	.+106    	; 0x372 <.L26>
     308:	83 30       	cpi	r24, 0x03	; 3
     30a:	91 05       	cpc	r25, r1
     30c:	0c f0       	brlt	.+2      	; 0x310 <L0^A+0x2>

0000030e <L0^A>:
     30e:	47 c0       	rjmp	.+142    	; 0x39e <.L27>
     310:	00 97       	sbiw	r24, 0x00	; 0
     312:	19 f0       	breq	.+6      	; 0x31a <.L28>
     314:	01 97       	sbiw	r24, 0x01	; 1
     316:	b9 f0       	breq	.+46     	; 0x346 <.L29>
     318:	42 c0       	rjmp	.+132    	; 0x39e <.L27>

0000031a <.L28>:
     31a:	8b e3       	ldi	r24, 0x3B	; 59
     31c:	90 e0       	ldi	r25, 0x00	; 0
     31e:	fc 01       	movw	r30, r24
     320:	80 81       	ld	r24, Z
     322:	48 2f       	mov	r20, r24

00000324 <.LM63>:
     324:	8a 81       	ldd	r24, Y+2	; 0x02
     326:	28 2f       	mov	r18, r24
     328:	30 e0       	ldi	r19, 0x00	; 0
     32a:	81 e0       	ldi	r24, 0x01	; 1
     32c:	90 e0       	ldi	r25, 0x00	; 0
     32e:	02 c0       	rjmp	.+4      	; 0x334 <.L2^B9>

00000330 <.L1^B9>:
     330:	88 0f       	add	r24, r24
     332:	99 1f       	adc	r25, r25

00000334 <.L2^B9>:
     334:	2a 95       	dec	r18
     336:	e2 f7       	brpl	.-8      	; 0x330 <.L1^B9>

00000338 <.LM64>:
     338:	24 2f       	mov	r18, r20
     33a:	28 2b       	or	r18, r24
     33c:	8b e3       	ldi	r24, 0x3B	; 59
     33e:	90 e0       	ldi	r25, 0x00	; 0
     340:	fc 01       	movw	r30, r24
     342:	20 83       	st	Z, r18

00000344 <.LM65>:
     344:	b2 c0       	rjmp	.+356    	; 0x4aa <.L23>

00000346 <.L29>:
     346:	88 e3       	ldi	r24, 0x38	; 56
     348:	90 e0       	ldi	r25, 0x00	; 0
     34a:	fc 01       	movw	r30, r24
     34c:	80 81       	ld	r24, Z
     34e:	48 2f       	mov	r20, r24

00000350 <.LM67>:
     350:	8a 81       	ldd	r24, Y+2	; 0x02
     352:	28 2f       	mov	r18, r24
     354:	30 e0       	ldi	r19, 0x00	; 0
     356:	81 e0       	ldi	r24, 0x01	; 1
     358:	90 e0       	ldi	r25, 0x00	; 0
     35a:	02 c0       	rjmp	.+4      	; 0x360 <.L2^B10>

0000035c <.L1^B10>:
     35c:	88 0f       	add	r24, r24
     35e:	99 1f       	adc	r25, r25

00000360 <.L2^B10>:
     360:	2a 95       	dec	r18
     362:	e2 f7       	brpl	.-8      	; 0x35c <.L1^B10>

00000364 <.LM68>:
     364:	24 2f       	mov	r18, r20
     366:	28 2b       	or	r18, r24
     368:	88 e3       	ldi	r24, 0x38	; 56
     36a:	90 e0       	ldi	r25, 0x00	; 0
     36c:	fc 01       	movw	r30, r24
     36e:	20 83       	st	Z, r18

00000370 <.LM69>:
     370:	9c c0       	rjmp	.+312    	; 0x4aa <.L23>

00000372 <.L26>:
     372:	85 e3       	ldi	r24, 0x35	; 53
     374:	90 e0       	ldi	r25, 0x00	; 0
     376:	fc 01       	movw	r30, r24
     378:	80 81       	ld	r24, Z
     37a:	48 2f       	mov	r20, r24

0000037c <.LM71>:
     37c:	8a 81       	ldd	r24, Y+2	; 0x02
     37e:	28 2f       	mov	r18, r24
     380:	30 e0       	ldi	r19, 0x00	; 0
     382:	81 e0       	ldi	r24, 0x01	; 1
     384:	90 e0       	ldi	r25, 0x00	; 0
     386:	02 c0       	rjmp	.+4      	; 0x38c <.L2^B11>

00000388 <.L1^B11>:
     388:	88 0f       	add	r24, r24
     38a:	99 1f       	adc	r25, r25

0000038c <.L2^B11>:
     38c:	2a 95       	dec	r18
     38e:	e2 f7       	brpl	.-8      	; 0x388 <.L1^B11>

00000390 <.LM72>:
     390:	24 2f       	mov	r18, r20
     392:	28 2b       	or	r18, r24
     394:	85 e3       	ldi	r24, 0x35	; 53
     396:	90 e0       	ldi	r25, 0x00	; 0
     398:	fc 01       	movw	r30, r24
     39a:	20 83       	st	Z, r18

0000039c <.LM73>:
     39c:	86 c0       	rjmp	.+268    	; 0x4aa <.L23>

0000039e <.L27>:
     39e:	82 e3       	ldi	r24, 0x32	; 50
     3a0:	90 e0       	ldi	r25, 0x00	; 0
     3a2:	fc 01       	movw	r30, r24
     3a4:	80 81       	ld	r24, Z
     3a6:	48 2f       	mov	r20, r24

000003a8 <.LM75>:
     3a8:	8a 81       	ldd	r24, Y+2	; 0x02
     3aa:	28 2f       	mov	r18, r24
     3ac:	30 e0       	ldi	r19, 0x00	; 0
     3ae:	81 e0       	ldi	r24, 0x01	; 1
     3b0:	90 e0       	ldi	r25, 0x00	; 0
     3b2:	02 c0       	rjmp	.+4      	; 0x3b8 <.L2^B12>

000003b4 <.L1^B12>:
     3b4:	88 0f       	add	r24, r24
     3b6:	99 1f       	adc	r25, r25

000003b8 <.L2^B12>:
     3b8:	2a 95       	dec	r18
     3ba:	e2 f7       	brpl	.-8      	; 0x3b4 <.L1^B12>

000003bc <.LM76>:
     3bc:	24 2f       	mov	r18, r20
     3be:	28 2b       	or	r18, r24
     3c0:	82 e3       	ldi	r24, 0x32	; 50
     3c2:	90 e0       	ldi	r25, 0x00	; 0
     3c4:	fc 01       	movw	r30, r24
     3c6:	20 83       	st	Z, r18

000003c8 <.LM77>:
     3c8:	70 c0       	rjmp	.+224    	; 0x4aa <.L23>

000003ca <.L25>:
     3ca:	8b 81       	ldd	r24, Y+3	; 0x03
     3cc:	88 23       	and	r24, r24
     3ce:	09 f0       	breq	.+2      	; 0x3d2 <.LM79>

000003d0 <L0^A>:
     3d0:	6b c0       	rjmp	.+214    	; 0x4a8 <.L35>

000003d2 <.LM79>:
     3d2:	89 81       	ldd	r24, Y+1	; 0x01
     3d4:	88 2f       	mov	r24, r24
     3d6:	90 e0       	ldi	r25, 0x00	; 0
     3d8:	82 30       	cpi	r24, 0x02	; 2
     3da:	91 05       	cpc	r25, r1
     3dc:	b9 f1       	breq	.+110    	; 0x44c <.L31>
     3de:	83 30       	cpi	r24, 0x03	; 3
     3e0:	91 05       	cpc	r25, r1
     3e2:	0c f0       	brlt	.+2      	; 0x3e6 <L0^A+0x2>

000003e4 <L0^A>:
     3e4:	4a c0       	rjmp	.+148    	; 0x47a <.L32>
     3e6:	00 97       	sbiw	r24, 0x00	; 0
     3e8:	19 f0       	breq	.+6      	; 0x3f0 <.L33>
     3ea:	01 97       	sbiw	r24, 0x01	; 1
     3ec:	c1 f0       	breq	.+48     	; 0x41e <.L34>
     3ee:	45 c0       	rjmp	.+138    	; 0x47a <.L32>

000003f0 <.L33>:
     3f0:	8b e3       	ldi	r24, 0x3B	; 59
     3f2:	90 e0       	ldi	r25, 0x00	; 0
     3f4:	fc 01       	movw	r30, r24
     3f6:	80 81       	ld	r24, Z
     3f8:	48 2f       	mov	r20, r24

000003fa <.LM81>:
     3fa:	8a 81       	ldd	r24, Y+2	; 0x02
     3fc:	28 2f       	mov	r18, r24
     3fe:	30 e0       	ldi	r19, 0x00	; 0
     400:	81 e0       	ldi	r24, 0x01	; 1
     402:	90 e0       	ldi	r25, 0x00	; 0
     404:	02 c0       	rjmp	.+4      	; 0x40a <.L2^B13>

00000406 <.L1^B13>:
     406:	88 0f       	add	r24, r24
     408:	99 1f       	adc	r25, r25

0000040a <.L2^B13>:
     40a:	2a 95       	dec	r18
     40c:	e2 f7       	brpl	.-8      	; 0x406 <.L1^B13>

0000040e <.LM82>:
     40e:	80 95       	com	r24
     410:	24 2f       	mov	r18, r20
     412:	28 23       	and	r18, r24
     414:	8b e3       	ldi	r24, 0x3B	; 59
     416:	90 e0       	ldi	r25, 0x00	; 0
     418:	fc 01       	movw	r30, r24
     41a:	20 83       	st	Z, r18

0000041c <.LM83>:
     41c:	46 c0       	rjmp	.+140    	; 0x4aa <.L23>

0000041e <.L34>:
     41e:	88 e3       	ldi	r24, 0x38	; 56
     420:	90 e0       	ldi	r25, 0x00	; 0
     422:	fc 01       	movw	r30, r24
     424:	80 81       	ld	r24, Z
     426:	48 2f       	mov	r20, r24

00000428 <.LM85>:
     428:	8a 81       	ldd	r24, Y+2	; 0x02
     42a:	28 2f       	mov	r18, r24
     42c:	30 e0       	ldi	r19, 0x00	; 0
     42e:	81 e0       	ldi	r24, 0x01	; 1
     430:	90 e0       	ldi	r25, 0x00	; 0
     432:	02 c0       	rjmp	.+4      	; 0x438 <.L2^B14>

00000434 <.L1^B14>:
     434:	88 0f       	add	r24, r24
     436:	99 1f       	adc	r25, r25

00000438 <.L2^B14>:
     438:	2a 95       	dec	r18
     43a:	e2 f7       	brpl	.-8      	; 0x434 <.L1^B14>

0000043c <.LM86>:
     43c:	80 95       	com	r24
     43e:	24 2f       	mov	r18, r20
     440:	28 23       	and	r18, r24
     442:	88 e3       	ldi	r24, 0x38	; 56
     444:	90 e0       	ldi	r25, 0x00	; 0
     446:	fc 01       	movw	r30, r24
     448:	20 83       	st	Z, r18

0000044a <.LM87>:
     44a:	2f c0       	rjmp	.+94     	; 0x4aa <.L23>

0000044c <.L31>:
     44c:	85 e3       	ldi	r24, 0x35	; 53
     44e:	90 e0       	ldi	r25, 0x00	; 0
     450:	fc 01       	movw	r30, r24
     452:	80 81       	ld	r24, Z
     454:	48 2f       	mov	r20, r24

00000456 <.LM89>:
     456:	8a 81       	ldd	r24, Y+2	; 0x02
     458:	28 2f       	mov	r18, r24
     45a:	30 e0       	ldi	r19, 0x00	; 0
     45c:	81 e0       	ldi	r24, 0x01	; 1
     45e:	90 e0       	ldi	r25, 0x00	; 0
     460:	02 c0       	rjmp	.+4      	; 0x466 <.L2^B15>

00000462 <.L1^B15>:
     462:	88 0f       	add	r24, r24
     464:	99 1f       	adc	r25, r25

00000466 <.L2^B15>:
     466:	2a 95       	dec	r18
     468:	e2 f7       	brpl	.-8      	; 0x462 <.L1^B15>

0000046a <.LM90>:
     46a:	80 95       	com	r24
     46c:	24 2f       	mov	r18, r20
     46e:	28 23       	and	r18, r24
     470:	85 e3       	ldi	r24, 0x35	; 53
     472:	90 e0       	ldi	r25, 0x00	; 0
     474:	fc 01       	movw	r30, r24
     476:	20 83       	st	Z, r18

00000478 <.LM91>:
     478:	18 c0       	rjmp	.+48     	; 0x4aa <.L23>

0000047a <.L32>:
     47a:	82 e3       	ldi	r24, 0x32	; 50
     47c:	90 e0       	ldi	r25, 0x00	; 0
     47e:	fc 01       	movw	r30, r24
     480:	80 81       	ld	r24, Z
     482:	48 2f       	mov	r20, r24

00000484 <.LM93>:
     484:	8a 81       	ldd	r24, Y+2	; 0x02
     486:	28 2f       	mov	r18, r24
     488:	30 e0       	ldi	r19, 0x00	; 0
     48a:	81 e0       	ldi	r24, 0x01	; 1
     48c:	90 e0       	ldi	r25, 0x00	; 0
     48e:	02 c0       	rjmp	.+4      	; 0x494 <.L2^B16>

00000490 <.L1^B16>:
     490:	88 0f       	add	r24, r24
     492:	99 1f       	adc	r25, r25

00000494 <.L2^B16>:
     494:	2a 95       	dec	r18
     496:	e2 f7       	brpl	.-8      	; 0x490 <.L1^B16>

00000498 <.LM94>:
     498:	80 95       	com	r24
     49a:	24 2f       	mov	r18, r20
     49c:	28 23       	and	r18, r24
     49e:	82 e3       	ldi	r24, 0x32	; 50
     4a0:	90 e0       	ldi	r25, 0x00	; 0
     4a2:	fc 01       	movw	r30, r24
     4a4:	20 83       	st	Z, r18

000004a6 <.LM95>:
     4a6:	01 c0       	rjmp	.+2      	; 0x4aa <.L23>

000004a8 <.L35>:
	...

000004aa <.L23>:
     4aa:	00 00       	nop
     4ac:	0f 90       	pop	r0
     4ae:	0f 90       	pop	r0
     4b0:	0f 90       	pop	r0
     4b2:	df 91       	pop	r29
     4b4:	cf 91       	pop	r28
     4b6:	08 95       	ret

000004b8 <GPIO_writePort>:
     4b8:	cf 93       	push	r28
     4ba:	df 93       	push	r29
     4bc:	00 d0       	rcall	.+0      	; 0x4be <L0^A>

000004be <L0^A>:
     4be:	cd b7       	in	r28, 0x3d	; 61
     4c0:	de b7       	in	r29, 0x3e	; 62
     4c2:	89 83       	std	Y+1, r24	; 0x01
     4c4:	6a 83       	std	Y+2, r22	; 0x02

000004c6 <.LM99>:
     4c6:	89 81       	ldd	r24, Y+1	; 0x01
     4c8:	84 30       	cpi	r24, 0x04	; 4
     4ca:	30 f5       	brcc	.+76     	; 0x518 <.L37>

000004cc <.LM100>:
     4cc:	89 81       	ldd	r24, Y+1	; 0x01
     4ce:	88 2f       	mov	r24, r24
     4d0:	90 e0       	ldi	r25, 0x00	; 0
     4d2:	82 30       	cpi	r24, 0x02	; 2
     4d4:	91 05       	cpc	r25, r1
     4d6:	a1 f0       	breq	.+40     	; 0x500 <.L38>
     4d8:	83 30       	cpi	r24, 0x03	; 3
     4da:	91 05       	cpc	r25, r1
     4dc:	bc f4       	brge	.+46     	; 0x50c <.L39>
     4de:	00 97       	sbiw	r24, 0x00	; 0
     4e0:	19 f0       	breq	.+6      	; 0x4e8 <.L40>
     4e2:	01 97       	sbiw	r24, 0x01	; 1
     4e4:	39 f0       	breq	.+14     	; 0x4f4 <.L41>
     4e6:	12 c0       	rjmp	.+36     	; 0x50c <.L39>

000004e8 <.L40>:
     4e8:	8b e3       	ldi	r24, 0x3B	; 59
     4ea:	90 e0       	ldi	r25, 0x00	; 0

000004ec <.LM102>:
     4ec:	2a 81       	ldd	r18, Y+2	; 0x02
     4ee:	fc 01       	movw	r30, r24
     4f0:	20 83       	st	Z, r18

000004f2 <.LM103>:
     4f2:	12 c0       	rjmp	.+36     	; 0x518 <.L37>

000004f4 <.L41>:
     4f4:	88 e3       	ldi	r24, 0x38	; 56
     4f6:	90 e0       	ldi	r25, 0x00	; 0

000004f8 <.LM105>:
     4f8:	2a 81       	ldd	r18, Y+2	; 0x02
     4fa:	fc 01       	movw	r30, r24
     4fc:	20 83       	st	Z, r18

000004fe <.LM106>:
     4fe:	0c c0       	rjmp	.+24     	; 0x518 <.L37>

00000500 <.L38>:
     500:	85 e3       	ldi	r24, 0x35	; 53
     502:	90 e0       	ldi	r25, 0x00	; 0

00000504 <.LM108>:
     504:	2a 81       	ldd	r18, Y+2	; 0x02
     506:	fc 01       	movw	r30, r24
     508:	20 83       	st	Z, r18

0000050a <.LM109>:
     50a:	06 c0       	rjmp	.+12     	; 0x518 <.L37>

0000050c <.L39>:
     50c:	82 e3       	ldi	r24, 0x32	; 50
     50e:	90 e0       	ldi	r25, 0x00	; 0

00000510 <.LM111>:
     510:	2a 81       	ldd	r18, Y+2	; 0x02
     512:	fc 01       	movw	r30, r24
     514:	20 83       	st	Z, r18

00000516 <.LM112>:
	...

00000518 <.L37>:
     518:	00 00       	nop
     51a:	0f 90       	pop	r0
     51c:	0f 90       	pop	r0
     51e:	df 91       	pop	r29
     520:	cf 91       	pop	r28
     522:	08 95       	ret

00000524 <GPIO_readPin>:
     524:	cf 93       	push	r28
     526:	df 93       	push	r29
     528:	00 d0       	rcall	.+0      	; 0x52a <L0^A>

0000052a <L0^A>:
     52a:	cd b7       	in	r28, 0x3d	; 61
     52c:	de b7       	in	r29, 0x3e	; 62
     52e:	89 83       	std	Y+1, r24	; 0x01
     530:	6a 83       	std	Y+2, r22	; 0x02

00000532 <.LM115>:
     532:	8a 81       	ldd	r24, Y+2	; 0x02
     534:	88 30       	cpi	r24, 0x08	; 8
     536:	10 f0       	brcs	.+4      	; 0x53c <.L44>

00000538 <.LM116>:
     538:	80 e0       	ldi	r24, 0x00	; 0
     53a:	4d c0       	rjmp	.+154    	; 0x5d6 <.L45>

0000053c <.L44>:
     53c:	89 81       	ldd	r24, Y+1	; 0x01
     53e:	88 2f       	mov	r24, r24
     540:	90 e0       	ldi	r25, 0x00	; 0
     542:	82 30       	cpi	r24, 0x02	; 2
     544:	91 05       	cpc	r25, r1
     546:	41 f1       	breq	.+80     	; 0x598 <.L46>
     548:	83 30       	cpi	r24, 0x03	; 3
     54a:	91 05       	cpc	r25, r1
     54c:	ac f5       	brge	.+106    	; 0x5b8 <.L47>
     54e:	00 97       	sbiw	r24, 0x00	; 0
     550:	19 f0       	breq	.+6      	; 0x558 <.L48>
     552:	01 97       	sbiw	r24, 0x01	; 1
     554:	89 f0       	breq	.+34     	; 0x578 <.L49>
     556:	30 c0       	rjmp	.+96     	; 0x5b8 <.L47>

00000558 <.L48>:
     558:	89 e3       	ldi	r24, 0x39	; 57
     55a:	90 e0       	ldi	r25, 0x00	; 0
     55c:	fc 01       	movw	r30, r24
     55e:	80 81       	ld	r24, Z
     560:	88 2f       	mov	r24, r24
     562:	90 e0       	ldi	r25, 0x00	; 0
     564:	2a 81       	ldd	r18, Y+2	; 0x02
     566:	22 2f       	mov	r18, r18
     568:	30 e0       	ldi	r19, 0x00	; 0
     56a:	02 c0       	rjmp	.+4      	; 0x570 <.L2^B17>

0000056c <.L1^B17>:
     56c:	95 95       	asr	r25
     56e:	87 95       	ror	r24

00000570 <.L2^B17>:
     570:	2a 95       	dec	r18
     572:	e2 f7       	brpl	.-8      	; 0x56c <.L1^B17>
     574:	81 70       	andi	r24, 0x01	; 1
     576:	2f c0       	rjmp	.+94     	; 0x5d6 <.L45>

00000578 <.L49>:
     578:	86 e3       	ldi	r24, 0x36	; 54
     57a:	90 e0       	ldi	r25, 0x00	; 0
     57c:	fc 01       	movw	r30, r24
     57e:	80 81       	ld	r24, Z
     580:	88 2f       	mov	r24, r24
     582:	90 e0       	ldi	r25, 0x00	; 0
     584:	2a 81       	ldd	r18, Y+2	; 0x02
     586:	22 2f       	mov	r18, r18
     588:	30 e0       	ldi	r19, 0x00	; 0
     58a:	02 c0       	rjmp	.+4      	; 0x590 <.L2^B18>

0000058c <.L1^B18>:
     58c:	95 95       	asr	r25
     58e:	87 95       	ror	r24

00000590 <.L2^B18>:
     590:	2a 95       	dec	r18
     592:	e2 f7       	brpl	.-8      	; 0x58c <.L1^B18>
     594:	81 70       	andi	r24, 0x01	; 1
     596:	1f c0       	rjmp	.+62     	; 0x5d6 <.L45>

00000598 <.L46>:
     598:	83 e3       	ldi	r24, 0x33	; 51
     59a:	90 e0       	ldi	r25, 0x00	; 0
     59c:	fc 01       	movw	r30, r24
     59e:	80 81       	ld	r24, Z
     5a0:	88 2f       	mov	r24, r24
     5a2:	90 e0       	ldi	r25, 0x00	; 0
     5a4:	2a 81       	ldd	r18, Y+2	; 0x02
     5a6:	22 2f       	mov	r18, r18
     5a8:	30 e0       	ldi	r19, 0x00	; 0
     5aa:	02 c0       	rjmp	.+4      	; 0x5b0 <.L2^B19>

000005ac <.L1^B19>:
     5ac:	95 95       	asr	r25
     5ae:	87 95       	ror	r24

000005b0 <.L2^B19>:
     5b0:	2a 95       	dec	r18
     5b2:	e2 f7       	brpl	.-8      	; 0x5ac <.L1^B19>
     5b4:	81 70       	andi	r24, 0x01	; 1
     5b6:	0f c0       	rjmp	.+30     	; 0x5d6 <.L45>

000005b8 <.L47>:
     5b8:	80 e3       	ldi	r24, 0x30	; 48
     5ba:	90 e0       	ldi	r25, 0x00	; 0
     5bc:	fc 01       	movw	r30, r24
     5be:	80 81       	ld	r24, Z
     5c0:	88 2f       	mov	r24, r24
     5c2:	90 e0       	ldi	r25, 0x00	; 0
     5c4:	2a 81       	ldd	r18, Y+2	; 0x02
     5c6:	22 2f       	mov	r18, r18
     5c8:	30 e0       	ldi	r19, 0x00	; 0
     5ca:	02 c0       	rjmp	.+4      	; 0x5d0 <.L2^B20>

000005cc <.L1^B20>:
     5cc:	95 95       	asr	r25
     5ce:	87 95       	ror	r24

000005d0 <.L2^B20>:
     5d0:	2a 95       	dec	r18
     5d2:	e2 f7       	brpl	.-8      	; 0x5cc <.L1^B20>
     5d4:	81 70       	andi	r24, 0x01	; 1

000005d6 <.L45>:
     5d6:	0f 90       	pop	r0
     5d8:	0f 90       	pop	r0
     5da:	df 91       	pop	r29
     5dc:	cf 91       	pop	r28
     5de:	08 95       	ret

000005e0 <GPIO_readPort>:
     5e0:	cf 93       	push	r28
     5e2:	df 93       	push	r29
     5e4:	0f 92       	push	r0
     5e6:	cd b7       	in	r28, 0x3d	; 61
     5e8:	de b7       	in	r29, 0x3e	; 62
     5ea:	89 83       	std	Y+1, r24	; 0x01

000005ec <.LM124>:
     5ec:	89 81       	ldd	r24, Y+1	; 0x01
     5ee:	84 30       	cpi	r24, 0x04	; 4
     5f0:	10 f0       	brcs	.+4      	; 0x5f6 <.L51>

000005f2 <.LM125>:
     5f2:	80 e0       	ldi	r24, 0x00	; 0
     5f4:	21 c0       	rjmp	.+66     	; 0x638 <.L52>

000005f6 <.L51>:
     5f6:	89 81       	ldd	r24, Y+1	; 0x01
     5f8:	88 2f       	mov	r24, r24
     5fa:	90 e0       	ldi	r25, 0x00	; 0
     5fc:	82 30       	cpi	r24, 0x02	; 2
     5fe:	91 05       	cpc	r25, r1
     600:	91 f0       	breq	.+36     	; 0x626 <.L53>
     602:	83 30       	cpi	r24, 0x03	; 3
     604:	91 05       	cpc	r25, r1
     606:	a4 f4       	brge	.+40     	; 0x630 <.L54>
     608:	00 97       	sbiw	r24, 0x00	; 0
     60a:	19 f0       	breq	.+6      	; 0x612 <.L55>
     60c:	01 97       	sbiw	r24, 0x01	; 1
     60e:	31 f0       	breq	.+12     	; 0x61c <.L56>
     610:	0f c0       	rjmp	.+30     	; 0x630 <.L54>

00000612 <.L55>:
     612:	89 e3       	ldi	r24, 0x39	; 57
     614:	90 e0       	ldi	r25, 0x00	; 0
     616:	fc 01       	movw	r30, r24
     618:	80 81       	ld	r24, Z
     61a:	0e c0       	rjmp	.+28     	; 0x638 <.L52>

0000061c <.L56>:
     61c:	86 e3       	ldi	r24, 0x36	; 54
     61e:	90 e0       	ldi	r25, 0x00	; 0
     620:	fc 01       	movw	r30, r24
     622:	80 81       	ld	r24, Z
     624:	09 c0       	rjmp	.+18     	; 0x638 <.L52>

00000626 <.L53>:
     626:	83 e3       	ldi	r24, 0x33	; 51
     628:	90 e0       	ldi	r25, 0x00	; 0
     62a:	fc 01       	movw	r30, r24
     62c:	80 81       	ld	r24, Z
     62e:	04 c0       	rjmp	.+8      	; 0x638 <.L52>

00000630 <.L54>:
     630:	83 e3       	ldi	r24, 0x33	; 51
     632:	90 e0       	ldi	r25, 0x00	; 0
     634:	fc 01       	movw	r30, r24
     636:	80 81       	ld	r24, Z

00000638 <.L52>:
     638:	0f 90       	pop	r0
     63a:	df 91       	pop	r29
     63c:	cf 91       	pop	r28
     63e:	08 95       	ret

00000640 <GRN_LED_init>:
     640:	cf 93       	push	r28
     642:	df 93       	push	r29
     644:	cd b7       	in	r28, 0x3d	; 61
     646:	de b7       	in	r29, 0x3e	; 62

00000648 <.LM1>:
     648:	41 e0       	ldi	r20, 0x01	; 1
     64a:	61 e0       	ldi	r22, 0x01	; 1
     64c:	82 e0       	ldi	r24, 0x02	; 2
     64e:	0e 94 41 00 	call	0x82	; 0x82 <GPIO_setupPinDirection>

00000652 <.LM2>:
     652:	40 e0       	ldi	r20, 0x00	; 0
     654:	61 e0       	ldi	r22, 0x01	; 1
     656:	82 e0       	ldi	r24, 0x02	; 2
     658:	0e 94 66 01 	call	0x2cc	; 0x2cc <GPIO_writePin>

0000065c <.LM3>:
     65c:	00 00       	nop
     65e:	df 91       	pop	r29
     660:	cf 91       	pop	r28
     662:	08 95       	ret

00000664 <GRN_LED_on>:
     664:	cf 93       	push	r28
     666:	df 93       	push	r29
     668:	cd b7       	in	r28, 0x3d	; 61
     66a:	de b7       	in	r29, 0x3e	; 62

0000066c <.LM5>:
     66c:	41 e0       	ldi	r20, 0x01	; 1
     66e:	61 e0       	ldi	r22, 0x01	; 1
     670:	82 e0       	ldi	r24, 0x02	; 2
     672:	0e 94 66 01 	call	0x2cc	; 0x2cc <GPIO_writePin>

00000676 <.LM6>:
     676:	00 00       	nop
     678:	df 91       	pop	r29
     67a:	cf 91       	pop	r28
     67c:	08 95       	ret

0000067e <GRN_LED_off>:
     67e:	cf 93       	push	r28
     680:	df 93       	push	r29
     682:	cd b7       	in	r28, 0x3d	; 61
     684:	de b7       	in	r29, 0x3e	; 62

00000686 <.LM8>:
     686:	40 e0       	ldi	r20, 0x00	; 0
     688:	61 e0       	ldi	r22, 0x01	; 1
     68a:	82 e0       	ldi	r24, 0x02	; 2
     68c:	0e 94 66 01 	call	0x2cc	; 0x2cc <GPIO_writePin>

00000690 <.LM9>:
     690:	00 00       	nop
     692:	df 91       	pop	r29
     694:	cf 91       	pop	r28
     696:	08 95       	ret

00000698 <RED_LED_init>:
     698:	cf 93       	push	r28
     69a:	df 93       	push	r29
     69c:	cd b7       	in	r28, 0x3d	; 61
     69e:	de b7       	in	r29, 0x3e	; 62

000006a0 <.LM1>:
     6a0:	41 e0       	ldi	r20, 0x01	; 1
     6a2:	60 e0       	ldi	r22, 0x00	; 0
     6a4:	82 e0       	ldi	r24, 0x02	; 2
     6a6:	0e 94 41 00 	call	0x82	; 0x82 <GPIO_setupPinDirection>

000006aa <.LM2>:
     6aa:	40 e0       	ldi	r20, 0x00	; 0
     6ac:	60 e0       	ldi	r22, 0x00	; 0
     6ae:	82 e0       	ldi	r24, 0x02	; 2
     6b0:	0e 94 66 01 	call	0x2cc	; 0x2cc <GPIO_writePin>

000006b4 <.LM3>:
     6b4:	00 00       	nop
     6b6:	df 91       	pop	r29
     6b8:	cf 91       	pop	r28
     6ba:	08 95       	ret

000006bc <RED_LED_on>:
     6bc:	cf 93       	push	r28
     6be:	df 93       	push	r29
     6c0:	cd b7       	in	r28, 0x3d	; 61
     6c2:	de b7       	in	r29, 0x3e	; 62

000006c4 <.LM5>:
     6c4:	41 e0       	ldi	r20, 0x01	; 1
     6c6:	60 e0       	ldi	r22, 0x00	; 0
     6c8:	82 e0       	ldi	r24, 0x02	; 2
     6ca:	0e 94 66 01 	call	0x2cc	; 0x2cc <GPIO_writePin>

000006ce <.LM6>:
     6ce:	00 00       	nop
     6d0:	df 91       	pop	r29
     6d2:	cf 91       	pop	r28
     6d4:	08 95       	ret

000006d6 <RED_LED_off>:
     6d6:	cf 93       	push	r28
     6d8:	df 93       	push	r29
     6da:	cd b7       	in	r28, 0x3d	; 61
     6dc:	de b7       	in	r29, 0x3e	; 62

000006de <.LM8>:
     6de:	40 e0       	ldi	r20, 0x00	; 0
     6e0:	60 e0       	ldi	r22, 0x00	; 0
     6e2:	82 e0       	ldi	r24, 0x02	; 2
     6e4:	0e 94 66 01 	call	0x2cc	; 0x2cc <GPIO_writePin>

000006e8 <.LM9>:
     6e8:	00 00       	nop
     6ea:	df 91       	pop	r29
     6ec:	cf 91       	pop	r28
     6ee:	08 95       	ret

000006f0 <LCD_init>:
     6f0:	cf 93       	push	r28
     6f2:	df 93       	push	r29
     6f4:	cd b7       	in	r28, 0x3d	; 61
     6f6:	de b7       	in	r29, 0x3e	; 62
     6f8:	c4 54       	subi	r28, 0x44	; 68
     6fa:	d1 09       	sbc	r29, r1
     6fc:	0f b6       	in	r0, 0x3f	; 63
     6fe:	f8 94       	cli
     700:	de bf       	out	0x3e, r29	; 62
     702:	0f be       	out	0x3f, r0	; 63
     704:	cd bf       	out	0x3d, r28	; 61

00000706 <.LM1>:
     706:	41 e0       	ldi	r20, 0x01	; 1
     708:	61 e0       	ldi	r22, 0x01	; 1
     70a:	80 e0       	ldi	r24, 0x00	; 0
     70c:	0e 94 41 00 	call	0x82	; 0x82 <GPIO_setupPinDirection>

00000710 <.LM2>:
     710:	41 e0       	ldi	r20, 0x01	; 1
     712:	62 e0       	ldi	r22, 0x02	; 2
     714:	80 e0       	ldi	r24, 0x00	; 0
     716:	0e 94 41 00 	call	0x82	; 0x82 <GPIO_setupPinDirection>
     71a:	80 e0       	ldi	r24, 0x00	; 0
     71c:	90 e0       	ldi	r25, 0x00	; 0
     71e:	a0 ea       	ldi	r26, 0xA0	; 160
     720:	b1 e4       	ldi	r27, 0x41	; 65
     722:	8f 87       	std	Y+15, r24	; 0x0f
     724:	98 8b       	std	Y+16, r25	; 0x10
     726:	a9 8b       	std	Y+17, r26	; 0x11
     728:	ba 8b       	std	Y+18, r27	; 0x12

0000072a <.LM3>:
     72a:	20 e0       	ldi	r18, 0x00	; 0
     72c:	30 e0       	ldi	r19, 0x00	; 0
     72e:	4a e7       	ldi	r20, 0x7A	; 122
     730:	55 e4       	ldi	r21, 0x45	; 69
     732:	6f 85       	ldd	r22, Y+15	; 0x0f
     734:	78 89       	ldd	r23, Y+16	; 0x10
     736:	89 89       	ldd	r24, Y+17	; 0x11
     738:	9a 89       	ldd	r25, Y+18	; 0x12
     73a:	0e 94 da 26 	call	0x4db4	; 0x4db4 <__mulsf3>
     73e:	6d a3       	std	Y+37, r22	; 0x25
     740:	7e a3       	std	Y+38, r23	; 0x26
     742:	8f a3       	std	Y+39, r24	; 0x27
     744:	98 a7       	std	Y+40, r25	; 0x28
     746:	8d a1       	ldd	r24, Y+37	; 0x25
     748:	9e a1       	ldd	r25, Y+38	; 0x26
     74a:	af a1       	ldd	r26, Y+39	; 0x27
     74c:	b8 a5       	ldd	r27, Y+40	; 0x28
     74e:	8b 8b       	std	Y+19, r24	; 0x13
     750:	9c 8b       	std	Y+20, r25	; 0x14
     752:	ad 8b       	std	Y+21, r26	; 0x15
     754:	be 8b       	std	Y+22, r27	; 0x16

00000756 <.LM4>:
     756:	20 e0       	ldi	r18, 0x00	; 0
     758:	30 e0       	ldi	r19, 0x00	; 0
     75a:	40 e8       	ldi	r20, 0x80	; 128
     75c:	5f e3       	ldi	r21, 0x3F	; 63
     75e:	6b 89       	ldd	r22, Y+19	; 0x13
     760:	7c 89       	ldd	r23, Y+20	; 0x14
     762:	8d 89       	ldd	r24, Y+21	; 0x15
     764:	9e 89       	ldd	r25, Y+22	; 0x16
     766:	0e 94 ba 25 	call	0x4b74	; 0x4b74 <__cmpsf2>
     76a:	88 23       	and	r24, r24
     76c:	2c f4       	brge	.+10     	; 0x778 <.L22>

0000076e <.LM5>:
     76e:	81 e0       	ldi	r24, 0x01	; 1
     770:	90 e0       	ldi	r25, 0x00	; 0
     772:	98 8f       	std	Y+24, r25	; 0x18
     774:	8f 8b       	std	Y+23, r24	; 0x17
     776:	54 c0       	rjmp	.+168    	; 0x820 <.L4>

00000778 <.L22>:
     778:	20 e0       	ldi	r18, 0x00	; 0
     77a:	3f ef       	ldi	r19, 0xFF	; 255
     77c:	4f e7       	ldi	r20, 0x7F	; 127
     77e:	57 e4       	ldi	r21, 0x47	; 71
     780:	6b 89       	ldd	r22, Y+19	; 0x13
     782:	7c 89       	ldd	r23, Y+20	; 0x14
     784:	8d 89       	ldd	r24, Y+21	; 0x15
     786:	9e 89       	ldd	r25, Y+22	; 0x16
     788:	0e 94 d5 26 	call	0x4daa	; 0x4daa <__gesf2>
     78c:	18 16       	cp	r1, r24
     78e:	d4 f5       	brge	.+116    	; 0x804 <.L23>

00000790 <.LM7>:
     790:	20 e0       	ldi	r18, 0x00	; 0
     792:	30 e0       	ldi	r19, 0x00	; 0
     794:	40 e2       	ldi	r20, 0x20	; 32
     796:	51 e4       	ldi	r21, 0x41	; 65
     798:	6f 85       	ldd	r22, Y+15	; 0x0f
     79a:	78 89       	ldd	r23, Y+16	; 0x10
     79c:	89 89       	ldd	r24, Y+17	; 0x11
     79e:	9a 89       	ldd	r25, Y+18	; 0x12
     7a0:	0e 94 da 26 	call	0x4db4	; 0x4db4 <__mulsf3>
     7a4:	69 a7       	std	Y+41, r22	; 0x29
     7a6:	7a a7       	std	Y+42, r23	; 0x2a
     7a8:	8b a7       	std	Y+43, r24	; 0x2b
     7aa:	9c a7       	std	Y+44, r25	; 0x2c
     7ac:	89 a5       	ldd	r24, Y+41	; 0x29
     7ae:	9a a5       	ldd	r25, Y+42	; 0x2a
     7b0:	ab a5       	ldd	r26, Y+43	; 0x2b
     7b2:	bc a5       	ldd	r27, Y+44	; 0x2c
     7b4:	89 a3       	std	Y+33, r24	; 0x21
     7b6:	9a a3       	std	Y+34, r25	; 0x22
     7b8:	ab a3       	std	Y+35, r26	; 0x23
     7ba:	bc a3       	std	Y+36, r27	; 0x24

000007bc <.LM8>:
     7bc:	69 a1       	ldd	r22, Y+33	; 0x21
     7be:	7a a1       	ldd	r23, Y+34	; 0x22
     7c0:	8b a1       	ldd	r24, Y+35	; 0x23
     7c2:	9c a1       	ldd	r25, Y+36	; 0x24
     7c4:	0e 94 31 26 	call	0x4c62	; 0x4c62 <__fixunssfsi>
     7c8:	6d a7       	std	Y+45, r22	; 0x2d
     7ca:	7e a7       	std	Y+46, r23	; 0x2e
     7cc:	8f a7       	std	Y+47, r24	; 0x2f
     7ce:	98 ab       	std	Y+48, r25	; 0x30
     7d0:	ad a5       	ldd	r26, Y+45	; 0x2d
     7d2:	be a5       	ldd	r27, Y+46	; 0x2e
     7d4:	b8 8f       	std	Y+24, r27	; 0x18
     7d6:	af 8b       	std	Y+23, r26	; 0x17

000007d8 <.LM9>:
     7d8:	10 c0       	rjmp	.+32     	; 0x7fa <.L7>

000007da <.L8>:
     7da:	80 e9       	ldi	r24, 0x90	; 144
     7dc:	91 e0       	ldi	r25, 0x01	; 1
     7de:	9a 8f       	std	Y+26, r25	; 0x1a
     7e0:	89 8f       	std	Y+25, r24	; 0x19

000007e2 <.LM10>:
     7e2:	89 8d       	ldd	r24, Y+25	; 0x19
     7e4:	9a 8d       	ldd	r25, Y+26	; 0x1a

000007e6 <.L1^B1>:
     7e6:	01 97       	sbiw	r24, 0x01	; 1
     7e8:	f1 f7       	brne	.-4      	; 0x7e6 <.L1^B1>
     7ea:	9a 8f       	std	Y+26, r25	; 0x1a
     7ec:	89 8f       	std	Y+25, r24	; 0x19

000007ee <.LM11>:
	...

000007f0 <.LM12>:
     7f0:	8f 89       	ldd	r24, Y+23	; 0x17
     7f2:	98 8d       	ldd	r25, Y+24	; 0x18
     7f4:	01 97       	sbiw	r24, 0x01	; 1
     7f6:	98 8f       	std	Y+24, r25	; 0x18
     7f8:	8f 8b       	std	Y+23, r24	; 0x17

000007fa <.L7>:
     7fa:	8f 89       	ldd	r24, Y+23	; 0x17
     7fc:	98 8d       	ldd	r25, Y+24	; 0x18
     7fe:	89 2b       	or	r24, r25
     800:	61 f7       	brne	.-40     	; 0x7da <.L8>

00000802 <.LM14>:
     802:	19 c0       	rjmp	.+50     	; 0x836 <.L9>

00000804 <.L23>:
     804:	6b 89       	ldd	r22, Y+19	; 0x13
     806:	7c 89       	ldd	r23, Y+20	; 0x14
     808:	8d 89       	ldd	r24, Y+21	; 0x15
     80a:	9e 89       	ldd	r25, Y+22	; 0x16
     80c:	0e 94 31 26 	call	0x4c62	; 0x4c62 <__fixunssfsi>
     810:	69 ab       	std	Y+49, r22	; 0x31
     812:	7a ab       	std	Y+50, r23	; 0x32
     814:	8b ab       	std	Y+51, r24	; 0x33
     816:	9c ab       	std	Y+52, r25	; 0x34
     818:	89 a9       	ldd	r24, Y+49	; 0x31
     81a:	9a a9       	ldd	r25, Y+50	; 0x32
     81c:	98 8f       	std	Y+24, r25	; 0x18
     81e:	8f 8b       	std	Y+23, r24	; 0x17

00000820 <.L4>:
     820:	8f 89       	ldd	r24, Y+23	; 0x17
     822:	98 8d       	ldd	r25, Y+24	; 0x18
     824:	9c 8f       	std	Y+28, r25	; 0x1c
     826:	8b 8f       	std	Y+27, r24	; 0x1b

00000828 <.LM16>:
     828:	8b 8d       	ldd	r24, Y+27	; 0x1b
     82a:	9c 8d       	ldd	r25, Y+28	; 0x1c

0000082c <.L1^B2>:
     82c:	01 97       	sbiw	r24, 0x01	; 1
     82e:	f1 f7       	brne	.-4      	; 0x82c <.L1^B2>
     830:	9c 8f       	std	Y+28, r25	; 0x1c
     832:	8b 8f       	std	Y+27, r24	; 0x1b

00000834 <.LM17>:
	...

00000836 <.L9>:
     836:	41 e0       	ldi	r20, 0x01	; 1
     838:	63 e0       	ldi	r22, 0x03	; 3
     83a:	80 e0       	ldi	r24, 0x00	; 0
     83c:	0e 94 41 00 	call	0x82	; 0x82 <GPIO_setupPinDirection>

00000840 <.LM19>:
     840:	41 e0       	ldi	r20, 0x01	; 1
     842:	64 e0       	ldi	r22, 0x04	; 4
     844:	80 e0       	ldi	r24, 0x00	; 0
     846:	0e 94 41 00 	call	0x82	; 0x82 <GPIO_setupPinDirection>

0000084a <.LM20>:
     84a:	41 e0       	ldi	r20, 0x01	; 1
     84c:	65 e0       	ldi	r22, 0x05	; 5
     84e:	80 e0       	ldi	r24, 0x00	; 0
     850:	0e 94 41 00 	call	0x82	; 0x82 <GPIO_setupPinDirection>

00000854 <.LM21>:
     854:	41 e0       	ldi	r20, 0x01	; 1
     856:	66 e0       	ldi	r22, 0x06	; 6
     858:	80 e0       	ldi	r24, 0x00	; 0
     85a:	0e 94 41 00 	call	0x82	; 0x82 <GPIO_setupPinDirection>
     85e:	80 e0       	ldi	r24, 0x00	; 0
     860:	90 e0       	ldi	r25, 0x00	; 0
     862:	a0 ea       	ldi	r26, 0xA0	; 160
     864:	b1 e4       	ldi	r27, 0x41	; 65
     866:	89 83       	std	Y+1, r24	; 0x01
     868:	9a 83       	std	Y+2, r25	; 0x02
     86a:	ab 83       	std	Y+3, r26	; 0x03
     86c:	bc 83       	std	Y+4, r27	; 0x04

0000086e <.LM22>:
     86e:	20 e0       	ldi	r18, 0x00	; 0
     870:	30 e0       	ldi	r19, 0x00	; 0
     872:	4a e7       	ldi	r20, 0x7A	; 122
     874:	55 e4       	ldi	r21, 0x45	; 69
     876:	69 81       	ldd	r22, Y+1	; 0x01
     878:	7a 81       	ldd	r23, Y+2	; 0x02
     87a:	8b 81       	ldd	r24, Y+3	; 0x03
     87c:	9c 81       	ldd	r25, Y+4	; 0x04
     87e:	0e 94 da 26 	call	0x4db4	; 0x4db4 <__mulsf3>
     882:	6d ab       	std	Y+53, r22	; 0x35
     884:	7e ab       	std	Y+54, r23	; 0x36
     886:	8f ab       	std	Y+55, r24	; 0x37
     888:	98 af       	std	Y+56, r25	; 0x38
     88a:	8d a9       	ldd	r24, Y+53	; 0x35
     88c:	9e a9       	ldd	r25, Y+54	; 0x36
     88e:	af a9       	ldd	r26, Y+55	; 0x37
     890:	b8 ad       	ldd	r27, Y+56	; 0x38
     892:	8d 83       	std	Y+5, r24	; 0x05
     894:	9e 83       	std	Y+6, r25	; 0x06
     896:	af 83       	std	Y+7, r26	; 0x07
     898:	b8 87       	std	Y+8, r27	; 0x08

0000089a <.LM23>:
     89a:	20 e0       	ldi	r18, 0x00	; 0
     89c:	30 e0       	ldi	r19, 0x00	; 0
     89e:	40 e8       	ldi	r20, 0x80	; 128
     8a0:	5f e3       	ldi	r21, 0x3F	; 63
     8a2:	6d 81       	ldd	r22, Y+5	; 0x05
     8a4:	7e 81       	ldd	r23, Y+6	; 0x06
     8a6:	8f 81       	ldd	r24, Y+7	; 0x07
     8a8:	98 85       	ldd	r25, Y+8	; 0x08
     8aa:	0e 94 ba 25 	call	0x4b74	; 0x4b74 <__cmpsf2>
     8ae:	88 23       	and	r24, r24
     8b0:	2c f4       	brge	.+10     	; 0x8bc <.L24>

000008b2 <.LM24>:
     8b2:	81 e0       	ldi	r24, 0x01	; 1
     8b4:	90 e0       	ldi	r25, 0x00	; 0
     8b6:	9a 87       	std	Y+10, r25	; 0x0a
     8b8:	89 87       	std	Y+9, r24	; 0x09
     8ba:	5b c0       	rjmp	.+182    	; 0x972 <.L12>

000008bc <.L24>:
     8bc:	20 e0       	ldi	r18, 0x00	; 0
     8be:	3f ef       	ldi	r19, 0xFF	; 255
     8c0:	4f e7       	ldi	r20, 0x7F	; 127
     8c2:	57 e4       	ldi	r21, 0x47	; 71
     8c4:	6d 81       	ldd	r22, Y+5	; 0x05
     8c6:	7e 81       	ldd	r23, Y+6	; 0x06
     8c8:	8f 81       	ldd	r24, Y+7	; 0x07
     8ca:	98 85       	ldd	r25, Y+8	; 0x08
     8cc:	0e 94 d5 26 	call	0x4daa	; 0x4daa <__gesf2>
     8d0:	18 16       	cp	r1, r24
     8d2:	0c f0       	brlt	.+2      	; 0x8d6 <.LM26>

000008d4 <L0^A>:
     8d4:	3c c0       	rjmp	.+120    	; 0x94e <.L25>

000008d6 <.LM26>:
     8d6:	20 e0       	ldi	r18, 0x00	; 0
     8d8:	30 e0       	ldi	r19, 0x00	; 0
     8da:	40 e2       	ldi	r20, 0x20	; 32
     8dc:	51 e4       	ldi	r21, 0x41	; 65
     8de:	69 81       	ldd	r22, Y+1	; 0x01
     8e0:	7a 81       	ldd	r23, Y+2	; 0x02
     8e2:	8b 81       	ldd	r24, Y+3	; 0x03
     8e4:	9c 81       	ldd	r25, Y+4	; 0x04
     8e6:	0e 94 da 26 	call	0x4db4	; 0x4db4 <__mulsf3>
     8ea:	69 af       	std	Y+57, r22	; 0x39
     8ec:	7a af       	std	Y+58, r23	; 0x3a
     8ee:	8b af       	std	Y+59, r24	; 0x3b
     8f0:	9c af       	std	Y+60, r25	; 0x3c
     8f2:	89 ad       	ldd	r24, Y+57	; 0x39
     8f4:	9a ad       	ldd	r25, Y+58	; 0x3a
     8f6:	ab ad       	ldd	r26, Y+59	; 0x3b
     8f8:	bc ad       	ldd	r27, Y+60	; 0x3c
     8fa:	8d 8f       	std	Y+29, r24	; 0x1d
     8fc:	9e 8f       	std	Y+30, r25	; 0x1e
     8fe:	af 8f       	std	Y+31, r26	; 0x1f
     900:	b8 a3       	std	Y+32, r27	; 0x20

00000902 <.LM27>:
     902:	6d 8d       	ldd	r22, Y+29	; 0x1d
     904:	7e 8d       	ldd	r23, Y+30	; 0x1e
     906:	8f 8d       	ldd	r24, Y+31	; 0x1f
     908:	98 a1       	ldd	r25, Y+32	; 0x20
     90a:	0e 94 31 26 	call	0x4c62	; 0x4c62 <__fixunssfsi>
     90e:	21 96       	adiw	r28, 0x01	; 1
     910:	6c af       	std	Y+60, r22	; 0x3c
     912:	7d af       	std	Y+61, r23	; 0x3d
     914:	8e af       	std	Y+62, r24	; 0x3e
     916:	9f af       	std	Y+63, r25	; 0x3f
     918:	21 97       	sbiw	r28, 0x01	; 1
     91a:	ad ad       	ldd	r26, Y+61	; 0x3d
     91c:	be ad       	ldd	r27, Y+62	; 0x3e
     91e:	ba 87       	std	Y+10, r27	; 0x0a
     920:	a9 87       	std	Y+9, r26	; 0x09

00000922 <.LM28>:
     922:	10 c0       	rjmp	.+32     	; 0x944 <.L15>

00000924 <.L16>:
     924:	80 e9       	ldi	r24, 0x90	; 144
     926:	91 e0       	ldi	r25, 0x01	; 1
     928:	9c 87       	std	Y+12, r25	; 0x0c
     92a:	8b 87       	std	Y+11, r24	; 0x0b

0000092c <.LM29>:
     92c:	8b 85       	ldd	r24, Y+11	; 0x0b
     92e:	9c 85       	ldd	r25, Y+12	; 0x0c

00000930 <.L1^B3>:
     930:	01 97       	sbiw	r24, 0x01	; 1
     932:	f1 f7       	brne	.-4      	; 0x930 <.L1^B3>
     934:	9c 87       	std	Y+12, r25	; 0x0c
     936:	8b 87       	std	Y+11, r24	; 0x0b

00000938 <.LM30>:
	...

0000093a <.LM31>:
     93a:	89 85       	ldd	r24, Y+9	; 0x09
     93c:	9a 85       	ldd	r25, Y+10	; 0x0a
     93e:	01 97       	sbiw	r24, 0x01	; 1
     940:	9a 87       	std	Y+10, r25	; 0x0a
     942:	89 87       	std	Y+9, r24	; 0x09

00000944 <.L15>:
     944:	89 85       	ldd	r24, Y+9	; 0x09
     946:	9a 85       	ldd	r25, Y+10	; 0x0a
     948:	89 2b       	or	r24, r25
     94a:	61 f7       	brne	.-40     	; 0x924 <.L16>

0000094c <.LM33>:
     94c:	1d c0       	rjmp	.+58     	; 0x988 <.L17>

0000094e <.L25>:
     94e:	6d 81       	ldd	r22, Y+5	; 0x05
     950:	7e 81       	ldd	r23, Y+6	; 0x06
     952:	8f 81       	ldd	r24, Y+7	; 0x07
     954:	98 85       	ldd	r25, Y+8	; 0x08
     956:	0e 94 31 26 	call	0x4c62	; 0x4c62 <__fixunssfsi>
     95a:	25 96       	adiw	r28, 0x05	; 5
     95c:	6c af       	std	Y+60, r22	; 0x3c
     95e:	7d af       	std	Y+61, r23	; 0x3d
     960:	8e af       	std	Y+62, r24	; 0x3e
     962:	9f af       	std	Y+63, r25	; 0x3f
     964:	25 97       	sbiw	r28, 0x05	; 5
     966:	23 96       	adiw	r28, 0x03	; 3
     968:	8e ad       	ldd	r24, Y+62	; 0x3e
     96a:	9f ad       	ldd	r25, Y+63	; 0x3f
     96c:	23 97       	sbiw	r28, 0x03	; 3
     96e:	9a 87       	std	Y+10, r25	; 0x0a
     970:	89 87       	std	Y+9, r24	; 0x09

00000972 <.L12>:
     972:	89 85       	ldd	r24, Y+9	; 0x09
     974:	9a 85       	ldd	r25, Y+10	; 0x0a
     976:	9e 87       	std	Y+14, r25	; 0x0e
     978:	8d 87       	std	Y+13, r24	; 0x0d

0000097a <.LM35>:
     97a:	8d 85       	ldd	r24, Y+13	; 0x0d
     97c:	9e 85       	ldd	r25, Y+14	; 0x0e

0000097e <.L1^B4>:
     97e:	01 97       	sbiw	r24, 0x01	; 1
     980:	f1 f7       	brne	.-4      	; 0x97e <.L1^B4>
     982:	9e 87       	std	Y+14, r25	; 0x0e
     984:	8d 87       	std	Y+13, r24	; 0x0d

00000986 <.LM36>:
	...

00000988 <.L17>:
     988:	83 e3       	ldi	r24, 0x33	; 51
     98a:	0e 94 de 04 	call	0x9bc	; 0x9bc <LCD_sendCommand>

0000098e <.LM38>:
     98e:	82 e3       	ldi	r24, 0x32	; 50
     990:	0e 94 de 04 	call	0x9bc	; 0x9bc <LCD_sendCommand>

00000994 <.LM39>:
     994:	88 e2       	ldi	r24, 0x28	; 40
     996:	0e 94 de 04 	call	0x9bc	; 0x9bc <LCD_sendCommand>

0000099a <.LM40>:
     99a:	8c e0       	ldi	r24, 0x0C	; 12
     99c:	0e 94 de 04 	call	0x9bc	; 0x9bc <LCD_sendCommand>

000009a0 <.LM41>:
     9a0:	81 e0       	ldi	r24, 0x01	; 1
     9a2:	0e 94 de 04 	call	0x9bc	; 0x9bc <LCD_sendCommand>

000009a6 <.LM42>:
     9a6:	00 00       	nop
     9a8:	cc 5b       	subi	r28, 0xBC	; 188
     9aa:	df 4f       	sbci	r29, 0xFF	; 255
     9ac:	0f b6       	in	r0, 0x3f	; 63
     9ae:	f8 94       	cli
     9b0:	de bf       	out	0x3e, r29	; 62
     9b2:	0f be       	out	0x3f, r0	; 63
     9b4:	cd bf       	out	0x3d, r28	; 61
     9b6:	df 91       	pop	r29
     9b8:	cf 91       	pop	r28
     9ba:	08 95       	ret

000009bc <LCD_sendCommand>:
     9bc:	0f 93       	push	r16
     9be:	1f 93       	push	r17
     9c0:	cf 93       	push	r28
     9c2:	df 93       	push	r29
     9c4:	cd b7       	in	r28, 0x3d	; 61
     9c6:	de b7       	in	r29, 0x3e	; 62
     9c8:	cd 5a       	subi	r28, 0xAD	; 173
     9ca:	d1 40       	sbci	r29, 0x01	; 1
     9cc:	0f b6       	in	r0, 0x3f	; 63
     9ce:	f8 94       	cli
     9d0:	de bf       	out	0x3e, r29	; 62
     9d2:	0f be       	out	0x3f, r0	; 63
     9d4:	cd bf       	out	0x3d, r28	; 61
     9d6:	9e 01       	movw	r18, r28
     9d8:	23 54       	subi	r18, 0x43	; 67
     9da:	3f 4f       	sbci	r19, 0xFF	; 255
     9dc:	d9 01       	movw	r26, r18
     9de:	8c 93       	st	X, r24

000009e0 <.LM44>:
     9e0:	40 e0       	ldi	r20, 0x00	; 0
     9e2:	61 e0       	ldi	r22, 0x01	; 1
     9e4:	80 e0       	ldi	r24, 0x00	; 0
     9e6:	0e 94 66 01 	call	0x2cc	; 0x2cc <GPIO_writePin>
     9ea:	9e 01       	movw	r18, r28
     9ec:	23 56       	subi	r18, 0x63	; 99
     9ee:	3f 4f       	sbci	r19, 0xFF	; 255
     9f0:	80 e0       	ldi	r24, 0x00	; 0
     9f2:	90 e0       	ldi	r25, 0x00	; 0
     9f4:	a0 e8       	ldi	r26, 0x80	; 128
     9f6:	bf e3       	ldi	r27, 0x3F	; 63
     9f8:	f9 01       	movw	r30, r18
     9fa:	80 83       	st	Z, r24
     9fc:	91 83       	std	Z+1, r25	; 0x01
     9fe:	a2 83       	std	Z+2, r26	; 0x02
     a00:	b3 83       	std	Z+3, r27	; 0x03

00000a02 <.LM45>:
     a02:	8e 01       	movw	r16, r28
     a04:	0f 55       	subi	r16, 0x5F	; 95
     a06:	1f 4f       	sbci	r17, 0xFF	; 255
     a08:	ce 01       	movw	r24, r28
     a0a:	83 56       	subi	r24, 0x63	; 99
     a0c:	9f 4f       	sbci	r25, 0xFF	; 255
     a0e:	2b ea       	ldi	r18, 0xAB	; 171
     a10:	3a ea       	ldi	r19, 0xAA	; 170
     a12:	4a ea       	ldi	r20, 0xAA	; 170
     a14:	50 e4       	ldi	r21, 0x40	; 64
     a16:	dc 01       	movw	r26, r24
     a18:	6d 91       	ld	r22, X+
     a1a:	7d 91       	ld	r23, X+
     a1c:	8d 91       	ld	r24, X+
     a1e:	9c 91       	ld	r25, X
     a20:	0e 94 da 26 	call	0x4db4	; 0x4db4 <__mulsf3>
     a24:	c6 52       	subi	r28, 0x26	; 38
     a26:	df 4f       	sbci	r29, 0xFF	; 255
     a28:	68 83       	st	Y, r22
     a2a:	79 83       	std	Y+1, r23	; 0x01
     a2c:	8a 83       	std	Y+2, r24	; 0x02
     a2e:	9b 83       	std	Y+3, r25	; 0x03
     a30:	ca 5d       	subi	r28, 0xDA	; 218
     a32:	d0 40       	sbci	r29, 0x00	; 0
     a34:	c6 52       	subi	r28, 0x26	; 38
     a36:	df 4f       	sbci	r29, 0xFF	; 255
     a38:	88 81       	ld	r24, Y
     a3a:	99 81       	ldd	r25, Y+1	; 0x01
     a3c:	aa 81       	ldd	r26, Y+2	; 0x02
     a3e:	bb 81       	ldd	r27, Y+3	; 0x03
     a40:	ca 5d       	subi	r28, 0xDA	; 218
     a42:	d0 40       	sbci	r29, 0x00	; 0
     a44:	f8 01       	movw	r30, r16
     a46:	80 83       	st	Z, r24
     a48:	91 83       	std	Z+1, r25	; 0x01
     a4a:	a2 83       	std	Z+2, r26	; 0x02
     a4c:	b3 83       	std	Z+3, r27	; 0x03

00000a4e <.LM46>:
     a4e:	8e 01       	movw	r16, r28
     a50:	0b 55       	subi	r16, 0x5B	; 91
     a52:	1f 4f       	sbci	r17, 0xFF	; 255
     a54:	ce 01       	movw	r24, r28
     a56:	83 56       	subi	r24, 0x63	; 99
     a58:	9f 4f       	sbci	r25, 0xFF	; 255
     a5a:	20 e0       	ldi	r18, 0x00	; 0
     a5c:	30 e0       	ldi	r19, 0x00	; 0
     a5e:	40 e8       	ldi	r20, 0x80	; 128
     a60:	50 e4       	ldi	r21, 0x40	; 64
     a62:	dc 01       	movw	r26, r24
     a64:	6d 91       	ld	r22, X+
     a66:	7d 91       	ld	r23, X+
     a68:	8d 91       	ld	r24, X+
     a6a:	9c 91       	ld	r25, X
     a6c:	0e 94 da 26 	call	0x4db4	; 0x4db4 <__mulsf3>
     a70:	c2 52       	subi	r28, 0x22	; 34
     a72:	df 4f       	sbci	r29, 0xFF	; 255
     a74:	68 83       	st	Y, r22
     a76:	79 83       	std	Y+1, r23	; 0x01
     a78:	8a 83       	std	Y+2, r24	; 0x02
     a7a:	9b 83       	std	Y+3, r25	; 0x03
     a7c:	ce 5d       	subi	r28, 0xDE	; 222
     a7e:	d0 40       	sbci	r29, 0x00	; 0
     a80:	c2 52       	subi	r28, 0x22	; 34
     a82:	df 4f       	sbci	r29, 0xFF	; 255
     a84:	88 81       	ld	r24, Y
     a86:	99 81       	ldd	r25, Y+1	; 0x01
     a88:	aa 81       	ldd	r26, Y+2	; 0x02
     a8a:	bb 81       	ldd	r27, Y+3	; 0x03
     a8c:	ce 5d       	subi	r28, 0xDE	; 222
     a8e:	d0 40       	sbci	r29, 0x00	; 0
     a90:	f8 01       	movw	r30, r16
     a92:	80 83       	st	Z, r24
     a94:	91 83       	std	Z+1, r25	; 0x01
     a96:	a2 83       	std	Z+2, r26	; 0x02
     a98:	b3 83       	std	Z+3, r27	; 0x03

00000a9a <.LM47>:
     a9a:	ce 01       	movw	r24, r28
     a9c:	8f 55       	subi	r24, 0x5F	; 95
     a9e:	9f 4f       	sbci	r25, 0xFF	; 255
     aa0:	20 e0       	ldi	r18, 0x00	; 0
     aa2:	30 e0       	ldi	r19, 0x00	; 0
     aa4:	40 e8       	ldi	r20, 0x80	; 128
     aa6:	5f e3       	ldi	r21, 0x3F	; 63
     aa8:	dc 01       	movw	r26, r24
     aaa:	6d 91       	ld	r22, X+
     aac:	7d 91       	ld	r23, X+
     aae:	8d 91       	ld	r24, X+
     ab0:	9c 91       	ld	r25, X
     ab2:	0e 94 ba 25 	call	0x4b74	; 0x4b74 <__cmpsf2>
     ab6:	88 23       	and	r24, r24
     ab8:	3c f4       	brge	.+14     	; 0xac8 <.L152>

00000aba <.LM48>:
     aba:	ce 01       	movw	r24, r28
     abc:	87 55       	subi	r24, 0x57	; 87
     abe:	9f 4f       	sbci	r25, 0xFF	; 255
     ac0:	21 e0       	ldi	r18, 0x01	; 1
     ac2:	fc 01       	movw	r30, r24
     ac4:	20 83       	st	Z, r18
     ac6:	9a c1       	rjmp	.+820    	; 0xdfc <.L29>

00000ac8 <.L152>:
     ac8:	ce 01       	movw	r24, r28
     aca:	8b 55       	subi	r24, 0x5B	; 91
     acc:	9f 4f       	sbci	r25, 0xFF	; 255
     ace:	20 e0       	ldi	r18, 0x00	; 0
     ad0:	3f ef       	ldi	r19, 0xFF	; 255
     ad2:	4f e7       	ldi	r20, 0x7F	; 127
     ad4:	57 e4       	ldi	r21, 0x47	; 71
     ad6:	dc 01       	movw	r26, r24
     ad8:	6d 91       	ld	r22, X+
     ada:	7d 91       	ld	r23, X+
     adc:	8d 91       	ld	r24, X+
     ade:	9c 91       	ld	r25, X
     ae0:	0e 94 d5 26 	call	0x4daa	; 0x4daa <__gesf2>
     ae4:	18 16       	cp	r1, r24
     ae6:	0c f0       	brlt	.+2      	; 0xaea <.LM50>

00000ae8 <L0^A>:
     ae8:	23 c1       	rjmp	.+582    	; 0xd30 <.L153>

00000aea <.LM50>:
     aea:	ce 01       	movw	r24, r28
     aec:	83 56       	subi	r24, 0x63	; 99
     aee:	9f 4f       	sbci	r25, 0xFF	; 255
     af0:	20 e0       	ldi	r18, 0x00	; 0
     af2:	30 e0       	ldi	r19, 0x00	; 0
     af4:	4a e7       	ldi	r20, 0x7A	; 122
     af6:	54 e4       	ldi	r21, 0x44	; 68
     af8:	fc 01       	movw	r30, r24
     afa:	60 81       	ld	r22, Z
     afc:	71 81       	ldd	r23, Z+1	; 0x01
     afe:	82 81       	ldd	r24, Z+2	; 0x02
     b00:	93 81       	ldd	r25, Z+3	; 0x03
     b02:	0e 94 bf 25 	call	0x4b7e	; 0x4b7e <__divsf3>
     b06:	ce 51       	subi	r28, 0x1E	; 30
     b08:	df 4f       	sbci	r29, 0xFF	; 255
     b0a:	68 83       	st	Y, r22
     b0c:	79 83       	std	Y+1, r23	; 0x01
     b0e:	8a 83       	std	Y+2, r24	; 0x02
     b10:	9b 83       	std	Y+3, r25	; 0x03
     b12:	c2 5e       	subi	r28, 0xE2	; 226
     b14:	d0 40       	sbci	r29, 0x00	; 0
     b16:	ce 51       	subi	r28, 0x1E	; 30
     b18:	df 4f       	sbci	r29, 0xFF	; 255
     b1a:	88 81       	ld	r24, Y
     b1c:	99 81       	ldd	r25, Y+1	; 0x01
     b1e:	aa 81       	ldd	r26, Y+2	; 0x02
     b20:	bb 81       	ldd	r27, Y+3	; 0x03
     b22:	c2 5e       	subi	r28, 0xE2	; 226
     b24:	d0 40       	sbci	r29, 0x00	; 0
     b26:	9e 01       	movw	r18, r28
     b28:	26 55       	subi	r18, 0x56	; 86
     b2a:	3f 4f       	sbci	r19, 0xFF	; 255
     b2c:	f9 01       	movw	r30, r18
     b2e:	80 83       	st	Z, r24
     b30:	91 83       	std	Z+1, r25	; 0x01
     b32:	a2 83       	std	Z+2, r26	; 0x02
     b34:	b3 83       	std	Z+3, r27	; 0x03

00000b36 <.LM51>:
     b36:	8e 01       	movw	r16, r28
     b38:	02 55       	subi	r16, 0x52	; 82
     b3a:	1f 4f       	sbci	r17, 0xFF	; 255
     b3c:	ce 01       	movw	r24, r28
     b3e:	86 55       	subi	r24, 0x56	; 86
     b40:	9f 4f       	sbci	r25, 0xFF	; 255
     b42:	20 e0       	ldi	r18, 0x00	; 0
     b44:	30 e0       	ldi	r19, 0x00	; 0
     b46:	4a e7       	ldi	r20, 0x7A	; 122
     b48:	55 e4       	ldi	r21, 0x45	; 69
     b4a:	dc 01       	movw	r26, r24
     b4c:	6d 91       	ld	r22, X+
     b4e:	7d 91       	ld	r23, X+
     b50:	8d 91       	ld	r24, X+
     b52:	9c 91       	ld	r25, X
     b54:	0e 94 da 26 	call	0x4db4	; 0x4db4 <__mulsf3>
     b58:	ca 51       	subi	r28, 0x1A	; 26
     b5a:	df 4f       	sbci	r29, 0xFF	; 255
     b5c:	68 83       	st	Y, r22
     b5e:	79 83       	std	Y+1, r23	; 0x01
     b60:	8a 83       	std	Y+2, r24	; 0x02
     b62:	9b 83       	std	Y+3, r25	; 0x03
     b64:	c6 5e       	subi	r28, 0xE6	; 230
     b66:	d0 40       	sbci	r29, 0x00	; 0
     b68:	ca 51       	subi	r28, 0x1A	; 26
     b6a:	df 4f       	sbci	r29, 0xFF	; 255
     b6c:	88 81       	ld	r24, Y
     b6e:	99 81       	ldd	r25, Y+1	; 0x01
     b70:	aa 81       	ldd	r26, Y+2	; 0x02
     b72:	bb 81       	ldd	r27, Y+3	; 0x03
     b74:	c6 5e       	subi	r28, 0xE6	; 230
     b76:	d0 40       	sbci	r29, 0x00	; 0
     b78:	f8 01       	movw	r30, r16
     b7a:	80 83       	st	Z, r24
     b7c:	91 83       	std	Z+1, r25	; 0x01
     b7e:	a2 83       	std	Z+2, r26	; 0x02
     b80:	b3 83       	std	Z+3, r27	; 0x03

00000b82 <.LM52>:
     b82:	ce 01       	movw	r24, r28
     b84:	82 55       	subi	r24, 0x52	; 82
     b86:	9f 4f       	sbci	r25, 0xFF	; 255
     b88:	20 e0       	ldi	r18, 0x00	; 0
     b8a:	30 e0       	ldi	r19, 0x00	; 0
     b8c:	40 e8       	ldi	r20, 0x80	; 128
     b8e:	5f e3       	ldi	r21, 0x3F	; 63
     b90:	dc 01       	movw	r26, r24
     b92:	6d 91       	ld	r22, X+
     b94:	7d 91       	ld	r23, X+
     b96:	8d 91       	ld	r24, X+
     b98:	9c 91       	ld	r25, X
     b9a:	0e 94 ba 25 	call	0x4b74	; 0x4b74 <__cmpsf2>
     b9e:	88 23       	and	r24, r24
     ba0:	4c f4       	brge	.+18     	; 0xbb4 <.L154>

00000ba2 <.LM53>:
     ba2:	ce 01       	movw	r24, r28
     ba4:	8e 54       	subi	r24, 0x4E	; 78
     ba6:	9f 4f       	sbci	r25, 0xFF	; 255
     ba8:	21 e0       	ldi	r18, 0x01	; 1
     baa:	30 e0       	ldi	r19, 0x00	; 0
     bac:	fc 01       	movw	r30, r24
     bae:	31 83       	std	Z+1, r19	; 0x01
     bb0:	20 83       	st	Z, r18
     bb2:	a2 c0       	rjmp	.+324    	; 0xcf8 <.L34>

00000bb4 <.L154>:
     bb4:	ce 01       	movw	r24, r28
     bb6:	82 55       	subi	r24, 0x52	; 82
     bb8:	9f 4f       	sbci	r25, 0xFF	; 255
     bba:	20 e0       	ldi	r18, 0x00	; 0
     bbc:	3f ef       	ldi	r19, 0xFF	; 255
     bbe:	4f e7       	ldi	r20, 0x7F	; 127
     bc0:	57 e4       	ldi	r21, 0x47	; 71
     bc2:	dc 01       	movw	r26, r24
     bc4:	6d 91       	ld	r22, X+
     bc6:	7d 91       	ld	r23, X+
     bc8:	8d 91       	ld	r24, X+
     bca:	9c 91       	ld	r25, X
     bcc:	0e 94 d5 26 	call	0x4daa	; 0x4daa <__gesf2>
     bd0:	18 16       	cp	r1, r24
     bd2:	0c f0       	brlt	.+2      	; 0xbd6 <.LM55>

00000bd4 <L0^A>:
     bd4:	73 c0       	rjmp	.+230    	; 0xcbc <.L155>

00000bd6 <.LM55>:
     bd6:	ce 01       	movw	r24, r28
     bd8:	86 55       	subi	r24, 0x56	; 86
     bda:	9f 4f       	sbci	r25, 0xFF	; 255
     bdc:	20 e0       	ldi	r18, 0x00	; 0
     bde:	30 e0       	ldi	r19, 0x00	; 0
     be0:	40 e2       	ldi	r20, 0x20	; 32
     be2:	51 e4       	ldi	r21, 0x41	; 65
     be4:	fc 01       	movw	r30, r24
     be6:	60 81       	ld	r22, Z
     be8:	71 81       	ldd	r23, Z+1	; 0x01
     bea:	82 81       	ldd	r24, Z+2	; 0x02
     bec:	93 81       	ldd	r25, Z+3	; 0x03
     bee:	0e 94 da 26 	call	0x4db4	; 0x4db4 <__mulsf3>
     bf2:	c6 51       	subi	r28, 0x16	; 22
     bf4:	df 4f       	sbci	r29, 0xFF	; 255
     bf6:	68 83       	st	Y, r22
     bf8:	79 83       	std	Y+1, r23	; 0x01
     bfa:	8a 83       	std	Y+2, r24	; 0x02
     bfc:	9b 83       	std	Y+3, r25	; 0x03
     bfe:	ca 5e       	subi	r28, 0xEA	; 234
     c00:	d0 40       	sbci	r29, 0x00	; 0
     c02:	c6 51       	subi	r28, 0x16	; 22
     c04:	df 4f       	sbci	r29, 0xFF	; 255
     c06:	88 81       	ld	r24, Y
     c08:	99 81       	ldd	r25, Y+1	; 0x01
     c0a:	aa 81       	ldd	r26, Y+2	; 0x02
     c0c:	bb 81       	ldd	r27, Y+3	; 0x03
     c0e:	ca 5e       	subi	r28, 0xEA	; 234
     c10:	d0 40       	sbci	r29, 0x00	; 0
     c12:	ca 52       	subi	r28, 0x2A	; 42
     c14:	df 4f       	sbci	r29, 0xFF	; 255
     c16:	88 83       	st	Y, r24
     c18:	99 83       	std	Y+1, r25	; 0x01
     c1a:	aa 83       	std	Y+2, r26	; 0x02
     c1c:	bb 83       	std	Y+3, r27	; 0x03
     c1e:	c6 5d       	subi	r28, 0xD6	; 214
     c20:	d0 40       	sbci	r29, 0x00	; 0

00000c22 <.LM56>:
     c22:	8e 01       	movw	r16, r28
     c24:	0e 54       	subi	r16, 0x4E	; 78
     c26:	1f 4f       	sbci	r17, 0xFF	; 255
     c28:	ca 52       	subi	r28, 0x2A	; 42
     c2a:	df 4f       	sbci	r29, 0xFF	; 255
     c2c:	68 81       	ld	r22, Y
     c2e:	79 81       	ldd	r23, Y+1	; 0x01
     c30:	8a 81       	ldd	r24, Y+2	; 0x02
     c32:	9b 81       	ldd	r25, Y+3	; 0x03
     c34:	c6 5d       	subi	r28, 0xD6	; 214
     c36:	d0 40       	sbci	r29, 0x00	; 0
     c38:	0e 94 31 26 	call	0x4c62	; 0x4c62 <__fixunssfsi>
     c3c:	c2 51       	subi	r28, 0x12	; 18
     c3e:	df 4f       	sbci	r29, 0xFF	; 255
     c40:	68 83       	st	Y, r22
     c42:	79 83       	std	Y+1, r23	; 0x01
     c44:	8a 83       	std	Y+2, r24	; 0x02
     c46:	9b 83       	std	Y+3, r25	; 0x03
     c48:	ce 5e       	subi	r28, 0xEE	; 238
     c4a:	d0 40       	sbci	r29, 0x00	; 0
     c4c:	c2 51       	subi	r28, 0x12	; 18
     c4e:	df 4f       	sbci	r29, 0xFF	; 255
     c50:	e8 81       	ld	r30, Y
     c52:	f9 81       	ldd	r31, Y+1	; 0x01
     c54:	ce 5e       	subi	r28, 0xEE	; 238
     c56:	d0 40       	sbci	r29, 0x00	; 0
     c58:	d8 01       	movw	r26, r16
     c5a:	ed 93       	st	X+, r30
     c5c:	fc 93       	st	X, r31

00000c5e <.LM57>:
     c5e:	25 c0       	rjmp	.+74     	; 0xcaa <.L37>

00000c60 <.L38>:
     c60:	ce 01       	movw	r24, r28
     c62:	8c 54       	subi	r24, 0x4C	; 76
     c64:	9f 4f       	sbci	r25, 0xFF	; 255
     c66:	20 e9       	ldi	r18, 0x90	; 144
     c68:	31 e0       	ldi	r19, 0x01	; 1
     c6a:	dc 01       	movw	r26, r24
     c6c:	2d 93       	st	X+, r18
     c6e:	3c 93       	st	X, r19

00000c70 <.LM58>:
     c70:	ce 01       	movw	r24, r28
     c72:	8c 54       	subi	r24, 0x4C	; 76
     c74:	9f 4f       	sbci	r25, 0xFF	; 255
     c76:	fc 01       	movw	r30, r24
     c78:	80 81       	ld	r24, Z
     c7a:	91 81       	ldd	r25, Z+1	; 0x01

00000c7c <.L1^B5>:
     c7c:	01 97       	sbiw	r24, 0x01	; 1
     c7e:	f1 f7       	brne	.-4      	; 0xc7c <.L1^B5>
     c80:	9e 01       	movw	r18, r28
     c82:	2c 54       	subi	r18, 0x4C	; 76
     c84:	3f 4f       	sbci	r19, 0xFF	; 255
     c86:	d9 01       	movw	r26, r18
     c88:	8d 93       	st	X+, r24
     c8a:	9c 93       	st	X, r25

00000c8c <.LM59>:
	...

00000c8e <.LM60>:
     c8e:	ce 01       	movw	r24, r28
     c90:	8e 54       	subi	r24, 0x4E	; 78
     c92:	9f 4f       	sbci	r25, 0xFF	; 255
     c94:	9e 01       	movw	r18, r28
     c96:	2e 54       	subi	r18, 0x4E	; 78
     c98:	3f 4f       	sbci	r19, 0xFF	; 255
     c9a:	f9 01       	movw	r30, r18
     c9c:	20 81       	ld	r18, Z
     c9e:	31 81       	ldd	r19, Z+1	; 0x01
     ca0:	21 50       	subi	r18, 0x01	; 1
     ca2:	31 09       	sbc	r19, r1
     ca4:	dc 01       	movw	r26, r24
     ca6:	2d 93       	st	X+, r18
     ca8:	3c 93       	st	X, r19

00000caa <.L37>:
     caa:	ce 01       	movw	r24, r28
     cac:	8e 54       	subi	r24, 0x4E	; 78
     cae:	9f 4f       	sbci	r25, 0xFF	; 255
     cb0:	fc 01       	movw	r30, r24
     cb2:	80 81       	ld	r24, Z
     cb4:	91 81       	ldd	r25, Z+1	; 0x01
     cb6:	89 2b       	or	r24, r25
     cb8:	99 f6       	brne	.-90     	; 0xc60 <.L38>

00000cba <.LM62>:
     cba:	39 c0       	rjmp	.+114    	; 0xd2e <.L39>

00000cbc <.L155>:
     cbc:	8e 01       	movw	r16, r28
     cbe:	0e 54       	subi	r16, 0x4E	; 78
     cc0:	1f 4f       	sbci	r17, 0xFF	; 255
     cc2:	ce 01       	movw	r24, r28
     cc4:	82 55       	subi	r24, 0x52	; 82
     cc6:	9f 4f       	sbci	r25, 0xFF	; 255
     cc8:	dc 01       	movw	r26, r24
     cca:	6d 91       	ld	r22, X+
     ccc:	7d 91       	ld	r23, X+
     cce:	8d 91       	ld	r24, X+
     cd0:	9c 91       	ld	r25, X
     cd2:	0e 94 31 26 	call	0x4c62	; 0x4c62 <__fixunssfsi>
     cd6:	ce 50       	subi	r28, 0x0E	; 14
     cd8:	df 4f       	sbci	r29, 0xFF	; 255
     cda:	68 83       	st	Y, r22
     cdc:	79 83       	std	Y+1, r23	; 0x01
     cde:	8a 83       	std	Y+2, r24	; 0x02
     ce0:	9b 83       	std	Y+3, r25	; 0x03
     ce2:	c2 5f       	subi	r28, 0xF2	; 242
     ce4:	d0 40       	sbci	r29, 0x00	; 0
     ce6:	ce 50       	subi	r28, 0x0E	; 14
     ce8:	df 4f       	sbci	r29, 0xFF	; 255
     cea:	88 81       	ld	r24, Y
     cec:	99 81       	ldd	r25, Y+1	; 0x01
     cee:	c2 5f       	subi	r28, 0xF2	; 242
     cf0:	d0 40       	sbci	r29, 0x00	; 0
     cf2:	f8 01       	movw	r30, r16
     cf4:	91 83       	std	Z+1, r25	; 0x01
     cf6:	80 83       	st	Z, r24

00000cf8 <.L34>:
     cf8:	ce 01       	movw	r24, r28
     cfa:	8a 54       	subi	r24, 0x4A	; 74
     cfc:	9f 4f       	sbci	r25, 0xFF	; 255
     cfe:	9e 01       	movw	r18, r28
     d00:	2e 54       	subi	r18, 0x4E	; 78
     d02:	3f 4f       	sbci	r19, 0xFF	; 255
     d04:	d9 01       	movw	r26, r18
     d06:	2d 91       	ld	r18, X+
     d08:	3c 91       	ld	r19, X
     d0a:	fc 01       	movw	r30, r24
     d0c:	31 83       	std	Z+1, r19	; 0x01
     d0e:	20 83       	st	Z, r18

00000d10 <.LM64>:
     d10:	ce 01       	movw	r24, r28
     d12:	8a 54       	subi	r24, 0x4A	; 74
     d14:	9f 4f       	sbci	r25, 0xFF	; 255
     d16:	dc 01       	movw	r26, r24
     d18:	8d 91       	ld	r24, X+
     d1a:	9c 91       	ld	r25, X

00000d1c <.L1^B6>:
     d1c:	01 97       	sbiw	r24, 0x01	; 1
     d1e:	f1 f7       	brne	.-4      	; 0xd1c <.L1^B6>
     d20:	9e 01       	movw	r18, r28
     d22:	2a 54       	subi	r18, 0x4A	; 74
     d24:	3f 4f       	sbci	r19, 0xFF	; 255
     d26:	f9 01       	movw	r30, r18
     d28:	91 83       	std	Z+1, r25	; 0x01
     d2a:	80 83       	st	Z, r24

00000d2c <.LM65>:
	...

00000d2e <.L39>:
     d2e:	7e c0       	rjmp	.+252    	; 0xe2c <.L40>

00000d30 <.L153>:
     d30:	ce 01       	movw	r24, r28
     d32:	8f 55       	subi	r24, 0x5F	; 95
     d34:	9f 4f       	sbci	r25, 0xFF	; 255
     d36:	20 e0       	ldi	r18, 0x00	; 0
     d38:	30 e0       	ldi	r19, 0x00	; 0
     d3a:	4f e7       	ldi	r20, 0x7F	; 127
     d3c:	53 e4       	ldi	r21, 0x43	; 67
     d3e:	dc 01       	movw	r26, r24
     d40:	6d 91       	ld	r22, X+
     d42:	7d 91       	ld	r23, X+
     d44:	8d 91       	ld	r24, X+
     d46:	9c 91       	ld	r25, X
     d48:	0e 94 d5 26 	call	0x4daa	; 0x4daa <__gesf2>
     d4c:	18 16       	cp	r1, r24
     d4e:	d4 f5       	brge	.+116    	; 0xdc4 <.L156>

00000d50 <.LM68>:
     d50:	8e 01       	movw	r16, r28
     d52:	08 54       	subi	r16, 0x48	; 72
     d54:	1f 4f       	sbci	r17, 0xFF	; 255
     d56:	ce 01       	movw	r24, r28
     d58:	8b 55       	subi	r24, 0x5B	; 91
     d5a:	9f 4f       	sbci	r25, 0xFF	; 255
     d5c:	fc 01       	movw	r30, r24
     d5e:	60 81       	ld	r22, Z
     d60:	71 81       	ldd	r23, Z+1	; 0x01
     d62:	82 81       	ldd	r24, Z+2	; 0x02
     d64:	93 81       	ldd	r25, Z+3	; 0x03
     d66:	0e 94 31 26 	call	0x4c62	; 0x4c62 <__fixunssfsi>
     d6a:	ca 50       	subi	r28, 0x0A	; 10
     d6c:	df 4f       	sbci	r29, 0xFF	; 255
     d6e:	68 83       	st	Y, r22
     d70:	79 83       	std	Y+1, r23	; 0x01
     d72:	8a 83       	std	Y+2, r24	; 0x02
     d74:	9b 83       	std	Y+3, r25	; 0x03
     d76:	c6 5f       	subi	r28, 0xF6	; 246
     d78:	d0 40       	sbci	r29, 0x00	; 0
     d7a:	ca 50       	subi	r28, 0x0A	; 10
     d7c:	df 4f       	sbci	r29, 0xFF	; 255
     d7e:	e8 81       	ld	r30, Y
     d80:	f9 81       	ldd	r31, Y+1	; 0x01
     d82:	c6 5f       	subi	r28, 0xF6	; 246
     d84:	d0 40       	sbci	r29, 0x00	; 0
     d86:	d8 01       	movw	r26, r16
     d88:	ed 93       	st	X+, r30
     d8a:	fc 93       	st	X, r31
     d8c:	ce 01       	movw	r24, r28
     d8e:	86 54       	subi	r24, 0x46	; 70
     d90:	9f 4f       	sbci	r25, 0xFF	; 255
     d92:	9e 01       	movw	r18, r28
     d94:	28 54       	subi	r18, 0x48	; 72
     d96:	3f 4f       	sbci	r19, 0xFF	; 255
     d98:	d9 01       	movw	r26, r18
     d9a:	2d 91       	ld	r18, X+
     d9c:	3c 91       	ld	r19, X
     d9e:	fc 01       	movw	r30, r24
     da0:	31 83       	std	Z+1, r19	; 0x01
     da2:	20 83       	st	Z, r18

00000da4 <.LM69>:
     da4:	ce 01       	movw	r24, r28
     da6:	86 54       	subi	r24, 0x46	; 70
     da8:	9f 4f       	sbci	r25, 0xFF	; 255
     daa:	dc 01       	movw	r26, r24
     dac:	8d 91       	ld	r24, X+
     dae:	9c 91       	ld	r25, X

00000db0 <.L1^B7>:
     db0:	01 97       	sbiw	r24, 0x01	; 1
     db2:	f1 f7       	brne	.-4      	; 0xdb0 <.L1^B7>
     db4:	9e 01       	movw	r18, r28
     db6:	26 54       	subi	r18, 0x46	; 70
     db8:	3f 4f       	sbci	r19, 0xFF	; 255
     dba:	f9 01       	movw	r30, r18
     dbc:	91 83       	std	Z+1, r25	; 0x01
     dbe:	80 83       	st	Z, r24

00000dc0 <.LM70>:
	...

00000dc2 <.LM71>:
     dc2:	34 c0       	rjmp	.+104    	; 0xe2c <.L40>

00000dc4 <.L156>:
     dc4:	8e 01       	movw	r16, r28
     dc6:	07 55       	subi	r16, 0x57	; 87
     dc8:	1f 4f       	sbci	r17, 0xFF	; 255
     dca:	ce 01       	movw	r24, r28
     dcc:	8f 55       	subi	r24, 0x5F	; 95
     dce:	9f 4f       	sbci	r25, 0xFF	; 255
     dd0:	dc 01       	movw	r26, r24
     dd2:	6d 91       	ld	r22, X+
     dd4:	7d 91       	ld	r23, X+
     dd6:	8d 91       	ld	r24, X+
     dd8:	9c 91       	ld	r25, X
     dda:	0e 94 31 26 	call	0x4c62	; 0x4c62 <__fixunssfsi>
     dde:	c6 50       	subi	r28, 0x06	; 6
     de0:	df 4f       	sbci	r29, 0xFF	; 255
     de2:	68 83       	st	Y, r22
     de4:	79 83       	std	Y+1, r23	; 0x01
     de6:	8a 83       	std	Y+2, r24	; 0x02
     de8:	9b 83       	std	Y+3, r25	; 0x03
     dea:	ca 5f       	subi	r28, 0xFA	; 250
     dec:	d0 40       	sbci	r29, 0x00	; 0
     dee:	c6 50       	subi	r28, 0x06	; 6
     df0:	df 4f       	sbci	r29, 0xFF	; 255
     df2:	88 81       	ld	r24, Y
     df4:	ca 5f       	subi	r28, 0xFA	; 250
     df6:	d0 40       	sbci	r29, 0x00	; 0
     df8:	f8 01       	movw	r30, r16
     dfa:	80 83       	st	Z, r24

00000dfc <.L29>:
     dfc:	ce 01       	movw	r24, r28
     dfe:	84 54       	subi	r24, 0x44	; 68
     e00:	9f 4f       	sbci	r25, 0xFF	; 255
     e02:	9e 01       	movw	r18, r28
     e04:	27 55       	subi	r18, 0x57	; 87
     e06:	3f 4f       	sbci	r19, 0xFF	; 255
     e08:	d9 01       	movw	r26, r18
     e0a:	2c 91       	ld	r18, X
     e0c:	fc 01       	movw	r30, r24
     e0e:	20 83       	st	Z, r18

00000e10 <.LM73>:
     e10:	ce 01       	movw	r24, r28
     e12:	84 54       	subi	r24, 0x44	; 68
     e14:	9f 4f       	sbci	r25, 0xFF	; 255
     e16:	dc 01       	movw	r26, r24
     e18:	8c 91       	ld	r24, X
     e1a:	28 2f       	mov	r18, r24

00000e1c <.L1^B8>:
     e1c:	2a 95       	dec	r18
     e1e:	f1 f7       	brne	.-4      	; 0xe1c <.L1^B8>
     e20:	ce 01       	movw	r24, r28
     e22:	84 54       	subi	r24, 0x44	; 68
     e24:	9f 4f       	sbci	r25, 0xFF	; 255
     e26:	fc 01       	movw	r30, r24
     e28:	20 83       	st	Z, r18

00000e2a <.LM74>:
	...

00000e2c <.L40>:
     e2c:	41 e0       	ldi	r20, 0x01	; 1
     e2e:	62 e0       	ldi	r22, 0x02	; 2
     e30:	80 e0       	ldi	r24, 0x00	; 0
     e32:	0e 94 66 01 	call	0x2cc	; 0x2cc <GPIO_writePin>
     e36:	9e 01       	movw	r18, r28
     e38:	23 58       	subi	r18, 0x83	; 131
     e3a:	3f 4f       	sbci	r19, 0xFF	; 255
     e3c:	80 e0       	ldi	r24, 0x00	; 0
     e3e:	90 e0       	ldi	r25, 0x00	; 0
     e40:	a0 e8       	ldi	r26, 0x80	; 128
     e42:	bf e3       	ldi	r27, 0x3F	; 63
     e44:	f9 01       	movw	r30, r18
     e46:	80 83       	st	Z, r24
     e48:	91 83       	std	Z+1, r25	; 0x01
     e4a:	a2 83       	std	Z+2, r26	; 0x02
     e4c:	b3 83       	std	Z+3, r27	; 0x03

00000e4e <.LM76>:
     e4e:	8e 01       	movw	r16, r28
     e50:	0f 57       	subi	r16, 0x7F	; 127
     e52:	1f 4f       	sbci	r17, 0xFF	; 255
     e54:	ce 01       	movw	r24, r28
     e56:	83 58       	subi	r24, 0x83	; 131
     e58:	9f 4f       	sbci	r25, 0xFF	; 255
     e5a:	2b ea       	ldi	r18, 0xAB	; 171
     e5c:	3a ea       	ldi	r19, 0xAA	; 170
     e5e:	4a ea       	ldi	r20, 0xAA	; 170
     e60:	50 e4       	ldi	r21, 0x40	; 64
     e62:	dc 01       	movw	r26, r24
     e64:	6d 91       	ld	r22, X+
     e66:	7d 91       	ld	r23, X+
     e68:	8d 91       	ld	r24, X+
     e6a:	9c 91       	ld	r25, X
     e6c:	0e 94 da 26 	call	0x4db4	; 0x4db4 <__mulsf3>
     e70:	c2 50       	subi	r28, 0x02	; 2
     e72:	df 4f       	sbci	r29, 0xFF	; 255
     e74:	68 83       	st	Y, r22
     e76:	79 83       	std	Y+1, r23	; 0x01
     e78:	8a 83       	std	Y+2, r24	; 0x02
     e7a:	9b 83       	std	Y+3, r25	; 0x03
     e7c:	ce 5f       	subi	r28, 0xFE	; 254
     e7e:	d0 40       	sbci	r29, 0x00	; 0
     e80:	c2 50       	subi	r28, 0x02	; 2
     e82:	df 4f       	sbci	r29, 0xFF	; 255
     e84:	88 81       	ld	r24, Y
     e86:	99 81       	ldd	r25, Y+1	; 0x01
     e88:	aa 81       	ldd	r26, Y+2	; 0x02
     e8a:	bb 81       	ldd	r27, Y+3	; 0x03
     e8c:	ce 5f       	subi	r28, 0xFE	; 254
     e8e:	d0 40       	sbci	r29, 0x00	; 0
     e90:	f8 01       	movw	r30, r16
     e92:	80 83       	st	Z, r24
     e94:	91 83       	std	Z+1, r25	; 0x01
     e96:	a2 83       	std	Z+2, r26	; 0x02
     e98:	b3 83       	std	Z+3, r27	; 0x03

00000e9a <.LM77>:
     e9a:	8e 01       	movw	r16, r28
     e9c:	0b 57       	subi	r16, 0x7B	; 123
     e9e:	1f 4f       	sbci	r17, 0xFF	; 255
     ea0:	ce 01       	movw	r24, r28
     ea2:	83 58       	subi	r24, 0x83	; 131
     ea4:	9f 4f       	sbci	r25, 0xFF	; 255
     ea6:	20 e0       	ldi	r18, 0x00	; 0
     ea8:	30 e0       	ldi	r19, 0x00	; 0
     eaa:	40 e8       	ldi	r20, 0x80	; 128
     eac:	50 e4       	ldi	r21, 0x40	; 64
     eae:	dc 01       	movw	r26, r24
     eb0:	6d 91       	ld	r22, X+
     eb2:	7d 91       	ld	r23, X+
     eb4:	8d 91       	ld	r24, X+
     eb6:	9c 91       	ld	r25, X
     eb8:	0e 94 da 26 	call	0x4db4	; 0x4db4 <__mulsf3>
     ebc:	ce 5f       	subi	r28, 0xFE	; 254
     ebe:	de 4f       	sbci	r29, 0xFE	; 254
     ec0:	68 83       	st	Y, r22
     ec2:	79 83       	std	Y+1, r23	; 0x01
     ec4:	8a 83       	std	Y+2, r24	; 0x02
     ec6:	9b 83       	std	Y+3, r25	; 0x03
     ec8:	c2 50       	subi	r28, 0x02	; 2
     eca:	d1 40       	sbci	r29, 0x01	; 1
     ecc:	ce 5f       	subi	r28, 0xFE	; 254
     ece:	de 4f       	sbci	r29, 0xFE	; 254
     ed0:	88 81       	ld	r24, Y
     ed2:	99 81       	ldd	r25, Y+1	; 0x01
     ed4:	aa 81       	ldd	r26, Y+2	; 0x02
     ed6:	bb 81       	ldd	r27, Y+3	; 0x03
     ed8:	c2 50       	subi	r28, 0x02	; 2
     eda:	d1 40       	sbci	r29, 0x01	; 1
     edc:	f8 01       	movw	r30, r16
     ede:	80 83       	st	Z, r24
     ee0:	91 83       	std	Z+1, r25	; 0x01
     ee2:	a2 83       	std	Z+2, r26	; 0x02
     ee4:	b3 83       	std	Z+3, r27	; 0x03

00000ee6 <.LM78>:
     ee6:	ce 01       	movw	r24, r28
     ee8:	8f 57       	subi	r24, 0x7F	; 127
     eea:	9f 4f       	sbci	r25, 0xFF	; 255
     eec:	20 e0       	ldi	r18, 0x00	; 0
     eee:	30 e0       	ldi	r19, 0x00	; 0
     ef0:	40 e8       	ldi	r20, 0x80	; 128
     ef2:	5f e3       	ldi	r21, 0x3F	; 63
     ef4:	dc 01       	movw	r26, r24
     ef6:	6d 91       	ld	r22, X+
     ef8:	7d 91       	ld	r23, X+
     efa:	8d 91       	ld	r24, X+
     efc:	9c 91       	ld	r25, X
     efe:	0e 94 ba 25 	call	0x4b74	; 0x4b74 <__cmpsf2>
     f02:	88 23       	and	r24, r24
     f04:	3c f4       	brge	.+14     	; 0xf14 <.L157>

00000f06 <.LM79>:
     f06:	ce 01       	movw	r24, r28
     f08:	87 57       	subi	r24, 0x77	; 119
     f0a:	9f 4f       	sbci	r25, 0xFF	; 255
     f0c:	21 e0       	ldi	r18, 0x01	; 1
     f0e:	fc 01       	movw	r30, r24
     f10:	20 83       	st	Z, r18
     f12:	9a c1       	rjmp	.+820    	; 0x1248 <.L45>

00000f14 <.L157>:
     f14:	ce 01       	movw	r24, r28
     f16:	8b 57       	subi	r24, 0x7B	; 123
     f18:	9f 4f       	sbci	r25, 0xFF	; 255
     f1a:	20 e0       	ldi	r18, 0x00	; 0
     f1c:	3f ef       	ldi	r19, 0xFF	; 255
     f1e:	4f e7       	ldi	r20, 0x7F	; 127
     f20:	57 e4       	ldi	r21, 0x47	; 71
     f22:	dc 01       	movw	r26, r24
     f24:	6d 91       	ld	r22, X+
     f26:	7d 91       	ld	r23, X+
     f28:	8d 91       	ld	r24, X+
     f2a:	9c 91       	ld	r25, X
     f2c:	0e 94 d5 26 	call	0x4daa	; 0x4daa <__gesf2>
     f30:	18 16       	cp	r1, r24
     f32:	0c f0       	brlt	.+2      	; 0xf36 <.LM81>

00000f34 <L0^A>:
     f34:	23 c1       	rjmp	.+582    	; 0x117c <.L158>

00000f36 <.LM81>:
     f36:	ce 01       	movw	r24, r28
     f38:	83 58       	subi	r24, 0x83	; 131
     f3a:	9f 4f       	sbci	r25, 0xFF	; 255
     f3c:	20 e0       	ldi	r18, 0x00	; 0
     f3e:	30 e0       	ldi	r19, 0x00	; 0
     f40:	4a e7       	ldi	r20, 0x7A	; 122
     f42:	54 e4       	ldi	r21, 0x44	; 68
     f44:	fc 01       	movw	r30, r24
     f46:	60 81       	ld	r22, Z
     f48:	71 81       	ldd	r23, Z+1	; 0x01
     f4a:	82 81       	ldd	r24, Z+2	; 0x02
     f4c:	93 81       	ldd	r25, Z+3	; 0x03
     f4e:	0e 94 bf 25 	call	0x4b7e	; 0x4b7e <__divsf3>
     f52:	ca 5f       	subi	r28, 0xFA	; 250
     f54:	de 4f       	sbci	r29, 0xFE	; 254
     f56:	68 83       	st	Y, r22
     f58:	79 83       	std	Y+1, r23	; 0x01
     f5a:	8a 83       	std	Y+2, r24	; 0x02
     f5c:	9b 83       	std	Y+3, r25	; 0x03
     f5e:	c6 50       	subi	r28, 0x06	; 6
     f60:	d1 40       	sbci	r29, 0x01	; 1
     f62:	ca 5f       	subi	r28, 0xFA	; 250
     f64:	de 4f       	sbci	r29, 0xFE	; 254
     f66:	88 81       	ld	r24, Y
     f68:	99 81       	ldd	r25, Y+1	; 0x01
     f6a:	aa 81       	ldd	r26, Y+2	; 0x02
     f6c:	bb 81       	ldd	r27, Y+3	; 0x03
     f6e:	c6 50       	subi	r28, 0x06	; 6
     f70:	d1 40       	sbci	r29, 0x01	; 1
     f72:	9e 01       	movw	r18, r28
     f74:	26 57       	subi	r18, 0x76	; 118
     f76:	3f 4f       	sbci	r19, 0xFF	; 255
     f78:	f9 01       	movw	r30, r18
     f7a:	80 83       	st	Z, r24
     f7c:	91 83       	std	Z+1, r25	; 0x01
     f7e:	a2 83       	std	Z+2, r26	; 0x02
     f80:	b3 83       	std	Z+3, r27	; 0x03

00000f82 <.LM82>:
     f82:	8e 01       	movw	r16, r28
     f84:	02 57       	subi	r16, 0x72	; 114
     f86:	1f 4f       	sbci	r17, 0xFF	; 255
     f88:	ce 01       	movw	r24, r28
     f8a:	86 57       	subi	r24, 0x76	; 118
     f8c:	9f 4f       	sbci	r25, 0xFF	; 255
     f8e:	20 e0       	ldi	r18, 0x00	; 0
     f90:	30 e0       	ldi	r19, 0x00	; 0
     f92:	4a e7       	ldi	r20, 0x7A	; 122
     f94:	55 e4       	ldi	r21, 0x45	; 69
     f96:	dc 01       	movw	r26, r24
     f98:	6d 91       	ld	r22, X+
     f9a:	7d 91       	ld	r23, X+
     f9c:	8d 91       	ld	r24, X+
     f9e:	9c 91       	ld	r25, X
     fa0:	0e 94 da 26 	call	0x4db4	; 0x4db4 <__mulsf3>
     fa4:	c6 5f       	subi	r28, 0xF6	; 246
     fa6:	de 4f       	sbci	r29, 0xFE	; 254
     fa8:	68 83       	st	Y, r22
     faa:	79 83       	std	Y+1, r23	; 0x01
     fac:	8a 83       	std	Y+2, r24	; 0x02
     fae:	9b 83       	std	Y+3, r25	; 0x03
     fb0:	ca 50       	subi	r28, 0x0A	; 10
     fb2:	d1 40       	sbci	r29, 0x01	; 1
     fb4:	c6 5f       	subi	r28, 0xF6	; 246
     fb6:	de 4f       	sbci	r29, 0xFE	; 254
     fb8:	88 81       	ld	r24, Y
     fba:	99 81       	ldd	r25, Y+1	; 0x01
     fbc:	aa 81       	ldd	r26, Y+2	; 0x02
     fbe:	bb 81       	ldd	r27, Y+3	; 0x03
     fc0:	ca 50       	subi	r28, 0x0A	; 10
     fc2:	d1 40       	sbci	r29, 0x01	; 1
     fc4:	f8 01       	movw	r30, r16
     fc6:	80 83       	st	Z, r24
     fc8:	91 83       	std	Z+1, r25	; 0x01
     fca:	a2 83       	std	Z+2, r26	; 0x02
     fcc:	b3 83       	std	Z+3, r27	; 0x03

00000fce <.LM83>:
     fce:	ce 01       	movw	r24, r28
     fd0:	82 57       	subi	r24, 0x72	; 114
     fd2:	9f 4f       	sbci	r25, 0xFF	; 255
     fd4:	20 e0       	ldi	r18, 0x00	; 0
     fd6:	30 e0       	ldi	r19, 0x00	; 0
     fd8:	40 e8       	ldi	r20, 0x80	; 128
     fda:	5f e3       	ldi	r21, 0x3F	; 63
     fdc:	dc 01       	movw	r26, r24
     fde:	6d 91       	ld	r22, X+
     fe0:	7d 91       	ld	r23, X+
     fe2:	8d 91       	ld	r24, X+
     fe4:	9c 91       	ld	r25, X
     fe6:	0e 94 ba 25 	call	0x4b74	; 0x4b74 <__cmpsf2>
     fea:	88 23       	and	r24, r24
     fec:	4c f4       	brge	.+18     	; 0x1000 <.L159>

00000fee <.LM84>:
     fee:	ce 01       	movw	r24, r28
     ff0:	8e 56       	subi	r24, 0x6E	; 110
     ff2:	9f 4f       	sbci	r25, 0xFF	; 255
     ff4:	21 e0       	ldi	r18, 0x01	; 1
     ff6:	30 e0       	ldi	r19, 0x00	; 0
     ff8:	fc 01       	movw	r30, r24
     ffa:	31 83       	std	Z+1, r19	; 0x01
     ffc:	20 83       	st	Z, r18
     ffe:	a2 c0       	rjmp	.+324    	; 0x1144 <.L50>

00001000 <.L159>:
    1000:	ce 01       	movw	r24, r28
    1002:	82 57       	subi	r24, 0x72	; 114
    1004:	9f 4f       	sbci	r25, 0xFF	; 255
    1006:	20 e0       	ldi	r18, 0x00	; 0
    1008:	3f ef       	ldi	r19, 0xFF	; 255
    100a:	4f e7       	ldi	r20, 0x7F	; 127
    100c:	57 e4       	ldi	r21, 0x47	; 71
    100e:	dc 01       	movw	r26, r24
    1010:	6d 91       	ld	r22, X+
    1012:	7d 91       	ld	r23, X+
    1014:	8d 91       	ld	r24, X+
    1016:	9c 91       	ld	r25, X
    1018:	0e 94 d5 26 	call	0x4daa	; 0x4daa <__gesf2>
    101c:	18 16       	cp	r1, r24
    101e:	0c f0       	brlt	.+2      	; 0x1022 <.LM86>

00001020 <L0^A>:
    1020:	73 c0       	rjmp	.+230    	; 0x1108 <.L160>

00001022 <.LM86>:
    1022:	ce 01       	movw	r24, r28
    1024:	86 57       	subi	r24, 0x76	; 118
    1026:	9f 4f       	sbci	r25, 0xFF	; 255
    1028:	20 e0       	ldi	r18, 0x00	; 0
    102a:	30 e0       	ldi	r19, 0x00	; 0
    102c:	40 e2       	ldi	r20, 0x20	; 32
    102e:	51 e4       	ldi	r21, 0x41	; 65
    1030:	fc 01       	movw	r30, r24
    1032:	60 81       	ld	r22, Z
    1034:	71 81       	ldd	r23, Z+1	; 0x01
    1036:	82 81       	ldd	r24, Z+2	; 0x02
    1038:	93 81       	ldd	r25, Z+3	; 0x03
    103a:	0e 94 da 26 	call	0x4db4	; 0x4db4 <__mulsf3>
    103e:	c2 5f       	subi	r28, 0xF2	; 242
    1040:	de 4f       	sbci	r29, 0xFE	; 254
    1042:	68 83       	st	Y, r22
    1044:	79 83       	std	Y+1, r23	; 0x01
    1046:	8a 83       	std	Y+2, r24	; 0x02
    1048:	9b 83       	std	Y+3, r25	; 0x03
    104a:	ce 50       	subi	r28, 0x0E	; 14
    104c:	d1 40       	sbci	r29, 0x01	; 1
    104e:	c2 5f       	subi	r28, 0xF2	; 242
    1050:	de 4f       	sbci	r29, 0xFE	; 254
    1052:	88 81       	ld	r24, Y
    1054:	99 81       	ldd	r25, Y+1	; 0x01
    1056:	aa 81       	ldd	r26, Y+2	; 0x02
    1058:	bb 81       	ldd	r27, Y+3	; 0x03
    105a:	ce 50       	subi	r28, 0x0E	; 14
    105c:	d1 40       	sbci	r29, 0x01	; 1
    105e:	ce 52       	subi	r28, 0x2E	; 46
    1060:	df 4f       	sbci	r29, 0xFF	; 255
    1062:	88 83       	st	Y, r24
    1064:	99 83       	std	Y+1, r25	; 0x01
    1066:	aa 83       	std	Y+2, r26	; 0x02
    1068:	bb 83       	std	Y+3, r27	; 0x03
    106a:	c2 5d       	subi	r28, 0xD2	; 210
    106c:	d0 40       	sbci	r29, 0x00	; 0

0000106e <.LM87>:
    106e:	8e 01       	movw	r16, r28
    1070:	0e 56       	subi	r16, 0x6E	; 110
    1072:	1f 4f       	sbci	r17, 0xFF	; 255
    1074:	ce 52       	subi	r28, 0x2E	; 46
    1076:	df 4f       	sbci	r29, 0xFF	; 255
    1078:	68 81       	ld	r22, Y
    107a:	79 81       	ldd	r23, Y+1	; 0x01
    107c:	8a 81       	ldd	r24, Y+2	; 0x02
    107e:	9b 81       	ldd	r25, Y+3	; 0x03
    1080:	c2 5d       	subi	r28, 0xD2	; 210
    1082:	d0 40       	sbci	r29, 0x00	; 0
    1084:	0e 94 31 26 	call	0x4c62	; 0x4c62 <__fixunssfsi>
    1088:	ce 5e       	subi	r28, 0xEE	; 238
    108a:	de 4f       	sbci	r29, 0xFE	; 254
    108c:	68 83       	st	Y, r22
    108e:	79 83       	std	Y+1, r23	; 0x01
    1090:	8a 83       	std	Y+2, r24	; 0x02
    1092:	9b 83       	std	Y+3, r25	; 0x03
    1094:	c2 51       	subi	r28, 0x12	; 18
    1096:	d1 40       	sbci	r29, 0x01	; 1
    1098:	ce 5e       	subi	r28, 0xEE	; 238
    109a:	de 4f       	sbci	r29, 0xFE	; 254
    109c:	e8 81       	ld	r30, Y
    109e:	f9 81       	ldd	r31, Y+1	; 0x01
    10a0:	c2 51       	subi	r28, 0x12	; 18
    10a2:	d1 40       	sbci	r29, 0x01	; 1
    10a4:	d8 01       	movw	r26, r16
    10a6:	ed 93       	st	X+, r30
    10a8:	fc 93       	st	X, r31

000010aa <.LM88>:
    10aa:	25 c0       	rjmp	.+74     	; 0x10f6 <.L53>

000010ac <.L54>:
    10ac:	ce 01       	movw	r24, r28
    10ae:	8c 56       	subi	r24, 0x6C	; 108
    10b0:	9f 4f       	sbci	r25, 0xFF	; 255
    10b2:	20 e9       	ldi	r18, 0x90	; 144
    10b4:	31 e0       	ldi	r19, 0x01	; 1
    10b6:	dc 01       	movw	r26, r24
    10b8:	2d 93       	st	X+, r18
    10ba:	3c 93       	st	X, r19

000010bc <.LM89>:
    10bc:	ce 01       	movw	r24, r28
    10be:	8c 56       	subi	r24, 0x6C	; 108
    10c0:	9f 4f       	sbci	r25, 0xFF	; 255
    10c2:	fc 01       	movw	r30, r24
    10c4:	80 81       	ld	r24, Z
    10c6:	91 81       	ldd	r25, Z+1	; 0x01

000010c8 <.L1^B9>:
    10c8:	01 97       	sbiw	r24, 0x01	; 1
    10ca:	f1 f7       	brne	.-4      	; 0x10c8 <.L1^B9>
    10cc:	9e 01       	movw	r18, r28
    10ce:	2c 56       	subi	r18, 0x6C	; 108
    10d0:	3f 4f       	sbci	r19, 0xFF	; 255
    10d2:	d9 01       	movw	r26, r18
    10d4:	8d 93       	st	X+, r24
    10d6:	9c 93       	st	X, r25

000010d8 <.LM90>:
	...

000010da <.LM91>:
    10da:	ce 01       	movw	r24, r28
    10dc:	8e 56       	subi	r24, 0x6E	; 110
    10de:	9f 4f       	sbci	r25, 0xFF	; 255
    10e0:	9e 01       	movw	r18, r28
    10e2:	2e 56       	subi	r18, 0x6E	; 110
    10e4:	3f 4f       	sbci	r19, 0xFF	; 255
    10e6:	f9 01       	movw	r30, r18
    10e8:	20 81       	ld	r18, Z
    10ea:	31 81       	ldd	r19, Z+1	; 0x01
    10ec:	21 50       	subi	r18, 0x01	; 1
    10ee:	31 09       	sbc	r19, r1
    10f0:	dc 01       	movw	r26, r24
    10f2:	2d 93       	st	X+, r18
    10f4:	3c 93       	st	X, r19

000010f6 <.L53>:
    10f6:	ce 01       	movw	r24, r28
    10f8:	8e 56       	subi	r24, 0x6E	; 110
    10fa:	9f 4f       	sbci	r25, 0xFF	; 255
    10fc:	fc 01       	movw	r30, r24
    10fe:	80 81       	ld	r24, Z
    1100:	91 81       	ldd	r25, Z+1	; 0x01
    1102:	89 2b       	or	r24, r25
    1104:	99 f6       	brne	.-90     	; 0x10ac <.L54>

00001106 <.LM93>:
    1106:	39 c0       	rjmp	.+114    	; 0x117a <.L55>

00001108 <.L160>:
    1108:	8e 01       	movw	r16, r28
    110a:	0e 56       	subi	r16, 0x6E	; 110
    110c:	1f 4f       	sbci	r17, 0xFF	; 255
    110e:	ce 01       	movw	r24, r28
    1110:	82 57       	subi	r24, 0x72	; 114
    1112:	9f 4f       	sbci	r25, 0xFF	; 255
    1114:	dc 01       	movw	r26, r24
    1116:	6d 91       	ld	r22, X+
    1118:	7d 91       	ld	r23, X+
    111a:	8d 91       	ld	r24, X+
    111c:	9c 91       	ld	r25, X
    111e:	0e 94 31 26 	call	0x4c62	; 0x4c62 <__fixunssfsi>
    1122:	ca 5e       	subi	r28, 0xEA	; 234
    1124:	de 4f       	sbci	r29, 0xFE	; 254
    1126:	68 83       	st	Y, r22
    1128:	79 83       	std	Y+1, r23	; 0x01
    112a:	8a 83       	std	Y+2, r24	; 0x02
    112c:	9b 83       	std	Y+3, r25	; 0x03
    112e:	c6 51       	subi	r28, 0x16	; 22
    1130:	d1 40       	sbci	r29, 0x01	; 1
    1132:	ca 5e       	subi	r28, 0xEA	; 234
    1134:	de 4f       	sbci	r29, 0xFE	; 254
    1136:	88 81       	ld	r24, Y
    1138:	99 81       	ldd	r25, Y+1	; 0x01
    113a:	c6 51       	subi	r28, 0x16	; 22
    113c:	d1 40       	sbci	r29, 0x01	; 1
    113e:	f8 01       	movw	r30, r16
    1140:	91 83       	std	Z+1, r25	; 0x01
    1142:	80 83       	st	Z, r24

00001144 <.L50>:
    1144:	ce 01       	movw	r24, r28
    1146:	8a 56       	subi	r24, 0x6A	; 106
    1148:	9f 4f       	sbci	r25, 0xFF	; 255
    114a:	9e 01       	movw	r18, r28
    114c:	2e 56       	subi	r18, 0x6E	; 110
    114e:	3f 4f       	sbci	r19, 0xFF	; 255
    1150:	d9 01       	movw	r26, r18
    1152:	2d 91       	ld	r18, X+
    1154:	3c 91       	ld	r19, X
    1156:	fc 01       	movw	r30, r24
    1158:	31 83       	std	Z+1, r19	; 0x01
    115a:	20 83       	st	Z, r18

0000115c <.LM95>:
    115c:	ce 01       	movw	r24, r28
    115e:	8a 56       	subi	r24, 0x6A	; 106
    1160:	9f 4f       	sbci	r25, 0xFF	; 255
    1162:	dc 01       	movw	r26, r24
    1164:	8d 91       	ld	r24, X+
    1166:	9c 91       	ld	r25, X

00001168 <.L1^B10>:
    1168:	01 97       	sbiw	r24, 0x01	; 1
    116a:	f1 f7       	brne	.-4      	; 0x1168 <.L1^B10>
    116c:	9e 01       	movw	r18, r28
    116e:	2a 56       	subi	r18, 0x6A	; 106
    1170:	3f 4f       	sbci	r19, 0xFF	; 255
    1172:	f9 01       	movw	r30, r18
    1174:	91 83       	std	Z+1, r25	; 0x01
    1176:	80 83       	st	Z, r24

00001178 <.LM96>:
	...

0000117a <.L55>:
    117a:	7e c0       	rjmp	.+252    	; 0x1278 <.L56>

0000117c <.L158>:
    117c:	ce 01       	movw	r24, r28
    117e:	8f 57       	subi	r24, 0x7F	; 127
    1180:	9f 4f       	sbci	r25, 0xFF	; 255
    1182:	20 e0       	ldi	r18, 0x00	; 0
    1184:	30 e0       	ldi	r19, 0x00	; 0
    1186:	4f e7       	ldi	r20, 0x7F	; 127
    1188:	53 e4       	ldi	r21, 0x43	; 67
    118a:	dc 01       	movw	r26, r24
    118c:	6d 91       	ld	r22, X+
    118e:	7d 91       	ld	r23, X+
    1190:	8d 91       	ld	r24, X+
    1192:	9c 91       	ld	r25, X
    1194:	0e 94 d5 26 	call	0x4daa	; 0x4daa <__gesf2>
    1198:	18 16       	cp	r1, r24
    119a:	d4 f5       	brge	.+116    	; 0x1210 <.L161>

0000119c <.LM99>:
    119c:	8e 01       	movw	r16, r28
    119e:	08 56       	subi	r16, 0x68	; 104
    11a0:	1f 4f       	sbci	r17, 0xFF	; 255
    11a2:	ce 01       	movw	r24, r28
    11a4:	8b 57       	subi	r24, 0x7B	; 123
    11a6:	9f 4f       	sbci	r25, 0xFF	; 255
    11a8:	fc 01       	movw	r30, r24
    11aa:	60 81       	ld	r22, Z
    11ac:	71 81       	ldd	r23, Z+1	; 0x01
    11ae:	82 81       	ldd	r24, Z+2	; 0x02
    11b0:	93 81       	ldd	r25, Z+3	; 0x03
    11b2:	0e 94 31 26 	call	0x4c62	; 0x4c62 <__fixunssfsi>
    11b6:	c6 5e       	subi	r28, 0xE6	; 230
    11b8:	de 4f       	sbci	r29, 0xFE	; 254
    11ba:	68 83       	st	Y, r22
    11bc:	79 83       	std	Y+1, r23	; 0x01
    11be:	8a 83       	std	Y+2, r24	; 0x02
    11c0:	9b 83       	std	Y+3, r25	; 0x03
    11c2:	ca 51       	subi	r28, 0x1A	; 26
    11c4:	d1 40       	sbci	r29, 0x01	; 1
    11c6:	c6 5e       	subi	r28, 0xE6	; 230
    11c8:	de 4f       	sbci	r29, 0xFE	; 254
    11ca:	e8 81       	ld	r30, Y
    11cc:	f9 81       	ldd	r31, Y+1	; 0x01
    11ce:	ca 51       	subi	r28, 0x1A	; 26
    11d0:	d1 40       	sbci	r29, 0x01	; 1
    11d2:	d8 01       	movw	r26, r16
    11d4:	ed 93       	st	X+, r30
    11d6:	fc 93       	st	X, r31
    11d8:	ce 01       	movw	r24, r28
    11da:	86 56       	subi	r24, 0x66	; 102
    11dc:	9f 4f       	sbci	r25, 0xFF	; 255
    11de:	9e 01       	movw	r18, r28
    11e0:	28 56       	subi	r18, 0x68	; 104
    11e2:	3f 4f       	sbci	r19, 0xFF	; 255
    11e4:	d9 01       	movw	r26, r18
    11e6:	2d 91       	ld	r18, X+
    11e8:	3c 91       	ld	r19, X
    11ea:	fc 01       	movw	r30, r24
    11ec:	31 83       	std	Z+1, r19	; 0x01
    11ee:	20 83       	st	Z, r18

000011f0 <.LM100>:
    11f0:	ce 01       	movw	r24, r28
    11f2:	86 56       	subi	r24, 0x66	; 102
    11f4:	9f 4f       	sbci	r25, 0xFF	; 255
    11f6:	dc 01       	movw	r26, r24
    11f8:	8d 91       	ld	r24, X+
    11fa:	9c 91       	ld	r25, X

000011fc <.L1^B11>:
    11fc:	01 97       	sbiw	r24, 0x01	; 1
    11fe:	f1 f7       	brne	.-4      	; 0x11fc <.L1^B11>
    1200:	9e 01       	movw	r18, r28
    1202:	26 56       	subi	r18, 0x66	; 102
    1204:	3f 4f       	sbci	r19, 0xFF	; 255
    1206:	f9 01       	movw	r30, r18
    1208:	91 83       	std	Z+1, r25	; 0x01
    120a:	80 83       	st	Z, r24

0000120c <.LM101>:
	...

0000120e <.LM102>:
    120e:	34 c0       	rjmp	.+104    	; 0x1278 <.L56>

00001210 <.L161>:
    1210:	8e 01       	movw	r16, r28
    1212:	07 57       	subi	r16, 0x77	; 119
    1214:	1f 4f       	sbci	r17, 0xFF	; 255
    1216:	ce 01       	movw	r24, r28
    1218:	8f 57       	subi	r24, 0x7F	; 127
    121a:	9f 4f       	sbci	r25, 0xFF	; 255
    121c:	dc 01       	movw	r26, r24
    121e:	6d 91       	ld	r22, X+
    1220:	7d 91       	ld	r23, X+
    1222:	8d 91       	ld	r24, X+
    1224:	9c 91       	ld	r25, X
    1226:	0e 94 31 26 	call	0x4c62	; 0x4c62 <__fixunssfsi>
    122a:	c2 5e       	subi	r28, 0xE2	; 226
    122c:	de 4f       	sbci	r29, 0xFE	; 254
    122e:	68 83       	st	Y, r22
    1230:	79 83       	std	Y+1, r23	; 0x01
    1232:	8a 83       	std	Y+2, r24	; 0x02
    1234:	9b 83       	std	Y+3, r25	; 0x03
    1236:	ce 51       	subi	r28, 0x1E	; 30
    1238:	d1 40       	sbci	r29, 0x01	; 1
    123a:	c2 5e       	subi	r28, 0xE2	; 226
    123c:	de 4f       	sbci	r29, 0xFE	; 254
    123e:	88 81       	ld	r24, Y
    1240:	ce 51       	subi	r28, 0x1E	; 30
    1242:	d1 40       	sbci	r29, 0x01	; 1
    1244:	f8 01       	movw	r30, r16
    1246:	80 83       	st	Z, r24

00001248 <.L45>:
    1248:	ce 01       	movw	r24, r28
    124a:	84 56       	subi	r24, 0x64	; 100
    124c:	9f 4f       	sbci	r25, 0xFF	; 255
    124e:	9e 01       	movw	r18, r28
    1250:	27 57       	subi	r18, 0x77	; 119
    1252:	3f 4f       	sbci	r19, 0xFF	; 255
    1254:	d9 01       	movw	r26, r18
    1256:	2c 91       	ld	r18, X
    1258:	fc 01       	movw	r30, r24
    125a:	20 83       	st	Z, r18

0000125c <.LM104>:
    125c:	ce 01       	movw	r24, r28
    125e:	84 56       	subi	r24, 0x64	; 100
    1260:	9f 4f       	sbci	r25, 0xFF	; 255
    1262:	dc 01       	movw	r26, r24
    1264:	8c 91       	ld	r24, X
    1266:	28 2f       	mov	r18, r24

00001268 <.L1^B12>:
    1268:	2a 95       	dec	r18
    126a:	f1 f7       	brne	.-4      	; 0x1268 <.L1^B12>
    126c:	ce 01       	movw	r24, r28
    126e:	84 56       	subi	r24, 0x64	; 100
    1270:	9f 4f       	sbci	r25, 0xFF	; 255
    1272:	fc 01       	movw	r30, r24
    1274:	20 83       	st	Z, r18

00001276 <.LM105>:
	...

00001278 <.L56>:
    1278:	ce 01       	movw	r24, r28
    127a:	83 54       	subi	r24, 0x43	; 67
    127c:	9f 4f       	sbci	r25, 0xFF	; 255
    127e:	dc 01       	movw	r26, r24
    1280:	8c 91       	ld	r24, X
    1282:	82 95       	swap	r24
    1284:	8f 70       	andi	r24, 0x0F	; 15

00001286 <.LM107>:
    1286:	81 70       	andi	r24, 0x01	; 1
    1288:	48 2f       	mov	r20, r24
    128a:	63 e0       	ldi	r22, 0x03	; 3
    128c:	80 e0       	ldi	r24, 0x00	; 0
    128e:	0e 94 66 01 	call	0x2cc	; 0x2cc <GPIO_writePin>

00001292 <.LM108>:
    1292:	ce 01       	movw	r24, r28
    1294:	83 54       	subi	r24, 0x43	; 67
    1296:	9f 4f       	sbci	r25, 0xFF	; 255
    1298:	fc 01       	movw	r30, r24
    129a:	80 81       	ld	r24, Z
    129c:	82 95       	swap	r24
    129e:	86 95       	lsr	r24
    12a0:	87 70       	andi	r24, 0x07	; 7

000012a2 <.LM109>:
    12a2:	81 70       	andi	r24, 0x01	; 1
    12a4:	48 2f       	mov	r20, r24
    12a6:	64 e0       	ldi	r22, 0x04	; 4
    12a8:	80 e0       	ldi	r24, 0x00	; 0
    12aa:	0e 94 66 01 	call	0x2cc	; 0x2cc <GPIO_writePin>

000012ae <.LM110>:
    12ae:	ce 01       	movw	r24, r28
    12b0:	83 54       	subi	r24, 0x43	; 67
    12b2:	9f 4f       	sbci	r25, 0xFF	; 255
    12b4:	dc 01       	movw	r26, r24
    12b6:	8c 91       	ld	r24, X
    12b8:	82 95       	swap	r24
    12ba:	86 95       	lsr	r24
    12bc:	86 95       	lsr	r24
    12be:	83 70       	andi	r24, 0x03	; 3

000012c0 <.LM111>:
    12c0:	81 70       	andi	r24, 0x01	; 1
    12c2:	48 2f       	mov	r20, r24
    12c4:	65 e0       	ldi	r22, 0x05	; 5
    12c6:	80 e0       	ldi	r24, 0x00	; 0
    12c8:	0e 94 66 01 	call	0x2cc	; 0x2cc <GPIO_writePin>

000012cc <.LM112>:
    12cc:	ce 01       	movw	r24, r28
    12ce:	83 54       	subi	r24, 0x43	; 67
    12d0:	9f 4f       	sbci	r25, 0xFF	; 255
    12d2:	fc 01       	movw	r30, r24
    12d4:	80 81       	ld	r24, Z
    12d6:	88 1f       	adc	r24, r24
    12d8:	88 27       	eor	r24, r24
    12da:	88 1f       	adc	r24, r24
    12dc:	48 2f       	mov	r20, r24
    12de:	66 e0       	ldi	r22, 0x06	; 6
    12e0:	80 e0       	ldi	r24, 0x00	; 0
    12e2:	0e 94 66 01 	call	0x2cc	; 0x2cc <GPIO_writePin>
    12e6:	9e 01       	movw	r18, r28
    12e8:	21 59       	subi	r18, 0x91	; 145
    12ea:	3f 4f       	sbci	r19, 0xFF	; 255
    12ec:	80 e0       	ldi	r24, 0x00	; 0
    12ee:	90 e0       	ldi	r25, 0x00	; 0
    12f0:	a0 e8       	ldi	r26, 0x80	; 128
    12f2:	bf e3       	ldi	r27, 0x3F	; 63
    12f4:	f9 01       	movw	r30, r18
    12f6:	80 83       	st	Z, r24
    12f8:	91 83       	std	Z+1, r25	; 0x01
    12fa:	a2 83       	std	Z+2, r26	; 0x02
    12fc:	b3 83       	std	Z+3, r27	; 0x03

000012fe <.LM113>:
    12fe:	8e 01       	movw	r16, r28
    1300:	0d 58       	subi	r16, 0x8D	; 141
    1302:	1f 4f       	sbci	r17, 0xFF	; 255
    1304:	ce 01       	movw	r24, r28
    1306:	81 59       	subi	r24, 0x91	; 145
    1308:	9f 4f       	sbci	r25, 0xFF	; 255
    130a:	20 e0       	ldi	r18, 0x00	; 0
    130c:	30 e0       	ldi	r19, 0x00	; 0
    130e:	4a e7       	ldi	r20, 0x7A	; 122
    1310:	55 e4       	ldi	r21, 0x45	; 69
    1312:	dc 01       	movw	r26, r24
    1314:	6d 91       	ld	r22, X+
    1316:	7d 91       	ld	r23, X+
    1318:	8d 91       	ld	r24, X+
    131a:	9c 91       	ld	r25, X
    131c:	0e 94 da 26 	call	0x4db4	; 0x4db4 <__mulsf3>
    1320:	ce 5d       	subi	r28, 0xDE	; 222
    1322:	de 4f       	sbci	r29, 0xFE	; 254
    1324:	68 83       	st	Y, r22
    1326:	79 83       	std	Y+1, r23	; 0x01
    1328:	8a 83       	std	Y+2, r24	; 0x02
    132a:	9b 83       	std	Y+3, r25	; 0x03
    132c:	c2 52       	subi	r28, 0x22	; 34
    132e:	d1 40       	sbci	r29, 0x01	; 1
    1330:	ce 5d       	subi	r28, 0xDE	; 222
    1332:	de 4f       	sbci	r29, 0xFE	; 254
    1334:	88 81       	ld	r24, Y
    1336:	99 81       	ldd	r25, Y+1	; 0x01
    1338:	aa 81       	ldd	r26, Y+2	; 0x02
    133a:	bb 81       	ldd	r27, Y+3	; 0x03
    133c:	c2 52       	subi	r28, 0x22	; 34
    133e:	d1 40       	sbci	r29, 0x01	; 1
    1340:	f8 01       	movw	r30, r16
    1342:	80 83       	st	Z, r24
    1344:	91 83       	std	Z+1, r25	; 0x01
    1346:	a2 83       	std	Z+2, r26	; 0x02
    1348:	b3 83       	std	Z+3, r27	; 0x03

0000134a <.LM114>:
    134a:	ce 01       	movw	r24, r28
    134c:	8d 58       	subi	r24, 0x8D	; 141
    134e:	9f 4f       	sbci	r25, 0xFF	; 255
    1350:	20 e0       	ldi	r18, 0x00	; 0
    1352:	30 e0       	ldi	r19, 0x00	; 0
    1354:	40 e8       	ldi	r20, 0x80	; 128
    1356:	5f e3       	ldi	r21, 0x3F	; 63
    1358:	dc 01       	movw	r26, r24
    135a:	6d 91       	ld	r22, X+
    135c:	7d 91       	ld	r23, X+
    135e:	8d 91       	ld	r24, X+
    1360:	9c 91       	ld	r25, X
    1362:	0e 94 ba 25 	call	0x4b74	; 0x4b74 <__cmpsf2>
    1366:	88 23       	and	r24, r24
    1368:	4c f4       	brge	.+18     	; 0x137c <.L162>

0000136a <.LM115>:
    136a:	ce 01       	movw	r24, r28
    136c:	89 58       	subi	r24, 0x89	; 137
    136e:	9f 4f       	sbci	r25, 0xFF	; 255
    1370:	21 e0       	ldi	r18, 0x01	; 1
    1372:	30 e0       	ldi	r19, 0x00	; 0
    1374:	fc 01       	movw	r30, r24
    1376:	31 83       	std	Z+1, r19	; 0x01
    1378:	20 83       	st	Z, r18
    137a:	a2 c0       	rjmp	.+324    	; 0x14c0 <.L61>

0000137c <.L162>:
    137c:	ce 01       	movw	r24, r28
    137e:	8d 58       	subi	r24, 0x8D	; 141
    1380:	9f 4f       	sbci	r25, 0xFF	; 255
    1382:	20 e0       	ldi	r18, 0x00	; 0
    1384:	3f ef       	ldi	r19, 0xFF	; 255
    1386:	4f e7       	ldi	r20, 0x7F	; 127
    1388:	57 e4       	ldi	r21, 0x47	; 71
    138a:	dc 01       	movw	r26, r24
    138c:	6d 91       	ld	r22, X+
    138e:	7d 91       	ld	r23, X+
    1390:	8d 91       	ld	r24, X+
    1392:	9c 91       	ld	r25, X
    1394:	0e 94 d5 26 	call	0x4daa	; 0x4daa <__gesf2>
    1398:	18 16       	cp	r1, r24
    139a:	0c f0       	brlt	.+2      	; 0x139e <.LM117>

0000139c <L0^A>:
    139c:	73 c0       	rjmp	.+230    	; 0x1484 <.L163>

0000139e <.LM117>:
    139e:	ce 01       	movw	r24, r28
    13a0:	81 59       	subi	r24, 0x91	; 145
    13a2:	9f 4f       	sbci	r25, 0xFF	; 255
    13a4:	20 e0       	ldi	r18, 0x00	; 0
    13a6:	30 e0       	ldi	r19, 0x00	; 0
    13a8:	40 e2       	ldi	r20, 0x20	; 32
    13aa:	51 e4       	ldi	r21, 0x41	; 65
    13ac:	fc 01       	movw	r30, r24
    13ae:	60 81       	ld	r22, Z
    13b0:	71 81       	ldd	r23, Z+1	; 0x01
    13b2:	82 81       	ldd	r24, Z+2	; 0x02
    13b4:	93 81       	ldd	r25, Z+3	; 0x03
    13b6:	0e 94 da 26 	call	0x4db4	; 0x4db4 <__mulsf3>
    13ba:	ca 5d       	subi	r28, 0xDA	; 218
    13bc:	de 4f       	sbci	r29, 0xFE	; 254
    13be:	68 83       	st	Y, r22
    13c0:	79 83       	std	Y+1, r23	; 0x01
    13c2:	8a 83       	std	Y+2, r24	; 0x02
    13c4:	9b 83       	std	Y+3, r25	; 0x03
    13c6:	c6 52       	subi	r28, 0x26	; 38
    13c8:	d1 40       	sbci	r29, 0x01	; 1
    13ca:	ca 5d       	subi	r28, 0xDA	; 218
    13cc:	de 4f       	sbci	r29, 0xFE	; 254
    13ce:	88 81       	ld	r24, Y
    13d0:	99 81       	ldd	r25, Y+1	; 0x01
    13d2:	aa 81       	ldd	r26, Y+2	; 0x02
    13d4:	bb 81       	ldd	r27, Y+3	; 0x03
    13d6:	c6 52       	subi	r28, 0x26	; 38
    13d8:	d1 40       	sbci	r29, 0x01	; 1
    13da:	c2 53       	subi	r28, 0x32	; 50
    13dc:	df 4f       	sbci	r29, 0xFF	; 255
    13de:	88 83       	st	Y, r24
    13e0:	99 83       	std	Y+1, r25	; 0x01
    13e2:	aa 83       	std	Y+2, r26	; 0x02
    13e4:	bb 83       	std	Y+3, r27	; 0x03
    13e6:	ce 5c       	subi	r28, 0xCE	; 206
    13e8:	d0 40       	sbci	r29, 0x00	; 0

000013ea <.LM118>:
    13ea:	8e 01       	movw	r16, r28
    13ec:	09 58       	subi	r16, 0x89	; 137
    13ee:	1f 4f       	sbci	r17, 0xFF	; 255
    13f0:	c2 53       	subi	r28, 0x32	; 50
    13f2:	df 4f       	sbci	r29, 0xFF	; 255
    13f4:	68 81       	ld	r22, Y
    13f6:	79 81       	ldd	r23, Y+1	; 0x01
    13f8:	8a 81       	ldd	r24, Y+2	; 0x02
    13fa:	9b 81       	ldd	r25, Y+3	; 0x03
    13fc:	ce 5c       	subi	r28, 0xCE	; 206
    13fe:	d0 40       	sbci	r29, 0x00	; 0
    1400:	0e 94 31 26 	call	0x4c62	; 0x4c62 <__fixunssfsi>
    1404:	c6 5d       	subi	r28, 0xD6	; 214
    1406:	de 4f       	sbci	r29, 0xFE	; 254
    1408:	68 83       	st	Y, r22
    140a:	79 83       	std	Y+1, r23	; 0x01
    140c:	8a 83       	std	Y+2, r24	; 0x02
    140e:	9b 83       	std	Y+3, r25	; 0x03
    1410:	ca 52       	subi	r28, 0x2A	; 42
    1412:	d1 40       	sbci	r29, 0x01	; 1
    1414:	c6 5d       	subi	r28, 0xD6	; 214
    1416:	de 4f       	sbci	r29, 0xFE	; 254
    1418:	e8 81       	ld	r30, Y
    141a:	f9 81       	ldd	r31, Y+1	; 0x01
    141c:	ca 52       	subi	r28, 0x2A	; 42
    141e:	d1 40       	sbci	r29, 0x01	; 1
    1420:	d8 01       	movw	r26, r16
    1422:	ed 93       	st	X+, r30
    1424:	fc 93       	st	X, r31

00001426 <.LM119>:
    1426:	25 c0       	rjmp	.+74     	; 0x1472 <.L64>

00001428 <.L65>:
    1428:	ce 01       	movw	r24, r28
    142a:	87 58       	subi	r24, 0x87	; 135
    142c:	9f 4f       	sbci	r25, 0xFF	; 255
    142e:	20 e9       	ldi	r18, 0x90	; 144
    1430:	31 e0       	ldi	r19, 0x01	; 1
    1432:	dc 01       	movw	r26, r24
    1434:	2d 93       	st	X+, r18
    1436:	3c 93       	st	X, r19

00001438 <.LM120>:
    1438:	ce 01       	movw	r24, r28
    143a:	87 58       	subi	r24, 0x87	; 135
    143c:	9f 4f       	sbci	r25, 0xFF	; 255
    143e:	fc 01       	movw	r30, r24
    1440:	80 81       	ld	r24, Z
    1442:	91 81       	ldd	r25, Z+1	; 0x01

00001444 <.L1^B13>:
    1444:	01 97       	sbiw	r24, 0x01	; 1
    1446:	f1 f7       	brne	.-4      	; 0x1444 <.L1^B13>
    1448:	9e 01       	movw	r18, r28
    144a:	27 58       	subi	r18, 0x87	; 135
    144c:	3f 4f       	sbci	r19, 0xFF	; 255
    144e:	d9 01       	movw	r26, r18
    1450:	8d 93       	st	X+, r24
    1452:	9c 93       	st	X, r25

00001454 <.LM121>:
	...

00001456 <.LM122>:
    1456:	ce 01       	movw	r24, r28
    1458:	89 58       	subi	r24, 0x89	; 137
    145a:	9f 4f       	sbci	r25, 0xFF	; 255
    145c:	9e 01       	movw	r18, r28
    145e:	29 58       	subi	r18, 0x89	; 137
    1460:	3f 4f       	sbci	r19, 0xFF	; 255
    1462:	f9 01       	movw	r30, r18
    1464:	20 81       	ld	r18, Z
    1466:	31 81       	ldd	r19, Z+1	; 0x01
    1468:	21 50       	subi	r18, 0x01	; 1
    146a:	31 09       	sbc	r19, r1
    146c:	dc 01       	movw	r26, r24
    146e:	2d 93       	st	X+, r18
    1470:	3c 93       	st	X, r19

00001472 <.L64>:
    1472:	ce 01       	movw	r24, r28
    1474:	89 58       	subi	r24, 0x89	; 137
    1476:	9f 4f       	sbci	r25, 0xFF	; 255
    1478:	fc 01       	movw	r30, r24
    147a:	80 81       	ld	r24, Z
    147c:	91 81       	ldd	r25, Z+1	; 0x01
    147e:	89 2b       	or	r24, r25
    1480:	99 f6       	brne	.-90     	; 0x1428 <.L65>

00001482 <.LM124>:
    1482:	39 c0       	rjmp	.+114    	; 0x14f6 <.L66>

00001484 <.L163>:
    1484:	8e 01       	movw	r16, r28
    1486:	09 58       	subi	r16, 0x89	; 137
    1488:	1f 4f       	sbci	r17, 0xFF	; 255
    148a:	ce 01       	movw	r24, r28
    148c:	8d 58       	subi	r24, 0x8D	; 141
    148e:	9f 4f       	sbci	r25, 0xFF	; 255
    1490:	dc 01       	movw	r26, r24
    1492:	6d 91       	ld	r22, X+
    1494:	7d 91       	ld	r23, X+
    1496:	8d 91       	ld	r24, X+
    1498:	9c 91       	ld	r25, X
    149a:	0e 94 31 26 	call	0x4c62	; 0x4c62 <__fixunssfsi>
    149e:	c2 5d       	subi	r28, 0xD2	; 210
    14a0:	de 4f       	sbci	r29, 0xFE	; 254
    14a2:	68 83       	st	Y, r22
    14a4:	79 83       	std	Y+1, r23	; 0x01
    14a6:	8a 83       	std	Y+2, r24	; 0x02
    14a8:	9b 83       	std	Y+3, r25	; 0x03
    14aa:	ce 52       	subi	r28, 0x2E	; 46
    14ac:	d1 40       	sbci	r29, 0x01	; 1
    14ae:	c2 5d       	subi	r28, 0xD2	; 210
    14b0:	de 4f       	sbci	r29, 0xFE	; 254
    14b2:	88 81       	ld	r24, Y
    14b4:	99 81       	ldd	r25, Y+1	; 0x01
    14b6:	ce 52       	subi	r28, 0x2E	; 46
    14b8:	d1 40       	sbci	r29, 0x01	; 1
    14ba:	f8 01       	movw	r30, r16
    14bc:	91 83       	std	Z+1, r25	; 0x01
    14be:	80 83       	st	Z, r24

000014c0 <.L61>:
    14c0:	ce 01       	movw	r24, r28
    14c2:	85 58       	subi	r24, 0x85	; 133
    14c4:	9f 4f       	sbci	r25, 0xFF	; 255
    14c6:	9e 01       	movw	r18, r28
    14c8:	29 58       	subi	r18, 0x89	; 137
    14ca:	3f 4f       	sbci	r19, 0xFF	; 255
    14cc:	d9 01       	movw	r26, r18
    14ce:	2d 91       	ld	r18, X+
    14d0:	3c 91       	ld	r19, X
    14d2:	fc 01       	movw	r30, r24
    14d4:	31 83       	std	Z+1, r19	; 0x01
    14d6:	20 83       	st	Z, r18

000014d8 <.LM126>:
    14d8:	ce 01       	movw	r24, r28
    14da:	85 58       	subi	r24, 0x85	; 133
    14dc:	9f 4f       	sbci	r25, 0xFF	; 255
    14de:	dc 01       	movw	r26, r24
    14e0:	8d 91       	ld	r24, X+
    14e2:	9c 91       	ld	r25, X

000014e4 <.L1^B14>:
    14e4:	01 97       	sbiw	r24, 0x01	; 1
    14e6:	f1 f7       	brne	.-4      	; 0x14e4 <.L1^B14>
    14e8:	9e 01       	movw	r18, r28
    14ea:	25 58       	subi	r18, 0x85	; 133
    14ec:	3f 4f       	sbci	r19, 0xFF	; 255
    14ee:	f9 01       	movw	r30, r18
    14f0:	91 83       	std	Z+1, r25	; 0x01
    14f2:	80 83       	st	Z, r24

000014f4 <.LM127>:
	...

000014f6 <.L66>:
    14f6:	40 e0       	ldi	r20, 0x00	; 0
    14f8:	62 e0       	ldi	r22, 0x02	; 2
    14fa:	80 e0       	ldi	r24, 0x00	; 0
    14fc:	0e 94 66 01 	call	0x2cc	; 0x2cc <GPIO_writePin>
    1500:	9e 01       	movw	r18, r28
    1502:	21 5b       	subi	r18, 0xB1	; 177
    1504:	3f 4f       	sbci	r19, 0xFF	; 255
    1506:	80 e0       	ldi	r24, 0x00	; 0
    1508:	90 e0       	ldi	r25, 0x00	; 0
    150a:	a0 e8       	ldi	r26, 0x80	; 128
    150c:	bf e3       	ldi	r27, 0x3F	; 63
    150e:	f9 01       	movw	r30, r18
    1510:	80 83       	st	Z, r24
    1512:	91 83       	std	Z+1, r25	; 0x01
    1514:	a2 83       	std	Z+2, r26	; 0x02
    1516:	b3 83       	std	Z+3, r27	; 0x03

00001518 <.LM129>:
    1518:	8e 01       	movw	r16, r28
    151a:	0d 5a       	subi	r16, 0xAD	; 173
    151c:	1f 4f       	sbci	r17, 0xFF	; 255
    151e:	ce 01       	movw	r24, r28
    1520:	81 5b       	subi	r24, 0xB1	; 177
    1522:	9f 4f       	sbci	r25, 0xFF	; 255
    1524:	2b ea       	ldi	r18, 0xAB	; 171
    1526:	3a ea       	ldi	r19, 0xAA	; 170
    1528:	4a ea       	ldi	r20, 0xAA	; 170
    152a:	50 e4       	ldi	r21, 0x40	; 64
    152c:	dc 01       	movw	r26, r24
    152e:	6d 91       	ld	r22, X+
    1530:	7d 91       	ld	r23, X+
    1532:	8d 91       	ld	r24, X+
    1534:	9c 91       	ld	r25, X
    1536:	0e 94 da 26 	call	0x4db4	; 0x4db4 <__mulsf3>
    153a:	ce 5c       	subi	r28, 0xCE	; 206
    153c:	de 4f       	sbci	r29, 0xFE	; 254
    153e:	68 83       	st	Y, r22
    1540:	79 83       	std	Y+1, r23	; 0x01
    1542:	8a 83       	std	Y+2, r24	; 0x02
    1544:	9b 83       	std	Y+3, r25	; 0x03
    1546:	c2 53       	subi	r28, 0x32	; 50
    1548:	d1 40       	sbci	r29, 0x01	; 1
    154a:	ce 5c       	subi	r28, 0xCE	; 206
    154c:	de 4f       	sbci	r29, 0xFE	; 254
    154e:	88 81       	ld	r24, Y
    1550:	99 81       	ldd	r25, Y+1	; 0x01
    1552:	aa 81       	ldd	r26, Y+2	; 0x02
    1554:	bb 81       	ldd	r27, Y+3	; 0x03
    1556:	c2 53       	subi	r28, 0x32	; 50
    1558:	d1 40       	sbci	r29, 0x01	; 1
    155a:	f8 01       	movw	r30, r16
    155c:	80 83       	st	Z, r24
    155e:	91 83       	std	Z+1, r25	; 0x01
    1560:	a2 83       	std	Z+2, r26	; 0x02
    1562:	b3 83       	std	Z+3, r27	; 0x03

00001564 <.LM130>:
    1564:	8e 01       	movw	r16, r28
    1566:	09 5a       	subi	r16, 0xA9	; 169
    1568:	1f 4f       	sbci	r17, 0xFF	; 255
    156a:	ce 01       	movw	r24, r28
    156c:	81 5b       	subi	r24, 0xB1	; 177
    156e:	9f 4f       	sbci	r25, 0xFF	; 255
    1570:	20 e0       	ldi	r18, 0x00	; 0
    1572:	30 e0       	ldi	r19, 0x00	; 0
    1574:	40 e8       	ldi	r20, 0x80	; 128
    1576:	50 e4       	ldi	r21, 0x40	; 64
    1578:	dc 01       	movw	r26, r24
    157a:	6d 91       	ld	r22, X+
    157c:	7d 91       	ld	r23, X+
    157e:	8d 91       	ld	r24, X+
    1580:	9c 91       	ld	r25, X
    1582:	0e 94 da 26 	call	0x4db4	; 0x4db4 <__mulsf3>
    1586:	ca 5c       	subi	r28, 0xCA	; 202
    1588:	de 4f       	sbci	r29, 0xFE	; 254
    158a:	68 83       	st	Y, r22
    158c:	79 83       	std	Y+1, r23	; 0x01
    158e:	8a 83       	std	Y+2, r24	; 0x02
    1590:	9b 83       	std	Y+3, r25	; 0x03
    1592:	c6 53       	subi	r28, 0x36	; 54
    1594:	d1 40       	sbci	r29, 0x01	; 1
    1596:	ca 5c       	subi	r28, 0xCA	; 202
    1598:	de 4f       	sbci	r29, 0xFE	; 254
    159a:	88 81       	ld	r24, Y
    159c:	99 81       	ldd	r25, Y+1	; 0x01
    159e:	aa 81       	ldd	r26, Y+2	; 0x02
    15a0:	bb 81       	ldd	r27, Y+3	; 0x03
    15a2:	c6 53       	subi	r28, 0x36	; 54
    15a4:	d1 40       	sbci	r29, 0x01	; 1
    15a6:	f8 01       	movw	r30, r16
    15a8:	80 83       	st	Z, r24
    15aa:	91 83       	std	Z+1, r25	; 0x01
    15ac:	a2 83       	std	Z+2, r26	; 0x02
    15ae:	b3 83       	std	Z+3, r27	; 0x03

000015b0 <.LM131>:
    15b0:	ce 01       	movw	r24, r28
    15b2:	8d 5a       	subi	r24, 0xAD	; 173
    15b4:	9f 4f       	sbci	r25, 0xFF	; 255
    15b6:	20 e0       	ldi	r18, 0x00	; 0
    15b8:	30 e0       	ldi	r19, 0x00	; 0
    15ba:	40 e8       	ldi	r20, 0x80	; 128
    15bc:	5f e3       	ldi	r21, 0x3F	; 63
    15be:	dc 01       	movw	r26, r24
    15c0:	6d 91       	ld	r22, X+
    15c2:	7d 91       	ld	r23, X+
    15c4:	8d 91       	ld	r24, X+
    15c6:	9c 91       	ld	r25, X
    15c8:	0e 94 ba 25 	call	0x4b74	; 0x4b74 <__cmpsf2>
    15cc:	88 23       	and	r24, r24
    15ce:	3c f4       	brge	.+14     	; 0x15de <.L164>

000015d0 <.LM132>:
    15d0:	ce 01       	movw	r24, r28
    15d2:	85 5a       	subi	r24, 0xA5	; 165
    15d4:	9f 4f       	sbci	r25, 0xFF	; 255
    15d6:	21 e0       	ldi	r18, 0x01	; 1
    15d8:	fc 01       	movw	r30, r24
    15da:	20 83       	st	Z, r18
    15dc:	9a c1       	rjmp	.+820    	; 0x1912 <.L69>

000015de <.L164>:
    15de:	ce 01       	movw	r24, r28
    15e0:	89 5a       	subi	r24, 0xA9	; 169
    15e2:	9f 4f       	sbci	r25, 0xFF	; 255
    15e4:	20 e0       	ldi	r18, 0x00	; 0
    15e6:	3f ef       	ldi	r19, 0xFF	; 255
    15e8:	4f e7       	ldi	r20, 0x7F	; 127
    15ea:	57 e4       	ldi	r21, 0x47	; 71
    15ec:	dc 01       	movw	r26, r24
    15ee:	6d 91       	ld	r22, X+
    15f0:	7d 91       	ld	r23, X+
    15f2:	8d 91       	ld	r24, X+
    15f4:	9c 91       	ld	r25, X
    15f6:	0e 94 d5 26 	call	0x4daa	; 0x4daa <__gesf2>
    15fa:	18 16       	cp	r1, r24
    15fc:	0c f0       	brlt	.+2      	; 0x1600 <.LM134>

000015fe <L0^A>:
    15fe:	23 c1       	rjmp	.+582    	; 0x1846 <.L165>

00001600 <.LM134>:
    1600:	ce 01       	movw	r24, r28
    1602:	81 5b       	subi	r24, 0xB1	; 177
    1604:	9f 4f       	sbci	r25, 0xFF	; 255
    1606:	20 e0       	ldi	r18, 0x00	; 0
    1608:	30 e0       	ldi	r19, 0x00	; 0
    160a:	4a e7       	ldi	r20, 0x7A	; 122
    160c:	54 e4       	ldi	r21, 0x44	; 68
    160e:	fc 01       	movw	r30, r24
    1610:	60 81       	ld	r22, Z
    1612:	71 81       	ldd	r23, Z+1	; 0x01
    1614:	82 81       	ldd	r24, Z+2	; 0x02
    1616:	93 81       	ldd	r25, Z+3	; 0x03
    1618:	0e 94 bf 25 	call	0x4b7e	; 0x4b7e <__divsf3>
    161c:	c6 5c       	subi	r28, 0xC6	; 198
    161e:	de 4f       	sbci	r29, 0xFE	; 254
    1620:	68 83       	st	Y, r22
    1622:	79 83       	std	Y+1, r23	; 0x01
    1624:	8a 83       	std	Y+2, r24	; 0x02
    1626:	9b 83       	std	Y+3, r25	; 0x03
    1628:	ca 53       	subi	r28, 0x3A	; 58
    162a:	d1 40       	sbci	r29, 0x01	; 1
    162c:	c6 5c       	subi	r28, 0xC6	; 198
    162e:	de 4f       	sbci	r29, 0xFE	; 254
    1630:	88 81       	ld	r24, Y
    1632:	99 81       	ldd	r25, Y+1	; 0x01
    1634:	aa 81       	ldd	r26, Y+2	; 0x02
    1636:	bb 81       	ldd	r27, Y+3	; 0x03
    1638:	ca 53       	subi	r28, 0x3A	; 58
    163a:	d1 40       	sbci	r29, 0x01	; 1
    163c:	9e 01       	movw	r18, r28
    163e:	24 5a       	subi	r18, 0xA4	; 164
    1640:	3f 4f       	sbci	r19, 0xFF	; 255
    1642:	f9 01       	movw	r30, r18
    1644:	80 83       	st	Z, r24
    1646:	91 83       	std	Z+1, r25	; 0x01
    1648:	a2 83       	std	Z+2, r26	; 0x02
    164a:	b3 83       	std	Z+3, r27	; 0x03

0000164c <.LM135>:
    164c:	8e 01       	movw	r16, r28
    164e:	00 5a       	subi	r16, 0xA0	; 160
    1650:	1f 4f       	sbci	r17, 0xFF	; 255
    1652:	ce 01       	movw	r24, r28
    1654:	84 5a       	subi	r24, 0xA4	; 164
    1656:	9f 4f       	sbci	r25, 0xFF	; 255
    1658:	20 e0       	ldi	r18, 0x00	; 0
    165a:	30 e0       	ldi	r19, 0x00	; 0
    165c:	4a e7       	ldi	r20, 0x7A	; 122
    165e:	55 e4       	ldi	r21, 0x45	; 69
    1660:	dc 01       	movw	r26, r24
    1662:	6d 91       	ld	r22, X+
    1664:	7d 91       	ld	r23, X+
    1666:	8d 91       	ld	r24, X+
    1668:	9c 91       	ld	r25, X
    166a:	0e 94 da 26 	call	0x4db4	; 0x4db4 <__mulsf3>
    166e:	c2 5c       	subi	r28, 0xC2	; 194
    1670:	de 4f       	sbci	r29, 0xFE	; 254
    1672:	68 83       	st	Y, r22
    1674:	79 83       	std	Y+1, r23	; 0x01
    1676:	8a 83       	std	Y+2, r24	; 0x02
    1678:	9b 83       	std	Y+3, r25	; 0x03
    167a:	ce 53       	subi	r28, 0x3E	; 62
    167c:	d1 40       	sbci	r29, 0x01	; 1
    167e:	c2 5c       	subi	r28, 0xC2	; 194
    1680:	de 4f       	sbci	r29, 0xFE	; 254
    1682:	88 81       	ld	r24, Y
    1684:	99 81       	ldd	r25, Y+1	; 0x01
    1686:	aa 81       	ldd	r26, Y+2	; 0x02
    1688:	bb 81       	ldd	r27, Y+3	; 0x03
    168a:	ce 53       	subi	r28, 0x3E	; 62
    168c:	d1 40       	sbci	r29, 0x01	; 1
    168e:	f8 01       	movw	r30, r16
    1690:	80 83       	st	Z, r24
    1692:	91 83       	std	Z+1, r25	; 0x01
    1694:	a2 83       	std	Z+2, r26	; 0x02
    1696:	b3 83       	std	Z+3, r27	; 0x03

00001698 <.LM136>:
    1698:	ce 01       	movw	r24, r28
    169a:	80 5a       	subi	r24, 0xA0	; 160
    169c:	9f 4f       	sbci	r25, 0xFF	; 255
    169e:	20 e0       	ldi	r18, 0x00	; 0
    16a0:	30 e0       	ldi	r19, 0x00	; 0
    16a2:	40 e8       	ldi	r20, 0x80	; 128
    16a4:	5f e3       	ldi	r21, 0x3F	; 63
    16a6:	dc 01       	movw	r26, r24
    16a8:	6d 91       	ld	r22, X+
    16aa:	7d 91       	ld	r23, X+
    16ac:	8d 91       	ld	r24, X+
    16ae:	9c 91       	ld	r25, X
    16b0:	0e 94 ba 25 	call	0x4b74	; 0x4b74 <__cmpsf2>
    16b4:	88 23       	and	r24, r24
    16b6:	4c f4       	brge	.+18     	; 0x16ca <.L166>

000016b8 <.LM137>:
    16b8:	ce 01       	movw	r24, r28
    16ba:	8c 59       	subi	r24, 0x9C	; 156
    16bc:	9f 4f       	sbci	r25, 0xFF	; 255
    16be:	21 e0       	ldi	r18, 0x01	; 1
    16c0:	30 e0       	ldi	r19, 0x00	; 0
    16c2:	fc 01       	movw	r30, r24
    16c4:	31 83       	std	Z+1, r19	; 0x01
    16c6:	20 83       	st	Z, r18
    16c8:	a2 c0       	rjmp	.+324    	; 0x180e <.L74>

000016ca <.L166>:
    16ca:	ce 01       	movw	r24, r28
    16cc:	80 5a       	subi	r24, 0xA0	; 160
    16ce:	9f 4f       	sbci	r25, 0xFF	; 255
    16d0:	20 e0       	ldi	r18, 0x00	; 0
    16d2:	3f ef       	ldi	r19, 0xFF	; 255
    16d4:	4f e7       	ldi	r20, 0x7F	; 127
    16d6:	57 e4       	ldi	r21, 0x47	; 71
    16d8:	dc 01       	movw	r26, r24
    16da:	6d 91       	ld	r22, X+
    16dc:	7d 91       	ld	r23, X+
    16de:	8d 91       	ld	r24, X+
    16e0:	9c 91       	ld	r25, X
    16e2:	0e 94 d5 26 	call	0x4daa	; 0x4daa <__gesf2>
    16e6:	18 16       	cp	r1, r24
    16e8:	0c f0       	brlt	.+2      	; 0x16ec <.LM139>

000016ea <L0^A>:
    16ea:	73 c0       	rjmp	.+230    	; 0x17d2 <.L167>

000016ec <.LM139>:
    16ec:	ce 01       	movw	r24, r28
    16ee:	84 5a       	subi	r24, 0xA4	; 164
    16f0:	9f 4f       	sbci	r25, 0xFF	; 255
    16f2:	20 e0       	ldi	r18, 0x00	; 0
    16f4:	30 e0       	ldi	r19, 0x00	; 0
    16f6:	40 e2       	ldi	r20, 0x20	; 32
    16f8:	51 e4       	ldi	r21, 0x41	; 65
    16fa:	fc 01       	movw	r30, r24
    16fc:	60 81       	ld	r22, Z
    16fe:	71 81       	ldd	r23, Z+1	; 0x01
    1700:	82 81       	ldd	r24, Z+2	; 0x02
    1702:	93 81       	ldd	r25, Z+3	; 0x03
    1704:	0e 94 da 26 	call	0x4db4	; 0x4db4 <__mulsf3>
    1708:	ce 5b       	subi	r28, 0xBE	; 190
    170a:	de 4f       	sbci	r29, 0xFE	; 254
    170c:	68 83       	st	Y, r22
    170e:	79 83       	std	Y+1, r23	; 0x01
    1710:	8a 83       	std	Y+2, r24	; 0x02
    1712:	9b 83       	std	Y+3, r25	; 0x03
    1714:	c2 54       	subi	r28, 0x42	; 66
    1716:	d1 40       	sbci	r29, 0x01	; 1
    1718:	ce 5b       	subi	r28, 0xBE	; 190
    171a:	de 4f       	sbci	r29, 0xFE	; 254
    171c:	88 81       	ld	r24, Y
    171e:	99 81       	ldd	r25, Y+1	; 0x01
    1720:	aa 81       	ldd	r26, Y+2	; 0x02
    1722:	bb 81       	ldd	r27, Y+3	; 0x03
    1724:	c2 54       	subi	r28, 0x42	; 66
    1726:	d1 40       	sbci	r29, 0x01	; 1
    1728:	c6 53       	subi	r28, 0x36	; 54
    172a:	df 4f       	sbci	r29, 0xFF	; 255
    172c:	88 83       	st	Y, r24
    172e:	99 83       	std	Y+1, r25	; 0x01
    1730:	aa 83       	std	Y+2, r26	; 0x02
    1732:	bb 83       	std	Y+3, r27	; 0x03
    1734:	ca 5c       	subi	r28, 0xCA	; 202
    1736:	d0 40       	sbci	r29, 0x00	; 0

00001738 <.LM140>:
    1738:	8e 01       	movw	r16, r28
    173a:	0c 59       	subi	r16, 0x9C	; 156
    173c:	1f 4f       	sbci	r17, 0xFF	; 255
    173e:	c6 53       	subi	r28, 0x36	; 54
    1740:	df 4f       	sbci	r29, 0xFF	; 255
    1742:	68 81       	ld	r22, Y
    1744:	79 81       	ldd	r23, Y+1	; 0x01
    1746:	8a 81       	ldd	r24, Y+2	; 0x02
    1748:	9b 81       	ldd	r25, Y+3	; 0x03
    174a:	ca 5c       	subi	r28, 0xCA	; 202
    174c:	d0 40       	sbci	r29, 0x00	; 0
    174e:	0e 94 31 26 	call	0x4c62	; 0x4c62 <__fixunssfsi>
    1752:	ca 5b       	subi	r28, 0xBA	; 186
    1754:	de 4f       	sbci	r29, 0xFE	; 254
    1756:	68 83       	st	Y, r22
    1758:	79 83       	std	Y+1, r23	; 0x01
    175a:	8a 83       	std	Y+2, r24	; 0x02
    175c:	9b 83       	std	Y+3, r25	; 0x03
    175e:	c6 54       	subi	r28, 0x46	; 70
    1760:	d1 40       	sbci	r29, 0x01	; 1
    1762:	ca 5b       	subi	r28, 0xBA	; 186
    1764:	de 4f       	sbci	r29, 0xFE	; 254
    1766:	e8 81       	ld	r30, Y
    1768:	f9 81       	ldd	r31, Y+1	; 0x01
    176a:	c6 54       	subi	r28, 0x46	; 70
    176c:	d1 40       	sbci	r29, 0x01	; 1
    176e:	d8 01       	movw	r26, r16
    1770:	ed 93       	st	X+, r30
    1772:	fc 93       	st	X, r31

00001774 <.LM141>:
    1774:	25 c0       	rjmp	.+74     	; 0x17c0 <.L77>

00001776 <.L78>:
    1776:	ce 01       	movw	r24, r28
    1778:	8a 59       	subi	r24, 0x9A	; 154
    177a:	9f 4f       	sbci	r25, 0xFF	; 255
    177c:	20 e9       	ldi	r18, 0x90	; 144
    177e:	31 e0       	ldi	r19, 0x01	; 1
    1780:	dc 01       	movw	r26, r24
    1782:	2d 93       	st	X+, r18
    1784:	3c 93       	st	X, r19

00001786 <.LM142>:
    1786:	ce 01       	movw	r24, r28
    1788:	8a 59       	subi	r24, 0x9A	; 154
    178a:	9f 4f       	sbci	r25, 0xFF	; 255
    178c:	fc 01       	movw	r30, r24
    178e:	80 81       	ld	r24, Z
    1790:	91 81       	ldd	r25, Z+1	; 0x01

00001792 <.L1^B15>:
    1792:	01 97       	sbiw	r24, 0x01	; 1
    1794:	f1 f7       	brne	.-4      	; 0x1792 <.L1^B15>
    1796:	9e 01       	movw	r18, r28
    1798:	2a 59       	subi	r18, 0x9A	; 154
    179a:	3f 4f       	sbci	r19, 0xFF	; 255
    179c:	d9 01       	movw	r26, r18
    179e:	8d 93       	st	X+, r24
    17a0:	9c 93       	st	X, r25

000017a2 <.LM143>:
	...

000017a4 <.LM144>:
    17a4:	ce 01       	movw	r24, r28
    17a6:	8c 59       	subi	r24, 0x9C	; 156
    17a8:	9f 4f       	sbci	r25, 0xFF	; 255
    17aa:	9e 01       	movw	r18, r28
    17ac:	2c 59       	subi	r18, 0x9C	; 156
    17ae:	3f 4f       	sbci	r19, 0xFF	; 255
    17b0:	f9 01       	movw	r30, r18
    17b2:	20 81       	ld	r18, Z
    17b4:	31 81       	ldd	r19, Z+1	; 0x01
    17b6:	21 50       	subi	r18, 0x01	; 1
    17b8:	31 09       	sbc	r19, r1
    17ba:	dc 01       	movw	r26, r24
    17bc:	2d 93       	st	X+, r18
    17be:	3c 93       	st	X, r19

000017c0 <.L77>:
    17c0:	ce 01       	movw	r24, r28
    17c2:	8c 59       	subi	r24, 0x9C	; 156
    17c4:	9f 4f       	sbci	r25, 0xFF	; 255
    17c6:	fc 01       	movw	r30, r24
    17c8:	80 81       	ld	r24, Z
    17ca:	91 81       	ldd	r25, Z+1	; 0x01
    17cc:	89 2b       	or	r24, r25
    17ce:	99 f6       	brne	.-90     	; 0x1776 <.L78>

000017d0 <.LM146>:
    17d0:	39 c0       	rjmp	.+114    	; 0x1844 <.L79>

000017d2 <.L167>:
    17d2:	8e 01       	movw	r16, r28
    17d4:	0c 59       	subi	r16, 0x9C	; 156
    17d6:	1f 4f       	sbci	r17, 0xFF	; 255
    17d8:	ce 01       	movw	r24, r28
    17da:	80 5a       	subi	r24, 0xA0	; 160
    17dc:	9f 4f       	sbci	r25, 0xFF	; 255
    17de:	dc 01       	movw	r26, r24
    17e0:	6d 91       	ld	r22, X+
    17e2:	7d 91       	ld	r23, X+
    17e4:	8d 91       	ld	r24, X+
    17e6:	9c 91       	ld	r25, X
    17e8:	0e 94 31 26 	call	0x4c62	; 0x4c62 <__fixunssfsi>
    17ec:	c6 5b       	subi	r28, 0xB6	; 182
    17ee:	de 4f       	sbci	r29, 0xFE	; 254
    17f0:	68 83       	st	Y, r22
    17f2:	79 83       	std	Y+1, r23	; 0x01
    17f4:	8a 83       	std	Y+2, r24	; 0x02
    17f6:	9b 83       	std	Y+3, r25	; 0x03
    17f8:	ca 54       	subi	r28, 0x4A	; 74
    17fa:	d1 40       	sbci	r29, 0x01	; 1
    17fc:	c6 5b       	subi	r28, 0xB6	; 182
    17fe:	de 4f       	sbci	r29, 0xFE	; 254
    1800:	88 81       	ld	r24, Y
    1802:	99 81       	ldd	r25, Y+1	; 0x01
    1804:	ca 54       	subi	r28, 0x4A	; 74
    1806:	d1 40       	sbci	r29, 0x01	; 1
    1808:	f8 01       	movw	r30, r16
    180a:	91 83       	std	Z+1, r25	; 0x01
    180c:	80 83       	st	Z, r24

0000180e <.L74>:
    180e:	ce 01       	movw	r24, r28
    1810:	88 59       	subi	r24, 0x98	; 152
    1812:	9f 4f       	sbci	r25, 0xFF	; 255
    1814:	9e 01       	movw	r18, r28
    1816:	2c 59       	subi	r18, 0x9C	; 156
    1818:	3f 4f       	sbci	r19, 0xFF	; 255
    181a:	d9 01       	movw	r26, r18
    181c:	2d 91       	ld	r18, X+
    181e:	3c 91       	ld	r19, X
    1820:	fc 01       	movw	r30, r24
    1822:	31 83       	std	Z+1, r19	; 0x01
    1824:	20 83       	st	Z, r18

00001826 <.LM148>:
    1826:	ce 01       	movw	r24, r28
    1828:	88 59       	subi	r24, 0x98	; 152
    182a:	9f 4f       	sbci	r25, 0xFF	; 255
    182c:	dc 01       	movw	r26, r24
    182e:	8d 91       	ld	r24, X+
    1830:	9c 91       	ld	r25, X

00001832 <.L1^B16>:
    1832:	01 97       	sbiw	r24, 0x01	; 1
    1834:	f1 f7       	brne	.-4      	; 0x1832 <.L1^B16>
    1836:	9e 01       	movw	r18, r28
    1838:	28 59       	subi	r18, 0x98	; 152
    183a:	3f 4f       	sbci	r19, 0xFF	; 255
    183c:	f9 01       	movw	r30, r18
    183e:	91 83       	std	Z+1, r25	; 0x01
    1840:	80 83       	st	Z, r24

00001842 <.LM149>:
	...

00001844 <.L79>:
    1844:	7e c0       	rjmp	.+252    	; 0x1942 <.L80>

00001846 <.L165>:
    1846:	ce 01       	movw	r24, r28
    1848:	8d 5a       	subi	r24, 0xAD	; 173
    184a:	9f 4f       	sbci	r25, 0xFF	; 255
    184c:	20 e0       	ldi	r18, 0x00	; 0
    184e:	30 e0       	ldi	r19, 0x00	; 0
    1850:	4f e7       	ldi	r20, 0x7F	; 127
    1852:	53 e4       	ldi	r21, 0x43	; 67
    1854:	dc 01       	movw	r26, r24
    1856:	6d 91       	ld	r22, X+
    1858:	7d 91       	ld	r23, X+
    185a:	8d 91       	ld	r24, X+
    185c:	9c 91       	ld	r25, X
    185e:	0e 94 d5 26 	call	0x4daa	; 0x4daa <__gesf2>
    1862:	18 16       	cp	r1, r24
    1864:	d4 f5       	brge	.+116    	; 0x18da <.L168>

00001866 <.LM152>:
    1866:	8e 01       	movw	r16, r28
    1868:	06 59       	subi	r16, 0x96	; 150
    186a:	1f 4f       	sbci	r17, 0xFF	; 255
    186c:	ce 01       	movw	r24, r28
    186e:	89 5a       	subi	r24, 0xA9	; 169
    1870:	9f 4f       	sbci	r25, 0xFF	; 255
    1872:	fc 01       	movw	r30, r24
    1874:	60 81       	ld	r22, Z
    1876:	71 81       	ldd	r23, Z+1	; 0x01
    1878:	82 81       	ldd	r24, Z+2	; 0x02
    187a:	93 81       	ldd	r25, Z+3	; 0x03
    187c:	0e 94 31 26 	call	0x4c62	; 0x4c62 <__fixunssfsi>
    1880:	c2 5b       	subi	r28, 0xB2	; 178
    1882:	de 4f       	sbci	r29, 0xFE	; 254
    1884:	68 83       	st	Y, r22
    1886:	79 83       	std	Y+1, r23	; 0x01
    1888:	8a 83       	std	Y+2, r24	; 0x02
    188a:	9b 83       	std	Y+3, r25	; 0x03
    188c:	ce 54       	subi	r28, 0x4E	; 78
    188e:	d1 40       	sbci	r29, 0x01	; 1
    1890:	c2 5b       	subi	r28, 0xB2	; 178
    1892:	de 4f       	sbci	r29, 0xFE	; 254
    1894:	e8 81       	ld	r30, Y
    1896:	f9 81       	ldd	r31, Y+1	; 0x01
    1898:	ce 54       	subi	r28, 0x4E	; 78
    189a:	d1 40       	sbci	r29, 0x01	; 1
    189c:	d8 01       	movw	r26, r16
    189e:	ed 93       	st	X+, r30
    18a0:	fc 93       	st	X, r31
    18a2:	ce 01       	movw	r24, r28
    18a4:	84 59       	subi	r24, 0x94	; 148
    18a6:	9f 4f       	sbci	r25, 0xFF	; 255
    18a8:	9e 01       	movw	r18, r28
    18aa:	26 59       	subi	r18, 0x96	; 150
    18ac:	3f 4f       	sbci	r19, 0xFF	; 255
    18ae:	d9 01       	movw	r26, r18
    18b0:	2d 91       	ld	r18, X+
    18b2:	3c 91       	ld	r19, X
    18b4:	fc 01       	movw	r30, r24
    18b6:	31 83       	std	Z+1, r19	; 0x01
    18b8:	20 83       	st	Z, r18

000018ba <.LM153>:
    18ba:	ce 01       	movw	r24, r28
    18bc:	84 59       	subi	r24, 0x94	; 148
    18be:	9f 4f       	sbci	r25, 0xFF	; 255
    18c0:	dc 01       	movw	r26, r24
    18c2:	8d 91       	ld	r24, X+
    18c4:	9c 91       	ld	r25, X

000018c6 <.L1^B17>:
    18c6:	01 97       	sbiw	r24, 0x01	; 1
    18c8:	f1 f7       	brne	.-4      	; 0x18c6 <.L1^B17>
    18ca:	9e 01       	movw	r18, r28
    18cc:	24 59       	subi	r18, 0x94	; 148
    18ce:	3f 4f       	sbci	r19, 0xFF	; 255
    18d0:	f9 01       	movw	r30, r18
    18d2:	91 83       	std	Z+1, r25	; 0x01
    18d4:	80 83       	st	Z, r24

000018d6 <.LM154>:
	...

000018d8 <.LM155>:
    18d8:	34 c0       	rjmp	.+104    	; 0x1942 <.L80>

000018da <.L168>:
    18da:	8e 01       	movw	r16, r28
    18dc:	05 5a       	subi	r16, 0xA5	; 165
    18de:	1f 4f       	sbci	r17, 0xFF	; 255
    18e0:	ce 01       	movw	r24, r28
    18e2:	8d 5a       	subi	r24, 0xAD	; 173
    18e4:	9f 4f       	sbci	r25, 0xFF	; 255
    18e6:	dc 01       	movw	r26, r24
    18e8:	6d 91       	ld	r22, X+
    18ea:	7d 91       	ld	r23, X+
    18ec:	8d 91       	ld	r24, X+
    18ee:	9c 91       	ld	r25, X
    18f0:	0e 94 31 26 	call	0x4c62	; 0x4c62 <__fixunssfsi>
    18f4:	ce 5a       	subi	r28, 0xAE	; 174
    18f6:	de 4f       	sbci	r29, 0xFE	; 254
    18f8:	68 83       	st	Y, r22
    18fa:	79 83       	std	Y+1, r23	; 0x01
    18fc:	8a 83       	std	Y+2, r24	; 0x02
    18fe:	9b 83       	std	Y+3, r25	; 0x03
    1900:	c2 55       	subi	r28, 0x52	; 82
    1902:	d1 40       	sbci	r29, 0x01	; 1
    1904:	ce 5a       	subi	r28, 0xAE	; 174
    1906:	de 4f       	sbci	r29, 0xFE	; 254
    1908:	88 81       	ld	r24, Y
    190a:	c2 55       	subi	r28, 0x52	; 82
    190c:	d1 40       	sbci	r29, 0x01	; 1
    190e:	f8 01       	movw	r30, r16
    1910:	80 83       	st	Z, r24

00001912 <.L69>:
    1912:	ce 01       	movw	r24, r28
    1914:	82 59       	subi	r24, 0x92	; 146
    1916:	9f 4f       	sbci	r25, 0xFF	; 255
    1918:	9e 01       	movw	r18, r28
    191a:	25 5a       	subi	r18, 0xA5	; 165
    191c:	3f 4f       	sbci	r19, 0xFF	; 255
    191e:	d9 01       	movw	r26, r18
    1920:	2c 91       	ld	r18, X
    1922:	fc 01       	movw	r30, r24
    1924:	20 83       	st	Z, r18

00001926 <.LM157>:
    1926:	ce 01       	movw	r24, r28
    1928:	82 59       	subi	r24, 0x92	; 146
    192a:	9f 4f       	sbci	r25, 0xFF	; 255
    192c:	dc 01       	movw	r26, r24
    192e:	8c 91       	ld	r24, X
    1930:	28 2f       	mov	r18, r24

00001932 <.L1^B18>:
    1932:	2a 95       	dec	r18
    1934:	f1 f7       	brne	.-4      	; 0x1932 <.L1^B18>
    1936:	ce 01       	movw	r24, r28
    1938:	82 59       	subi	r24, 0x92	; 146
    193a:	9f 4f       	sbci	r25, 0xFF	; 255
    193c:	fc 01       	movw	r30, r24
    193e:	20 83       	st	Z, r18

00001940 <.LM158>:
	...

00001942 <.L80>:
    1942:	41 e0       	ldi	r20, 0x01	; 1
    1944:	62 e0       	ldi	r22, 0x02	; 2
    1946:	80 e0       	ldi	r24, 0x00	; 0
    1948:	0e 94 66 01 	call	0x2cc	; 0x2cc <GPIO_writePin>
    194c:	80 e0       	ldi	r24, 0x00	; 0
    194e:	90 e0       	ldi	r25, 0x00	; 0
    1950:	a0 e8       	ldi	r26, 0x80	; 128
    1952:	bf e3       	ldi	r27, 0x3F	; 63
    1954:	8f a7       	std	Y+47, r24	; 0x2f
    1956:	98 ab       	std	Y+48, r25	; 0x30
    1958:	a9 ab       	std	Y+49, r26	; 0x31
    195a:	ba ab       	std	Y+50, r27	; 0x32

0000195c <.LM160>:
    195c:	2b ea       	ldi	r18, 0xAB	; 171
    195e:	3a ea       	ldi	r19, 0xAA	; 170
    1960:	4a ea       	ldi	r20, 0xAA	; 170
    1962:	50 e4       	ldi	r21, 0x40	; 64
    1964:	6f a5       	ldd	r22, Y+47	; 0x2f
    1966:	78 a9       	ldd	r23, Y+48	; 0x30
    1968:	89 a9       	ldd	r24, Y+49	; 0x31
    196a:	9a a9       	ldd	r25, Y+50	; 0x32
    196c:	0e 94 da 26 	call	0x4db4	; 0x4db4 <__mulsf3>
    1970:	ca 5a       	subi	r28, 0xAA	; 170
    1972:	de 4f       	sbci	r29, 0xFE	; 254
    1974:	68 83       	st	Y, r22
    1976:	79 83       	std	Y+1, r23	; 0x01
    1978:	8a 83       	std	Y+2, r24	; 0x02
    197a:	9b 83       	std	Y+3, r25	; 0x03
    197c:	c6 55       	subi	r28, 0x56	; 86
    197e:	d1 40       	sbci	r29, 0x01	; 1
    1980:	ca 5a       	subi	r28, 0xAA	; 170
    1982:	de 4f       	sbci	r29, 0xFE	; 254
    1984:	88 81       	ld	r24, Y
    1986:	99 81       	ldd	r25, Y+1	; 0x01
    1988:	aa 81       	ldd	r26, Y+2	; 0x02
    198a:	bb 81       	ldd	r27, Y+3	; 0x03
    198c:	c6 55       	subi	r28, 0x56	; 86
    198e:	d1 40       	sbci	r29, 0x01	; 1
    1990:	8b ab       	std	Y+51, r24	; 0x33
    1992:	9c ab       	std	Y+52, r25	; 0x34
    1994:	ad ab       	std	Y+53, r26	; 0x35
    1996:	be ab       	std	Y+54, r27	; 0x36

00001998 <.LM161>:
    1998:	20 e0       	ldi	r18, 0x00	; 0
    199a:	30 e0       	ldi	r19, 0x00	; 0
    199c:	40 e8       	ldi	r20, 0x80	; 128
    199e:	50 e4       	ldi	r21, 0x40	; 64
    19a0:	6f a5       	ldd	r22, Y+47	; 0x2f
    19a2:	78 a9       	ldd	r23, Y+48	; 0x30
    19a4:	89 a9       	ldd	r24, Y+49	; 0x31
    19a6:	9a a9       	ldd	r25, Y+50	; 0x32
    19a8:	0e 94 da 26 	call	0x4db4	; 0x4db4 <__mulsf3>
    19ac:	c6 5a       	subi	r28, 0xA6	; 166
    19ae:	de 4f       	sbci	r29, 0xFE	; 254
    19b0:	68 83       	st	Y, r22
    19b2:	79 83       	std	Y+1, r23	; 0x01
    19b4:	8a 83       	std	Y+2, r24	; 0x02
    19b6:	9b 83       	std	Y+3, r25	; 0x03
    19b8:	ca 55       	subi	r28, 0x5A	; 90
    19ba:	d1 40       	sbci	r29, 0x01	; 1
    19bc:	c6 5a       	subi	r28, 0xA6	; 166
    19be:	de 4f       	sbci	r29, 0xFE	; 254
    19c0:	88 81       	ld	r24, Y
    19c2:	99 81       	ldd	r25, Y+1	; 0x01
    19c4:	aa 81       	ldd	r26, Y+2	; 0x02
    19c6:	bb 81       	ldd	r27, Y+3	; 0x03
    19c8:	ca 55       	subi	r28, 0x5A	; 90
    19ca:	d1 40       	sbci	r29, 0x01	; 1
    19cc:	8f ab       	std	Y+55, r24	; 0x37
    19ce:	98 af       	std	Y+56, r25	; 0x38
    19d0:	a9 af       	std	Y+57, r26	; 0x39
    19d2:	ba af       	std	Y+58, r27	; 0x3a

000019d4 <.LM162>:
    19d4:	20 e0       	ldi	r18, 0x00	; 0
    19d6:	30 e0       	ldi	r19, 0x00	; 0
    19d8:	40 e8       	ldi	r20, 0x80	; 128
    19da:	5f e3       	ldi	r21, 0x3F	; 63
    19dc:	6b a9       	ldd	r22, Y+51	; 0x33
    19de:	7c a9       	ldd	r23, Y+52	; 0x34
    19e0:	8d a9       	ldd	r24, Y+53	; 0x35
    19e2:	9e a9       	ldd	r25, Y+54	; 0x36
    19e4:	0e 94 ba 25 	call	0x4b74	; 0x4b74 <__cmpsf2>
    19e8:	88 23       	and	r24, r24
    19ea:	1c f4       	brge	.+6      	; 0x19f2 <.L169>

000019ec <.LM163>:
    19ec:	81 e0       	ldi	r24, 0x01	; 1
    19ee:	8b af       	std	Y+59, r24	; 0x3b
    19f0:	76 c1       	rjmp	.+748    	; 0x1cde <.L85>

000019f2 <.L169>:
    19f2:	20 e0       	ldi	r18, 0x00	; 0
    19f4:	3f ef       	ldi	r19, 0xFF	; 255
    19f6:	4f e7       	ldi	r20, 0x7F	; 127
    19f8:	57 e4       	ldi	r21, 0x47	; 71
    19fa:	6f a9       	ldd	r22, Y+55	; 0x37
    19fc:	78 ad       	ldd	r23, Y+56	; 0x38
    19fe:	89 ad       	ldd	r24, Y+57	; 0x39
    1a00:	9a ad       	ldd	r25, Y+58	; 0x3a
    1a02:	0e 94 d5 26 	call	0x4daa	; 0x4daa <__gesf2>
    1a06:	18 16       	cp	r1, r24
    1a08:	0c f0       	brlt	.+2      	; 0x1a0c <.LM165>

00001a0a <L0^A>:
    1a0a:	13 c1       	rjmp	.+550    	; 0x1c32 <.L170>

00001a0c <.LM165>:
    1a0c:	20 e0       	ldi	r18, 0x00	; 0
    1a0e:	30 e0       	ldi	r19, 0x00	; 0
    1a10:	4a e7       	ldi	r20, 0x7A	; 122
    1a12:	54 e4       	ldi	r21, 0x44	; 68
    1a14:	6f a5       	ldd	r22, Y+47	; 0x2f
    1a16:	78 a9       	ldd	r23, Y+48	; 0x30
    1a18:	89 a9       	ldd	r24, Y+49	; 0x31
    1a1a:	9a a9       	ldd	r25, Y+50	; 0x32
    1a1c:	0e 94 bf 25 	call	0x4b7e	; 0x4b7e <__divsf3>
    1a20:	c2 5a       	subi	r28, 0xA2	; 162
    1a22:	de 4f       	sbci	r29, 0xFE	; 254
    1a24:	68 83       	st	Y, r22
    1a26:	79 83       	std	Y+1, r23	; 0x01
    1a28:	8a 83       	std	Y+2, r24	; 0x02
    1a2a:	9b 83       	std	Y+3, r25	; 0x03
    1a2c:	ce 55       	subi	r28, 0x5E	; 94
    1a2e:	d1 40       	sbci	r29, 0x01	; 1
    1a30:	c2 5a       	subi	r28, 0xA2	; 162
    1a32:	de 4f       	sbci	r29, 0xFE	; 254
    1a34:	88 81       	ld	r24, Y
    1a36:	99 81       	ldd	r25, Y+1	; 0x01
    1a38:	aa 81       	ldd	r26, Y+2	; 0x02
    1a3a:	bb 81       	ldd	r27, Y+3	; 0x03
    1a3c:	ce 55       	subi	r28, 0x5E	; 94
    1a3e:	d1 40       	sbci	r29, 0x01	; 1
    1a40:	8c af       	std	Y+60, r24	; 0x3c
    1a42:	9d af       	std	Y+61, r25	; 0x3d
    1a44:	ae af       	std	Y+62, r26	; 0x3e
    1a46:	bf af       	std	Y+63, r27	; 0x3f

00001a48 <.LM166>:
    1a48:	8e 01       	movw	r16, r28
    1a4a:	00 5c       	subi	r16, 0xC0	; 192
    1a4c:	1f 4f       	sbci	r17, 0xFF	; 255
    1a4e:	20 e0       	ldi	r18, 0x00	; 0
    1a50:	30 e0       	ldi	r19, 0x00	; 0
    1a52:	4a e7       	ldi	r20, 0x7A	; 122
    1a54:	55 e4       	ldi	r21, 0x45	; 69
    1a56:	6c ad       	ldd	r22, Y+60	; 0x3c
    1a58:	7d ad       	ldd	r23, Y+61	; 0x3d
    1a5a:	8e ad       	ldd	r24, Y+62	; 0x3e
    1a5c:	9f ad       	ldd	r25, Y+63	; 0x3f
    1a5e:	0e 94 da 26 	call	0x4db4	; 0x4db4 <__mulsf3>
    1a62:	ce 59       	subi	r28, 0x9E	; 158
    1a64:	de 4f       	sbci	r29, 0xFE	; 254
    1a66:	68 83       	st	Y, r22
    1a68:	79 83       	std	Y+1, r23	; 0x01
    1a6a:	8a 83       	std	Y+2, r24	; 0x02
    1a6c:	9b 83       	std	Y+3, r25	; 0x03
    1a6e:	c2 56       	subi	r28, 0x62	; 98
    1a70:	d1 40       	sbci	r29, 0x01	; 1
    1a72:	ce 59       	subi	r28, 0x9E	; 158
    1a74:	de 4f       	sbci	r29, 0xFE	; 254
    1a76:	88 81       	ld	r24, Y
    1a78:	99 81       	ldd	r25, Y+1	; 0x01
    1a7a:	aa 81       	ldd	r26, Y+2	; 0x02
    1a7c:	bb 81       	ldd	r27, Y+3	; 0x03
    1a7e:	c2 56       	subi	r28, 0x62	; 98
    1a80:	d1 40       	sbci	r29, 0x01	; 1
    1a82:	f8 01       	movw	r30, r16
    1a84:	80 83       	st	Z, r24
    1a86:	91 83       	std	Z+1, r25	; 0x01
    1a88:	a2 83       	std	Z+2, r26	; 0x02
    1a8a:	b3 83       	std	Z+3, r27	; 0x03

00001a8c <.LM167>:
    1a8c:	ce 01       	movw	r24, r28
    1a8e:	80 5c       	subi	r24, 0xC0	; 192
    1a90:	9f 4f       	sbci	r25, 0xFF	; 255
    1a92:	20 e0       	ldi	r18, 0x00	; 0
    1a94:	30 e0       	ldi	r19, 0x00	; 0
    1a96:	40 e8       	ldi	r20, 0x80	; 128
    1a98:	5f e3       	ldi	r21, 0x3F	; 63
    1a9a:	dc 01       	movw	r26, r24
    1a9c:	6d 91       	ld	r22, X+
    1a9e:	7d 91       	ld	r23, X+
    1aa0:	8d 91       	ld	r24, X+
    1aa2:	9c 91       	ld	r25, X
    1aa4:	0e 94 ba 25 	call	0x4b74	; 0x4b74 <__cmpsf2>
    1aa8:	88 23       	and	r24, r24
    1aaa:	4c f4       	brge	.+18     	; 0x1abe <.L171>

00001aac <.LM168>:
    1aac:	ce 01       	movw	r24, r28
    1aae:	8c 5b       	subi	r24, 0xBC	; 188
    1ab0:	9f 4f       	sbci	r25, 0xFF	; 255
    1ab2:	21 e0       	ldi	r18, 0x01	; 1
    1ab4:	30 e0       	ldi	r19, 0x00	; 0
    1ab6:	fc 01       	movw	r30, r24
    1ab8:	31 83       	std	Z+1, r19	; 0x01
    1aba:	20 83       	st	Z, r18
    1abc:	9e c0       	rjmp	.+316    	; 0x1bfa <.L90>

00001abe <.L171>:
    1abe:	ce 01       	movw	r24, r28
    1ac0:	80 5c       	subi	r24, 0xC0	; 192
    1ac2:	9f 4f       	sbci	r25, 0xFF	; 255
    1ac4:	20 e0       	ldi	r18, 0x00	; 0
    1ac6:	3f ef       	ldi	r19, 0xFF	; 255
    1ac8:	4f e7       	ldi	r20, 0x7F	; 127
    1aca:	57 e4       	ldi	r21, 0x47	; 71
    1acc:	dc 01       	movw	r26, r24
    1ace:	6d 91       	ld	r22, X+
    1ad0:	7d 91       	ld	r23, X+
    1ad2:	8d 91       	ld	r24, X+
    1ad4:	9c 91       	ld	r25, X
    1ad6:	0e 94 d5 26 	call	0x4daa	; 0x4daa <__gesf2>
    1ada:	18 16       	cp	r1, r24
    1adc:	0c f0       	brlt	.+2      	; 0x1ae0 <.LM170>

00001ade <L0^A>:
    1ade:	6f c0       	rjmp	.+222    	; 0x1bbe <.L172>

00001ae0 <.LM170>:
    1ae0:	20 e0       	ldi	r18, 0x00	; 0
    1ae2:	30 e0       	ldi	r19, 0x00	; 0
    1ae4:	40 e2       	ldi	r20, 0x20	; 32
    1ae6:	51 e4       	ldi	r21, 0x41	; 65
    1ae8:	6c ad       	ldd	r22, Y+60	; 0x3c
    1aea:	7d ad       	ldd	r23, Y+61	; 0x3d
    1aec:	8e ad       	ldd	r24, Y+62	; 0x3e
    1aee:	9f ad       	ldd	r25, Y+63	; 0x3f
    1af0:	0e 94 da 26 	call	0x4db4	; 0x4db4 <__mulsf3>
    1af4:	ca 59       	subi	r28, 0x9A	; 154
    1af6:	de 4f       	sbci	r29, 0xFE	; 254
    1af8:	68 83       	st	Y, r22
    1afa:	79 83       	std	Y+1, r23	; 0x01
    1afc:	8a 83       	std	Y+2, r24	; 0x02
    1afe:	9b 83       	std	Y+3, r25	; 0x03
    1b00:	c6 56       	subi	r28, 0x66	; 102
    1b02:	d1 40       	sbci	r29, 0x01	; 1
    1b04:	ca 59       	subi	r28, 0x9A	; 154
    1b06:	de 4f       	sbci	r29, 0xFE	; 254
    1b08:	88 81       	ld	r24, Y
    1b0a:	99 81       	ldd	r25, Y+1	; 0x01
    1b0c:	aa 81       	ldd	r26, Y+2	; 0x02
    1b0e:	bb 81       	ldd	r27, Y+3	; 0x03
    1b10:	c6 56       	subi	r28, 0x66	; 102
    1b12:	d1 40       	sbci	r29, 0x01	; 1
    1b14:	ca 53       	subi	r28, 0x3A	; 58
    1b16:	df 4f       	sbci	r29, 0xFF	; 255
    1b18:	88 83       	st	Y, r24
    1b1a:	99 83       	std	Y+1, r25	; 0x01
    1b1c:	aa 83       	std	Y+2, r26	; 0x02
    1b1e:	bb 83       	std	Y+3, r27	; 0x03
    1b20:	c6 5c       	subi	r28, 0xC6	; 198
    1b22:	d0 40       	sbci	r29, 0x00	; 0

00001b24 <.LM171>:
    1b24:	8e 01       	movw	r16, r28
    1b26:	0c 5b       	subi	r16, 0xBC	; 188
    1b28:	1f 4f       	sbci	r17, 0xFF	; 255
    1b2a:	ca 53       	subi	r28, 0x3A	; 58
    1b2c:	df 4f       	sbci	r29, 0xFF	; 255
    1b2e:	68 81       	ld	r22, Y
    1b30:	79 81       	ldd	r23, Y+1	; 0x01
    1b32:	8a 81       	ldd	r24, Y+2	; 0x02
    1b34:	9b 81       	ldd	r25, Y+3	; 0x03
    1b36:	c6 5c       	subi	r28, 0xC6	; 198
    1b38:	d0 40       	sbci	r29, 0x00	; 0
    1b3a:	0e 94 31 26 	call	0x4c62	; 0x4c62 <__fixunssfsi>
    1b3e:	c6 59       	subi	r28, 0x96	; 150
    1b40:	de 4f       	sbci	r29, 0xFE	; 254
    1b42:	68 83       	st	Y, r22
    1b44:	79 83       	std	Y+1, r23	; 0x01
    1b46:	8a 83       	std	Y+2, r24	; 0x02
    1b48:	9b 83       	std	Y+3, r25	; 0x03
    1b4a:	ca 56       	subi	r28, 0x6A	; 106
    1b4c:	d1 40       	sbci	r29, 0x01	; 1
    1b4e:	c6 59       	subi	r28, 0x96	; 150
    1b50:	de 4f       	sbci	r29, 0xFE	; 254
    1b52:	e8 81       	ld	r30, Y
    1b54:	f9 81       	ldd	r31, Y+1	; 0x01
    1b56:	ca 56       	subi	r28, 0x6A	; 106
    1b58:	d1 40       	sbci	r29, 0x01	; 1
    1b5a:	d8 01       	movw	r26, r16
    1b5c:	ed 93       	st	X+, r30
    1b5e:	fc 93       	st	X, r31

00001b60 <.LM172>:
    1b60:	25 c0       	rjmp	.+74     	; 0x1bac <.L93>

00001b62 <.L94>:
    1b62:	ce 01       	movw	r24, r28
    1b64:	8a 5b       	subi	r24, 0xBA	; 186
    1b66:	9f 4f       	sbci	r25, 0xFF	; 255
    1b68:	20 e9       	ldi	r18, 0x90	; 144
    1b6a:	31 e0       	ldi	r19, 0x01	; 1
    1b6c:	dc 01       	movw	r26, r24
    1b6e:	2d 93       	st	X+, r18
    1b70:	3c 93       	st	X, r19

00001b72 <.LM173>:
    1b72:	ce 01       	movw	r24, r28
    1b74:	8a 5b       	subi	r24, 0xBA	; 186
    1b76:	9f 4f       	sbci	r25, 0xFF	; 255
    1b78:	fc 01       	movw	r30, r24
    1b7a:	80 81       	ld	r24, Z
    1b7c:	91 81       	ldd	r25, Z+1	; 0x01

00001b7e <.L1^B19>:
    1b7e:	01 97       	sbiw	r24, 0x01	; 1
    1b80:	f1 f7       	brne	.-4      	; 0x1b7e <.L1^B19>
    1b82:	9e 01       	movw	r18, r28
    1b84:	2a 5b       	subi	r18, 0xBA	; 186
    1b86:	3f 4f       	sbci	r19, 0xFF	; 255
    1b88:	d9 01       	movw	r26, r18
    1b8a:	8d 93       	st	X+, r24
    1b8c:	9c 93       	st	X, r25

00001b8e <.LM174>:
	...

00001b90 <.LM175>:
    1b90:	ce 01       	movw	r24, r28
    1b92:	8c 5b       	subi	r24, 0xBC	; 188
    1b94:	9f 4f       	sbci	r25, 0xFF	; 255
    1b96:	9e 01       	movw	r18, r28
    1b98:	2c 5b       	subi	r18, 0xBC	; 188
    1b9a:	3f 4f       	sbci	r19, 0xFF	; 255
    1b9c:	f9 01       	movw	r30, r18
    1b9e:	20 81       	ld	r18, Z
    1ba0:	31 81       	ldd	r19, Z+1	; 0x01
    1ba2:	21 50       	subi	r18, 0x01	; 1
    1ba4:	31 09       	sbc	r19, r1
    1ba6:	dc 01       	movw	r26, r24
    1ba8:	2d 93       	st	X+, r18
    1baa:	3c 93       	st	X, r19

00001bac <.L93>:
    1bac:	ce 01       	movw	r24, r28
    1bae:	8c 5b       	subi	r24, 0xBC	; 188
    1bb0:	9f 4f       	sbci	r25, 0xFF	; 255
    1bb2:	fc 01       	movw	r30, r24
    1bb4:	80 81       	ld	r24, Z
    1bb6:	91 81       	ldd	r25, Z+1	; 0x01
    1bb8:	89 2b       	or	r24, r25
    1bba:	99 f6       	brne	.-90     	; 0x1b62 <.L94>

00001bbc <.LM177>:
    1bbc:	39 c0       	rjmp	.+114    	; 0x1c30 <.L95>

00001bbe <.L172>:
    1bbe:	8e 01       	movw	r16, r28
    1bc0:	0c 5b       	subi	r16, 0xBC	; 188
    1bc2:	1f 4f       	sbci	r17, 0xFF	; 255
    1bc4:	ce 01       	movw	r24, r28
    1bc6:	80 5c       	subi	r24, 0xC0	; 192
    1bc8:	9f 4f       	sbci	r25, 0xFF	; 255
    1bca:	dc 01       	movw	r26, r24
    1bcc:	6d 91       	ld	r22, X+
    1bce:	7d 91       	ld	r23, X+
    1bd0:	8d 91       	ld	r24, X+
    1bd2:	9c 91       	ld	r25, X
    1bd4:	0e 94 31 26 	call	0x4c62	; 0x4c62 <__fixunssfsi>
    1bd8:	c2 59       	subi	r28, 0x92	; 146
    1bda:	de 4f       	sbci	r29, 0xFE	; 254
    1bdc:	68 83       	st	Y, r22
    1bde:	79 83       	std	Y+1, r23	; 0x01
    1be0:	8a 83       	std	Y+2, r24	; 0x02
    1be2:	9b 83       	std	Y+3, r25	; 0x03
    1be4:	ce 56       	subi	r28, 0x6E	; 110
    1be6:	d1 40       	sbci	r29, 0x01	; 1
    1be8:	c2 59       	subi	r28, 0x92	; 146
    1bea:	de 4f       	sbci	r29, 0xFE	; 254
    1bec:	88 81       	ld	r24, Y
    1bee:	99 81       	ldd	r25, Y+1	; 0x01
    1bf0:	ce 56       	subi	r28, 0x6E	; 110
    1bf2:	d1 40       	sbci	r29, 0x01	; 1
    1bf4:	f8 01       	movw	r30, r16
    1bf6:	91 83       	std	Z+1, r25	; 0x01
    1bf8:	80 83       	st	Z, r24

00001bfa <.L90>:
    1bfa:	ce 01       	movw	r24, r28
    1bfc:	88 5b       	subi	r24, 0xB8	; 184
    1bfe:	9f 4f       	sbci	r25, 0xFF	; 255
    1c00:	9e 01       	movw	r18, r28
    1c02:	2c 5b       	subi	r18, 0xBC	; 188
    1c04:	3f 4f       	sbci	r19, 0xFF	; 255
    1c06:	d9 01       	movw	r26, r18
    1c08:	2d 91       	ld	r18, X+
    1c0a:	3c 91       	ld	r19, X
    1c0c:	fc 01       	movw	r30, r24
    1c0e:	31 83       	std	Z+1, r19	; 0x01
    1c10:	20 83       	st	Z, r18

00001c12 <.LM179>:
    1c12:	ce 01       	movw	r24, r28
    1c14:	88 5b       	subi	r24, 0xB8	; 184
    1c16:	9f 4f       	sbci	r25, 0xFF	; 255
    1c18:	dc 01       	movw	r26, r24
    1c1a:	8d 91       	ld	r24, X+
    1c1c:	9c 91       	ld	r25, X

00001c1e <.L1^B20>:
    1c1e:	01 97       	sbiw	r24, 0x01	; 1
    1c20:	f1 f7       	brne	.-4      	; 0x1c1e <.L1^B20>
    1c22:	9e 01       	movw	r18, r28
    1c24:	28 5b       	subi	r18, 0xB8	; 184
    1c26:	3f 4f       	sbci	r19, 0xFF	; 255
    1c28:	f9 01       	movw	r30, r18
    1c2a:	91 83       	std	Z+1, r25	; 0x01
    1c2c:	80 83       	st	Z, r24

00001c2e <.LM180>:
	...

00001c30 <.L95>:
    1c30:	6a c0       	rjmp	.+212    	; 0x1d06 <.L96>

00001c32 <.L170>:
    1c32:	20 e0       	ldi	r18, 0x00	; 0
    1c34:	30 e0       	ldi	r19, 0x00	; 0
    1c36:	4f e7       	ldi	r20, 0x7F	; 127
    1c38:	53 e4       	ldi	r21, 0x43	; 67
    1c3a:	6b a9       	ldd	r22, Y+51	; 0x33
    1c3c:	7c a9       	ldd	r23, Y+52	; 0x34
    1c3e:	8d a9       	ldd	r24, Y+53	; 0x35
    1c40:	9e a9       	ldd	r25, Y+54	; 0x36
    1c42:	0e 94 d5 26 	call	0x4daa	; 0x4daa <__gesf2>
    1c46:	18 16       	cp	r1, r24
    1c48:	b4 f5       	brge	.+108    	; 0x1cb6 <.L173>

00001c4a <.LM183>:
    1c4a:	8e 01       	movw	r16, r28
    1c4c:	06 5b       	subi	r16, 0xB6	; 182
    1c4e:	1f 4f       	sbci	r17, 0xFF	; 255
    1c50:	6f a9       	ldd	r22, Y+55	; 0x37
    1c52:	78 ad       	ldd	r23, Y+56	; 0x38
    1c54:	89 ad       	ldd	r24, Y+57	; 0x39
    1c56:	9a ad       	ldd	r25, Y+58	; 0x3a
    1c58:	0e 94 31 26 	call	0x4c62	; 0x4c62 <__fixunssfsi>
    1c5c:	ce 58       	subi	r28, 0x8E	; 142
    1c5e:	de 4f       	sbci	r29, 0xFE	; 254
    1c60:	68 83       	st	Y, r22
    1c62:	79 83       	std	Y+1, r23	; 0x01
    1c64:	8a 83       	std	Y+2, r24	; 0x02
    1c66:	9b 83       	std	Y+3, r25	; 0x03
    1c68:	c2 57       	subi	r28, 0x72	; 114
    1c6a:	d1 40       	sbci	r29, 0x01	; 1
    1c6c:	ce 58       	subi	r28, 0x8E	; 142
    1c6e:	de 4f       	sbci	r29, 0xFE	; 254
    1c70:	e8 81       	ld	r30, Y
    1c72:	f9 81       	ldd	r31, Y+1	; 0x01
    1c74:	c2 57       	subi	r28, 0x72	; 114
    1c76:	d1 40       	sbci	r29, 0x01	; 1
    1c78:	d8 01       	movw	r26, r16
    1c7a:	ed 93       	st	X+, r30
    1c7c:	fc 93       	st	X, r31
    1c7e:	ce 01       	movw	r24, r28
    1c80:	84 5b       	subi	r24, 0xB4	; 180
    1c82:	9f 4f       	sbci	r25, 0xFF	; 255
    1c84:	9e 01       	movw	r18, r28
    1c86:	26 5b       	subi	r18, 0xB6	; 182
    1c88:	3f 4f       	sbci	r19, 0xFF	; 255
    1c8a:	d9 01       	movw	r26, r18
    1c8c:	2d 91       	ld	r18, X+
    1c8e:	3c 91       	ld	r19, X
    1c90:	fc 01       	movw	r30, r24
    1c92:	31 83       	std	Z+1, r19	; 0x01
    1c94:	20 83       	st	Z, r18

00001c96 <.LM184>:
    1c96:	ce 01       	movw	r24, r28
    1c98:	84 5b       	subi	r24, 0xB4	; 180
    1c9a:	9f 4f       	sbci	r25, 0xFF	; 255
    1c9c:	dc 01       	movw	r26, r24
    1c9e:	8d 91       	ld	r24, X+
    1ca0:	9c 91       	ld	r25, X

00001ca2 <.L1^B21>:
    1ca2:	01 97       	sbiw	r24, 0x01	; 1
    1ca4:	f1 f7       	brne	.-4      	; 0x1ca2 <.L1^B21>
    1ca6:	9e 01       	movw	r18, r28
    1ca8:	24 5b       	subi	r18, 0xB4	; 180
    1caa:	3f 4f       	sbci	r19, 0xFF	; 255
    1cac:	f9 01       	movw	r30, r18
    1cae:	91 83       	std	Z+1, r25	; 0x01
    1cb0:	80 83       	st	Z, r24

00001cb2 <.LM185>:
	...

00001cb4 <.LM186>:
    1cb4:	28 c0       	rjmp	.+80     	; 0x1d06 <.L96>

00001cb6 <.L173>:
    1cb6:	6b a9       	ldd	r22, Y+51	; 0x33
    1cb8:	7c a9       	ldd	r23, Y+52	; 0x34
    1cba:	8d a9       	ldd	r24, Y+53	; 0x35
    1cbc:	9e a9       	ldd	r25, Y+54	; 0x36
    1cbe:	0e 94 31 26 	call	0x4c62	; 0x4c62 <__fixunssfsi>
    1cc2:	ca 58       	subi	r28, 0x8A	; 138
    1cc4:	de 4f       	sbci	r29, 0xFE	; 254
    1cc6:	68 83       	st	Y, r22
    1cc8:	79 83       	std	Y+1, r23	; 0x01
    1cca:	8a 83       	std	Y+2, r24	; 0x02
    1ccc:	9b 83       	std	Y+3, r25	; 0x03
    1cce:	c6 57       	subi	r28, 0x76	; 118
    1cd0:	d1 40       	sbci	r29, 0x01	; 1
    1cd2:	ca 58       	subi	r28, 0x8A	; 138
    1cd4:	de 4f       	sbci	r29, 0xFE	; 254
    1cd6:	f8 81       	ld	r31, Y
    1cd8:	c6 57       	subi	r28, 0x76	; 118
    1cda:	d1 40       	sbci	r29, 0x01	; 1
    1cdc:	fb af       	std	Y+59, r31	; 0x3b

00001cde <.L85>:
    1cde:	ce 01       	movw	r24, r28
    1ce0:	82 5b       	subi	r24, 0xB2	; 178
    1ce2:	9f 4f       	sbci	r25, 0xFF	; 255
    1ce4:	2b ad       	ldd	r18, Y+59	; 0x3b
    1ce6:	dc 01       	movw	r26, r24
    1ce8:	2c 93       	st	X, r18

00001cea <.LM188>:
    1cea:	ce 01       	movw	r24, r28
    1cec:	82 5b       	subi	r24, 0xB2	; 178
    1cee:	9f 4f       	sbci	r25, 0xFF	; 255
    1cf0:	fc 01       	movw	r30, r24
    1cf2:	80 81       	ld	r24, Z
    1cf4:	28 2f       	mov	r18, r24

00001cf6 <.L1^B22>:
    1cf6:	2a 95       	dec	r18
    1cf8:	f1 f7       	brne	.-4      	; 0x1cf6 <.L1^B22>
    1cfa:	ce 01       	movw	r24, r28
    1cfc:	82 5b       	subi	r24, 0xB2	; 178
    1cfe:	9f 4f       	sbci	r25, 0xFF	; 255
    1d00:	dc 01       	movw	r26, r24
    1d02:	2c 93       	st	X, r18

00001d04 <.LM189>:
	...

00001d06 <.L96>:
    1d06:	ce 01       	movw	r24, r28
    1d08:	83 54       	subi	r24, 0x43	; 67
    1d0a:	9f 4f       	sbci	r25, 0xFF	; 255
    1d0c:	fc 01       	movw	r30, r24
    1d0e:	80 81       	ld	r24, Z
    1d10:	81 70       	andi	r24, 0x01	; 1
    1d12:	48 2f       	mov	r20, r24
    1d14:	63 e0       	ldi	r22, 0x03	; 3
    1d16:	80 e0       	ldi	r24, 0x00	; 0
    1d18:	0e 94 66 01 	call	0x2cc	; 0x2cc <GPIO_writePin>

00001d1c <.LM191>:
    1d1c:	ce 01       	movw	r24, r28
    1d1e:	83 54       	subi	r24, 0x43	; 67
    1d20:	9f 4f       	sbci	r25, 0xFF	; 255
    1d22:	dc 01       	movw	r26, r24
    1d24:	8c 91       	ld	r24, X
    1d26:	86 95       	lsr	r24

00001d28 <.LM192>:
    1d28:	81 70       	andi	r24, 0x01	; 1
    1d2a:	48 2f       	mov	r20, r24
    1d2c:	64 e0       	ldi	r22, 0x04	; 4
    1d2e:	80 e0       	ldi	r24, 0x00	; 0
    1d30:	0e 94 66 01 	call	0x2cc	; 0x2cc <GPIO_writePin>

00001d34 <.LM193>:
    1d34:	ce 01       	movw	r24, r28
    1d36:	83 54       	subi	r24, 0x43	; 67
    1d38:	9f 4f       	sbci	r25, 0xFF	; 255
    1d3a:	fc 01       	movw	r30, r24
    1d3c:	80 81       	ld	r24, Z
    1d3e:	86 95       	lsr	r24
    1d40:	86 95       	lsr	r24

00001d42 <.LM194>:
    1d42:	81 70       	andi	r24, 0x01	; 1
    1d44:	48 2f       	mov	r20, r24
    1d46:	65 e0       	ldi	r22, 0x05	; 5
    1d48:	80 e0       	ldi	r24, 0x00	; 0
    1d4a:	0e 94 66 01 	call	0x2cc	; 0x2cc <GPIO_writePin>

00001d4e <.LM195>:
    1d4e:	ce 01       	movw	r24, r28
    1d50:	83 54       	subi	r24, 0x43	; 67
    1d52:	9f 4f       	sbci	r25, 0xFF	; 255
    1d54:	dc 01       	movw	r26, r24
    1d56:	8c 91       	ld	r24, X
    1d58:	86 95       	lsr	r24
    1d5a:	86 95       	lsr	r24
    1d5c:	86 95       	lsr	r24

00001d5e <.LM196>:
    1d5e:	81 70       	andi	r24, 0x01	; 1
    1d60:	48 2f       	mov	r20, r24
    1d62:	66 e0       	ldi	r22, 0x06	; 6
    1d64:	80 e0       	ldi	r24, 0x00	; 0
    1d66:	0e 94 66 01 	call	0x2cc	; 0x2cc <GPIO_writePin>
    1d6a:	80 e0       	ldi	r24, 0x00	; 0
    1d6c:	90 e0       	ldi	r25, 0x00	; 0
    1d6e:	a0 e8       	ldi	r26, 0x80	; 128
    1d70:	bf e3       	ldi	r27, 0x3F	; 63
    1d72:	89 a3       	std	Y+33, r24	; 0x21
    1d74:	9a a3       	std	Y+34, r25	; 0x22
    1d76:	ab a3       	std	Y+35, r26	; 0x23
    1d78:	bc a3       	std	Y+36, r27	; 0x24

00001d7a <.LM197>:
    1d7a:	20 e0       	ldi	r18, 0x00	; 0
    1d7c:	30 e0       	ldi	r19, 0x00	; 0
    1d7e:	4a e7       	ldi	r20, 0x7A	; 122
    1d80:	55 e4       	ldi	r21, 0x45	; 69
    1d82:	69 a1       	ldd	r22, Y+33	; 0x21
    1d84:	7a a1       	ldd	r23, Y+34	; 0x22
    1d86:	8b a1       	ldd	r24, Y+35	; 0x23
    1d88:	9c a1       	ldd	r25, Y+36	; 0x24
    1d8a:	0e 94 da 26 	call	0x4db4	; 0x4db4 <__mulsf3>
    1d8e:	c6 58       	subi	r28, 0x86	; 134
    1d90:	de 4f       	sbci	r29, 0xFE	; 254
    1d92:	68 83       	st	Y, r22
    1d94:	79 83       	std	Y+1, r23	; 0x01
    1d96:	8a 83       	std	Y+2, r24	; 0x02
    1d98:	9b 83       	std	Y+3, r25	; 0x03
    1d9a:	ca 57       	subi	r28, 0x7A	; 122
    1d9c:	d1 40       	sbci	r29, 0x01	; 1
    1d9e:	c6 58       	subi	r28, 0x86	; 134
    1da0:	de 4f       	sbci	r29, 0xFE	; 254
    1da2:	88 81       	ld	r24, Y
    1da4:	99 81       	ldd	r25, Y+1	; 0x01
    1da6:	aa 81       	ldd	r26, Y+2	; 0x02
    1da8:	bb 81       	ldd	r27, Y+3	; 0x03
    1daa:	ca 57       	subi	r28, 0x7A	; 122
    1dac:	d1 40       	sbci	r29, 0x01	; 1
    1dae:	8d a3       	std	Y+37, r24	; 0x25
    1db0:	9e a3       	std	Y+38, r25	; 0x26
    1db2:	af a3       	std	Y+39, r26	; 0x27
    1db4:	b8 a7       	std	Y+40, r27	; 0x28

00001db6 <.LM198>:
    1db6:	20 e0       	ldi	r18, 0x00	; 0
    1db8:	30 e0       	ldi	r19, 0x00	; 0
    1dba:	40 e8       	ldi	r20, 0x80	; 128
    1dbc:	5f e3       	ldi	r21, 0x3F	; 63
    1dbe:	6d a1       	ldd	r22, Y+37	; 0x25
    1dc0:	7e a1       	ldd	r23, Y+38	; 0x26
    1dc2:	8f a1       	ldd	r24, Y+39	; 0x27
    1dc4:	98 a5       	ldd	r25, Y+40	; 0x28
    1dc6:	0e 94 ba 25 	call	0x4b74	; 0x4b74 <__cmpsf2>
    1dca:	88 23       	and	r24, r24
    1dcc:	2c f4       	brge	.+10     	; 0x1dd8 <.L174>

00001dce <.LM199>:
    1dce:	81 e0       	ldi	r24, 0x01	; 1
    1dd0:	90 e0       	ldi	r25, 0x00	; 0
    1dd2:	9a a7       	std	Y+42, r25	; 0x2a
    1dd4:	89 a7       	std	Y+41, r24	; 0x29
    1dd6:	75 c0       	rjmp	.+234    	; 0x1ec2 <.L101>

00001dd8 <.L174>:
    1dd8:	20 e0       	ldi	r18, 0x00	; 0
    1dda:	3f ef       	ldi	r19, 0xFF	; 255
    1ddc:	4f e7       	ldi	r20, 0x7F	; 127
    1dde:	57 e4       	ldi	r21, 0x47	; 71
    1de0:	6d a1       	ldd	r22, Y+37	; 0x25
    1de2:	7e a1       	ldd	r23, Y+38	; 0x26
    1de4:	8f a1       	ldd	r24, Y+39	; 0x27
    1de6:	98 a5       	ldd	r25, Y+40	; 0x28
    1de8:	0e 94 d5 26 	call	0x4daa	; 0x4daa <__gesf2>
    1dec:	18 16       	cp	r1, r24
    1dee:	0c f0       	brlt	.+2      	; 0x1df2 <.LM201>

00001df0 <L0^A>:
    1df0:	52 c0       	rjmp	.+164    	; 0x1e96 <.L175>

00001df2 <.LM201>:
    1df2:	20 e0       	ldi	r18, 0x00	; 0
    1df4:	30 e0       	ldi	r19, 0x00	; 0
    1df6:	40 e2       	ldi	r20, 0x20	; 32
    1df8:	51 e4       	ldi	r21, 0x41	; 65
    1dfa:	69 a1       	ldd	r22, Y+33	; 0x21
    1dfc:	7a a1       	ldd	r23, Y+34	; 0x22
    1dfe:	8b a1       	ldd	r24, Y+35	; 0x23
    1e00:	9c a1       	ldd	r25, Y+36	; 0x24
    1e02:	0e 94 da 26 	call	0x4db4	; 0x4db4 <__mulsf3>
    1e06:	c2 58       	subi	r28, 0x82	; 130
    1e08:	de 4f       	sbci	r29, 0xFE	; 254
    1e0a:	68 83       	st	Y, r22
    1e0c:	79 83       	std	Y+1, r23	; 0x01
    1e0e:	8a 83       	std	Y+2, r24	; 0x02
    1e10:	9b 83       	std	Y+3, r25	; 0x03
    1e12:	ce 57       	subi	r28, 0x7E	; 126
    1e14:	d1 40       	sbci	r29, 0x01	; 1
    1e16:	c2 58       	subi	r28, 0x82	; 130
    1e18:	de 4f       	sbci	r29, 0xFE	; 254
    1e1a:	88 81       	ld	r24, Y
    1e1c:	99 81       	ldd	r25, Y+1	; 0x01
    1e1e:	aa 81       	ldd	r26, Y+2	; 0x02
    1e20:	bb 81       	ldd	r27, Y+3	; 0x03
    1e22:	ce 57       	subi	r28, 0x7E	; 126
    1e24:	d1 40       	sbci	r29, 0x01	; 1
    1e26:	ce 53       	subi	r28, 0x3E	; 62
    1e28:	df 4f       	sbci	r29, 0xFF	; 255
    1e2a:	88 83       	st	Y, r24
    1e2c:	99 83       	std	Y+1, r25	; 0x01
    1e2e:	aa 83       	std	Y+2, r26	; 0x02
    1e30:	bb 83       	std	Y+3, r27	; 0x03
    1e32:	c2 5c       	subi	r28, 0xC2	; 194
    1e34:	d0 40       	sbci	r29, 0x00	; 0

00001e36 <.LM202>:
    1e36:	ce 53       	subi	r28, 0x3E	; 62
    1e38:	df 4f       	sbci	r29, 0xFF	; 255
    1e3a:	68 81       	ld	r22, Y
    1e3c:	79 81       	ldd	r23, Y+1	; 0x01
    1e3e:	8a 81       	ldd	r24, Y+2	; 0x02
    1e40:	9b 81       	ldd	r25, Y+3	; 0x03
    1e42:	c2 5c       	subi	r28, 0xC2	; 194
    1e44:	d0 40       	sbci	r29, 0x00	; 0
    1e46:	0e 94 31 26 	call	0x4c62	; 0x4c62 <__fixunssfsi>
    1e4a:	ce 57       	subi	r28, 0x7E	; 126
    1e4c:	de 4f       	sbci	r29, 0xFE	; 254
    1e4e:	68 83       	st	Y, r22
    1e50:	79 83       	std	Y+1, r23	; 0x01
    1e52:	8a 83       	std	Y+2, r24	; 0x02
    1e54:	9b 83       	std	Y+3, r25	; 0x03
    1e56:	c2 58       	subi	r28, 0x82	; 130
    1e58:	d1 40       	sbci	r29, 0x01	; 1
    1e5a:	ce 57       	subi	r28, 0x7E	; 126
    1e5c:	de 4f       	sbci	r29, 0xFE	; 254
    1e5e:	a8 81       	ld	r26, Y
    1e60:	b9 81       	ldd	r27, Y+1	; 0x01
    1e62:	c2 58       	subi	r28, 0x82	; 130
    1e64:	d1 40       	sbci	r29, 0x01	; 1
    1e66:	ba a7       	std	Y+42, r27	; 0x2a
    1e68:	a9 a7       	std	Y+41, r26	; 0x29

00001e6a <.LM203>:
    1e6a:	10 c0       	rjmp	.+32     	; 0x1e8c <.L104>

00001e6c <.L105>:
    1e6c:	80 e9       	ldi	r24, 0x90	; 144
    1e6e:	91 e0       	ldi	r25, 0x01	; 1
    1e70:	9c a7       	std	Y+44, r25	; 0x2c
    1e72:	8b a7       	std	Y+43, r24	; 0x2b

00001e74 <.LM204>:
    1e74:	8b a5       	ldd	r24, Y+43	; 0x2b
    1e76:	9c a5       	ldd	r25, Y+44	; 0x2c

00001e78 <.L1^B23>:
    1e78:	01 97       	sbiw	r24, 0x01	; 1
    1e7a:	f1 f7       	brne	.-4      	; 0x1e78 <.L1^B23>
    1e7c:	9c a7       	std	Y+44, r25	; 0x2c
    1e7e:	8b a7       	std	Y+43, r24	; 0x2b

00001e80 <.LM205>:
	...

00001e82 <.LM206>:
    1e82:	89 a5       	ldd	r24, Y+41	; 0x29
    1e84:	9a a5       	ldd	r25, Y+42	; 0x2a
    1e86:	01 97       	sbiw	r24, 0x01	; 1
    1e88:	9a a7       	std	Y+42, r25	; 0x2a
    1e8a:	89 a7       	std	Y+41, r24	; 0x29

00001e8c <.L104>:
    1e8c:	89 a5       	ldd	r24, Y+41	; 0x29
    1e8e:	9a a5       	ldd	r25, Y+42	; 0x2a
    1e90:	89 2b       	or	r24, r25
    1e92:	61 f7       	brne	.-40     	; 0x1e6c <.L105>

00001e94 <.LM208>:
    1e94:	21 c0       	rjmp	.+66     	; 0x1ed8 <.L106>

00001e96 <.L175>:
    1e96:	6d a1       	ldd	r22, Y+37	; 0x25
    1e98:	7e a1       	ldd	r23, Y+38	; 0x26
    1e9a:	8f a1       	ldd	r24, Y+39	; 0x27
    1e9c:	98 a5       	ldd	r25, Y+40	; 0x28
    1e9e:	0e 94 31 26 	call	0x4c62	; 0x4c62 <__fixunssfsi>
    1ea2:	ca 57       	subi	r28, 0x7A	; 122
    1ea4:	de 4f       	sbci	r29, 0xFE	; 254
    1ea6:	68 83       	st	Y, r22
    1ea8:	79 83       	std	Y+1, r23	; 0x01
    1eaa:	8a 83       	std	Y+2, r24	; 0x02
    1eac:	9b 83       	std	Y+3, r25	; 0x03
    1eae:	c6 58       	subi	r28, 0x86	; 134
    1eb0:	d1 40       	sbci	r29, 0x01	; 1
    1eb2:	ca 57       	subi	r28, 0x7A	; 122
    1eb4:	de 4f       	sbci	r29, 0xFE	; 254
    1eb6:	e8 81       	ld	r30, Y
    1eb8:	f9 81       	ldd	r31, Y+1	; 0x01
    1eba:	c6 58       	subi	r28, 0x86	; 134
    1ebc:	d1 40       	sbci	r29, 0x01	; 1
    1ebe:	fa a7       	std	Y+42, r31	; 0x2a
    1ec0:	e9 a7       	std	Y+41, r30	; 0x29

00001ec2 <.L101>:
    1ec2:	89 a5       	ldd	r24, Y+41	; 0x29
    1ec4:	9a a5       	ldd	r25, Y+42	; 0x2a
    1ec6:	9e a7       	std	Y+46, r25	; 0x2e
    1ec8:	8d a7       	std	Y+45, r24	; 0x2d

00001eca <.LM210>:
    1eca:	8d a5       	ldd	r24, Y+45	; 0x2d
    1ecc:	9e a5       	ldd	r25, Y+46	; 0x2e

00001ece <.L1^B24>:
    1ece:	01 97       	sbiw	r24, 0x01	; 1
    1ed0:	f1 f7       	brne	.-4      	; 0x1ece <.L1^B24>
    1ed2:	9e a7       	std	Y+46, r25	; 0x2e
    1ed4:	8d a7       	std	Y+45, r24	; 0x2d

00001ed6 <.LM211>:
	...

00001ed8 <.L106>:
    1ed8:	40 e0       	ldi	r20, 0x00	; 0
    1eda:	62 e0       	ldi	r22, 0x02	; 2
    1edc:	80 e0       	ldi	r24, 0x00	; 0
    1ede:	0e 94 66 01 	call	0x2cc	; 0x2cc <GPIO_writePin>
    1ee2:	80 e0       	ldi	r24, 0x00	; 0
    1ee4:	90 e0       	ldi	r25, 0x00	; 0
    1ee6:	a0 e8       	ldi	r26, 0x80	; 128
    1ee8:	bf e3       	ldi	r27, 0x3F	; 63
    1eea:	89 83       	std	Y+1, r24	; 0x01
    1eec:	9a 83       	std	Y+2, r25	; 0x02
    1eee:	ab 83       	std	Y+3, r26	; 0x03
    1ef0:	bc 83       	std	Y+4, r27	; 0x04

00001ef2 <.LM213>:
    1ef2:	2b ea       	ldi	r18, 0xAB	; 171
    1ef4:	3a ea       	ldi	r19, 0xAA	; 170
    1ef6:	4a ea       	ldi	r20, 0xAA	; 170
    1ef8:	50 e4       	ldi	r21, 0x40	; 64
    1efa:	69 81       	ldd	r22, Y+1	; 0x01
    1efc:	7a 81       	ldd	r23, Y+2	; 0x02
    1efe:	8b 81       	ldd	r24, Y+3	; 0x03
    1f00:	9c 81       	ldd	r25, Y+4	; 0x04
    1f02:	0e 94 da 26 	call	0x4db4	; 0x4db4 <__mulsf3>
    1f06:	c6 57       	subi	r28, 0x76	; 118
    1f08:	de 4f       	sbci	r29, 0xFE	; 254
    1f0a:	68 83       	st	Y, r22
    1f0c:	79 83       	std	Y+1, r23	; 0x01
    1f0e:	8a 83       	std	Y+2, r24	; 0x02
    1f10:	9b 83       	std	Y+3, r25	; 0x03
    1f12:	ca 58       	subi	r28, 0x8A	; 138
    1f14:	d1 40       	sbci	r29, 0x01	; 1
    1f16:	c6 57       	subi	r28, 0x76	; 118
    1f18:	de 4f       	sbci	r29, 0xFE	; 254
    1f1a:	88 81       	ld	r24, Y
    1f1c:	99 81       	ldd	r25, Y+1	; 0x01
    1f1e:	aa 81       	ldd	r26, Y+2	; 0x02
    1f20:	bb 81       	ldd	r27, Y+3	; 0x03
    1f22:	ca 58       	subi	r28, 0x8A	; 138
    1f24:	d1 40       	sbci	r29, 0x01	; 1
    1f26:	8d 83       	std	Y+5, r24	; 0x05
    1f28:	9e 83       	std	Y+6, r25	; 0x06
    1f2a:	af 83       	std	Y+7, r26	; 0x07
    1f2c:	b8 87       	std	Y+8, r27	; 0x08

00001f2e <.LM214>:
    1f2e:	20 e0       	ldi	r18, 0x00	; 0
    1f30:	30 e0       	ldi	r19, 0x00	; 0
    1f32:	40 e8       	ldi	r20, 0x80	; 128
    1f34:	50 e4       	ldi	r21, 0x40	; 64
    1f36:	69 81       	ldd	r22, Y+1	; 0x01
    1f38:	7a 81       	ldd	r23, Y+2	; 0x02
    1f3a:	8b 81       	ldd	r24, Y+3	; 0x03
    1f3c:	9c 81       	ldd	r25, Y+4	; 0x04
    1f3e:	0e 94 da 26 	call	0x4db4	; 0x4db4 <__mulsf3>
    1f42:	c2 57       	subi	r28, 0x72	; 114
    1f44:	de 4f       	sbci	r29, 0xFE	; 254
    1f46:	68 83       	st	Y, r22
    1f48:	79 83       	std	Y+1, r23	; 0x01
    1f4a:	8a 83       	std	Y+2, r24	; 0x02
    1f4c:	9b 83       	std	Y+3, r25	; 0x03
    1f4e:	ce 58       	subi	r28, 0x8E	; 142
    1f50:	d1 40       	sbci	r29, 0x01	; 1
    1f52:	c2 57       	subi	r28, 0x72	; 114
    1f54:	de 4f       	sbci	r29, 0xFE	; 254
    1f56:	88 81       	ld	r24, Y
    1f58:	99 81       	ldd	r25, Y+1	; 0x01
    1f5a:	aa 81       	ldd	r26, Y+2	; 0x02
    1f5c:	bb 81       	ldd	r27, Y+3	; 0x03
    1f5e:	ce 58       	subi	r28, 0x8E	; 142
    1f60:	d1 40       	sbci	r29, 0x01	; 1
    1f62:	89 87       	std	Y+9, r24	; 0x09
    1f64:	9a 87       	std	Y+10, r25	; 0x0a
    1f66:	ab 87       	std	Y+11, r26	; 0x0b
    1f68:	bc 87       	std	Y+12, r27	; 0x0c

00001f6a <.LM215>:
    1f6a:	20 e0       	ldi	r18, 0x00	; 0
    1f6c:	30 e0       	ldi	r19, 0x00	; 0
    1f6e:	40 e8       	ldi	r20, 0x80	; 128
    1f70:	5f e3       	ldi	r21, 0x3F	; 63
    1f72:	6d 81       	ldd	r22, Y+5	; 0x05
    1f74:	7e 81       	ldd	r23, Y+6	; 0x06
    1f76:	8f 81       	ldd	r24, Y+7	; 0x07
    1f78:	98 85       	ldd	r25, Y+8	; 0x08
    1f7a:	0e 94 ba 25 	call	0x4b74	; 0x4b74 <__cmpsf2>
    1f7e:	88 23       	and	r24, r24
    1f80:	1c f4       	brge	.+6      	; 0x1f88 <.L176>

00001f82 <.LM216>:
    1f82:	81 e0       	ldi	r24, 0x01	; 1
    1f84:	8d 87       	std	Y+13, r24	; 0x0d
    1f86:	1d c1       	rjmp	.+570    	; 0x21c2 <.L109>

00001f88 <.L176>:
    1f88:	20 e0       	ldi	r18, 0x00	; 0
    1f8a:	3f ef       	ldi	r19, 0xFF	; 255
    1f8c:	4f e7       	ldi	r20, 0x7F	; 127
    1f8e:	57 e4       	ldi	r21, 0x47	; 71
    1f90:	69 85       	ldd	r22, Y+9	; 0x09
    1f92:	7a 85       	ldd	r23, Y+10	; 0x0a
    1f94:	8b 85       	ldd	r24, Y+11	; 0x0b
    1f96:	9c 85       	ldd	r25, Y+12	; 0x0c
    1f98:	0e 94 d5 26 	call	0x4daa	; 0x4daa <__gesf2>
    1f9c:	18 16       	cp	r1, r24
    1f9e:	0c f0       	brlt	.+2      	; 0x1fa2 <.LM218>

00001fa0 <L0^A>:
    1fa0:	ce c0       	rjmp	.+412    	; 0x213e <.L177>

00001fa2 <.LM218>:
    1fa2:	20 e0       	ldi	r18, 0x00	; 0
    1fa4:	30 e0       	ldi	r19, 0x00	; 0
    1fa6:	4a e7       	ldi	r20, 0x7A	; 122
    1fa8:	54 e4       	ldi	r21, 0x44	; 68
    1faa:	69 81       	ldd	r22, Y+1	; 0x01
    1fac:	7a 81       	ldd	r23, Y+2	; 0x02
    1fae:	8b 81       	ldd	r24, Y+3	; 0x03
    1fb0:	9c 81       	ldd	r25, Y+4	; 0x04
    1fb2:	0e 94 bf 25 	call	0x4b7e	; 0x4b7e <__divsf3>
    1fb6:	ce 56       	subi	r28, 0x6E	; 110
    1fb8:	de 4f       	sbci	r29, 0xFE	; 254
    1fba:	68 83       	st	Y, r22
    1fbc:	79 83       	std	Y+1, r23	; 0x01
    1fbe:	8a 83       	std	Y+2, r24	; 0x02
    1fc0:	9b 83       	std	Y+3, r25	; 0x03
    1fc2:	c2 59       	subi	r28, 0x92	; 146
    1fc4:	d1 40       	sbci	r29, 0x01	; 1
    1fc6:	ce 56       	subi	r28, 0x6E	; 110
    1fc8:	de 4f       	sbci	r29, 0xFE	; 254
    1fca:	88 81       	ld	r24, Y
    1fcc:	99 81       	ldd	r25, Y+1	; 0x01
    1fce:	aa 81       	ldd	r26, Y+2	; 0x02
    1fd0:	bb 81       	ldd	r27, Y+3	; 0x03
    1fd2:	c2 59       	subi	r28, 0x92	; 146
    1fd4:	d1 40       	sbci	r29, 0x01	; 1
    1fd6:	8e 87       	std	Y+14, r24	; 0x0e
    1fd8:	9f 87       	std	Y+15, r25	; 0x0f
    1fda:	a8 8b       	std	Y+16, r26	; 0x10
    1fdc:	b9 8b       	std	Y+17, r27	; 0x11

00001fde <.LM219>:
    1fde:	20 e0       	ldi	r18, 0x00	; 0
    1fe0:	30 e0       	ldi	r19, 0x00	; 0
    1fe2:	4a e7       	ldi	r20, 0x7A	; 122
    1fe4:	55 e4       	ldi	r21, 0x45	; 69
    1fe6:	6e 85       	ldd	r22, Y+14	; 0x0e
    1fe8:	7f 85       	ldd	r23, Y+15	; 0x0f
    1fea:	88 89       	ldd	r24, Y+16	; 0x10
    1fec:	99 89       	ldd	r25, Y+17	; 0x11
    1fee:	0e 94 da 26 	call	0x4db4	; 0x4db4 <__mulsf3>
    1ff2:	ca 56       	subi	r28, 0x6A	; 106
    1ff4:	de 4f       	sbci	r29, 0xFE	; 254
    1ff6:	68 83       	st	Y, r22
    1ff8:	79 83       	std	Y+1, r23	; 0x01
    1ffa:	8a 83       	std	Y+2, r24	; 0x02
    1ffc:	9b 83       	std	Y+3, r25	; 0x03
    1ffe:	c6 59       	subi	r28, 0x96	; 150
    2000:	d1 40       	sbci	r29, 0x01	; 1
    2002:	ca 56       	subi	r28, 0x6A	; 106
    2004:	de 4f       	sbci	r29, 0xFE	; 254
    2006:	88 81       	ld	r24, Y
    2008:	99 81       	ldd	r25, Y+1	; 0x01
    200a:	aa 81       	ldd	r26, Y+2	; 0x02
    200c:	bb 81       	ldd	r27, Y+3	; 0x03
    200e:	c6 59       	subi	r28, 0x96	; 150
    2010:	d1 40       	sbci	r29, 0x01	; 1
    2012:	8a 8b       	std	Y+18, r24	; 0x12
    2014:	9b 8b       	std	Y+19, r25	; 0x13
    2016:	ac 8b       	std	Y+20, r26	; 0x14
    2018:	bd 8b       	std	Y+21, r27	; 0x15

0000201a <.LM220>:
    201a:	20 e0       	ldi	r18, 0x00	; 0
    201c:	30 e0       	ldi	r19, 0x00	; 0
    201e:	40 e8       	ldi	r20, 0x80	; 128
    2020:	5f e3       	ldi	r21, 0x3F	; 63
    2022:	6a 89       	ldd	r22, Y+18	; 0x12
    2024:	7b 89       	ldd	r23, Y+19	; 0x13
    2026:	8c 89       	ldd	r24, Y+20	; 0x14
    2028:	9d 89       	ldd	r25, Y+21	; 0x15
    202a:	0e 94 ba 25 	call	0x4b74	; 0x4b74 <__cmpsf2>
    202e:	88 23       	and	r24, r24
    2030:	2c f4       	brge	.+10     	; 0x203c <.L178>

00002032 <.LM221>:
    2032:	81 e0       	ldi	r24, 0x01	; 1
    2034:	90 e0       	ldi	r25, 0x00	; 0
    2036:	9f 8b       	std	Y+23, r25	; 0x17
    2038:	8e 8b       	std	Y+22, r24	; 0x16
    203a:	75 c0       	rjmp	.+234    	; 0x2126 <.L114>

0000203c <.L178>:
    203c:	20 e0       	ldi	r18, 0x00	; 0
    203e:	3f ef       	ldi	r19, 0xFF	; 255
    2040:	4f e7       	ldi	r20, 0x7F	; 127
    2042:	57 e4       	ldi	r21, 0x47	; 71
    2044:	6a 89       	ldd	r22, Y+18	; 0x12
    2046:	7b 89       	ldd	r23, Y+19	; 0x13
    2048:	8c 89       	ldd	r24, Y+20	; 0x14
    204a:	9d 89       	ldd	r25, Y+21	; 0x15
    204c:	0e 94 d5 26 	call	0x4daa	; 0x4daa <__gesf2>
    2050:	18 16       	cp	r1, r24
    2052:	0c f0       	brlt	.+2      	; 0x2056 <.LM223>

00002054 <L0^A>:
    2054:	52 c0       	rjmp	.+164    	; 0x20fa <.L179>

00002056 <.LM223>:
    2056:	20 e0       	ldi	r18, 0x00	; 0
    2058:	30 e0       	ldi	r19, 0x00	; 0
    205a:	40 e2       	ldi	r20, 0x20	; 32
    205c:	51 e4       	ldi	r21, 0x41	; 65
    205e:	6e 85       	ldd	r22, Y+14	; 0x0e
    2060:	7f 85       	ldd	r23, Y+15	; 0x0f
    2062:	88 89       	ldd	r24, Y+16	; 0x10
    2064:	99 89       	ldd	r25, Y+17	; 0x11
    2066:	0e 94 da 26 	call	0x4db4	; 0x4db4 <__mulsf3>
    206a:	c6 56       	subi	r28, 0x66	; 102
    206c:	de 4f       	sbci	r29, 0xFE	; 254
    206e:	68 83       	st	Y, r22
    2070:	79 83       	std	Y+1, r23	; 0x01
    2072:	8a 83       	std	Y+2, r24	; 0x02
    2074:	9b 83       	std	Y+3, r25	; 0x03
    2076:	ca 59       	subi	r28, 0x9A	; 154
    2078:	d1 40       	sbci	r29, 0x01	; 1
    207a:	c6 56       	subi	r28, 0x66	; 102
    207c:	de 4f       	sbci	r29, 0xFE	; 254
    207e:	88 81       	ld	r24, Y
    2080:	99 81       	ldd	r25, Y+1	; 0x01
    2082:	aa 81       	ldd	r26, Y+2	; 0x02
    2084:	bb 81       	ldd	r27, Y+3	; 0x03
    2086:	ca 59       	subi	r28, 0x9A	; 154
    2088:	d1 40       	sbci	r29, 0x01	; 1
    208a:	c2 54       	subi	r28, 0x42	; 66
    208c:	df 4f       	sbci	r29, 0xFF	; 255
    208e:	88 83       	st	Y, r24
    2090:	99 83       	std	Y+1, r25	; 0x01
    2092:	aa 83       	std	Y+2, r26	; 0x02
    2094:	bb 83       	std	Y+3, r27	; 0x03
    2096:	ce 5b       	subi	r28, 0xBE	; 190
    2098:	d0 40       	sbci	r29, 0x00	; 0

0000209a <.LM224>:
    209a:	c2 54       	subi	r28, 0x42	; 66
    209c:	df 4f       	sbci	r29, 0xFF	; 255
    209e:	68 81       	ld	r22, Y
    20a0:	79 81       	ldd	r23, Y+1	; 0x01
    20a2:	8a 81       	ldd	r24, Y+2	; 0x02
    20a4:	9b 81       	ldd	r25, Y+3	; 0x03
    20a6:	ce 5b       	subi	r28, 0xBE	; 190
    20a8:	d0 40       	sbci	r29, 0x00	; 0
    20aa:	0e 94 31 26 	call	0x4c62	; 0x4c62 <__fixunssfsi>
    20ae:	c2 56       	subi	r28, 0x62	; 98
    20b0:	de 4f       	sbci	r29, 0xFE	; 254
    20b2:	68 83       	st	Y, r22
    20b4:	79 83       	std	Y+1, r23	; 0x01
    20b6:	8a 83       	std	Y+2, r24	; 0x02
    20b8:	9b 83       	std	Y+3, r25	; 0x03
    20ba:	ce 59       	subi	r28, 0x9E	; 158
    20bc:	d1 40       	sbci	r29, 0x01	; 1
    20be:	c2 56       	subi	r28, 0x62	; 98
    20c0:	de 4f       	sbci	r29, 0xFE	; 254
    20c2:	a8 81       	ld	r26, Y
    20c4:	b9 81       	ldd	r27, Y+1	; 0x01
    20c6:	ce 59       	subi	r28, 0x9E	; 158
    20c8:	d1 40       	sbci	r29, 0x01	; 1
    20ca:	bf 8b       	std	Y+23, r27	; 0x17
    20cc:	ae 8b       	std	Y+22, r26	; 0x16

000020ce <.LM225>:
    20ce:	10 c0       	rjmp	.+32     	; 0x20f0 <.L117>

000020d0 <.L118>:
    20d0:	80 e9       	ldi	r24, 0x90	; 144
    20d2:	91 e0       	ldi	r25, 0x01	; 1
    20d4:	99 8f       	std	Y+25, r25	; 0x19
    20d6:	88 8f       	std	Y+24, r24	; 0x18

000020d8 <.LM226>:
    20d8:	88 8d       	ldd	r24, Y+24	; 0x18
    20da:	99 8d       	ldd	r25, Y+25	; 0x19

000020dc <.L1^B25>:
    20dc:	01 97       	sbiw	r24, 0x01	; 1
    20de:	f1 f7       	brne	.-4      	; 0x20dc <.L1^B25>
    20e0:	99 8f       	std	Y+25, r25	; 0x19
    20e2:	88 8f       	std	Y+24, r24	; 0x18

000020e4 <.LM227>:
	...

000020e6 <.LM228>:
    20e6:	8e 89       	ldd	r24, Y+22	; 0x16
    20e8:	9f 89       	ldd	r25, Y+23	; 0x17
    20ea:	01 97       	sbiw	r24, 0x01	; 1
    20ec:	9f 8b       	std	Y+23, r25	; 0x17
    20ee:	8e 8b       	std	Y+22, r24	; 0x16

000020f0 <.L117>:
    20f0:	8e 89       	ldd	r24, Y+22	; 0x16
    20f2:	9f 89       	ldd	r25, Y+23	; 0x17
    20f4:	89 2b       	or	r24, r25
    20f6:	61 f7       	brne	.-40     	; 0x20d0 <.L118>

000020f8 <.LM230>:
    20f8:	21 c0       	rjmp	.+66     	; 0x213c <.L119>

000020fa <.L179>:
    20fa:	6a 89       	ldd	r22, Y+18	; 0x12
    20fc:	7b 89       	ldd	r23, Y+19	; 0x13
    20fe:	8c 89       	ldd	r24, Y+20	; 0x14
    2100:	9d 89       	ldd	r25, Y+21	; 0x15
    2102:	0e 94 31 26 	call	0x4c62	; 0x4c62 <__fixunssfsi>
    2106:	ce 55       	subi	r28, 0x5E	; 94
    2108:	de 4f       	sbci	r29, 0xFE	; 254
    210a:	68 83       	st	Y, r22
    210c:	79 83       	std	Y+1, r23	; 0x01
    210e:	8a 83       	std	Y+2, r24	; 0x02
    2110:	9b 83       	std	Y+3, r25	; 0x03
    2112:	c2 5a       	subi	r28, 0xA2	; 162
    2114:	d1 40       	sbci	r29, 0x01	; 1
    2116:	ce 55       	subi	r28, 0x5E	; 94
    2118:	de 4f       	sbci	r29, 0xFE	; 254
    211a:	e8 81       	ld	r30, Y
    211c:	f9 81       	ldd	r31, Y+1	; 0x01
    211e:	c2 5a       	subi	r28, 0xA2	; 162
    2120:	d1 40       	sbci	r29, 0x01	; 1
    2122:	ff 8b       	std	Y+23, r31	; 0x17
    2124:	ee 8b       	std	Y+22, r30	; 0x16

00002126 <.L114>:
    2126:	8e 89       	ldd	r24, Y+22	; 0x16
    2128:	9f 89       	ldd	r25, Y+23	; 0x17
    212a:	9b 8f       	std	Y+27, r25	; 0x1b
    212c:	8a 8f       	std	Y+26, r24	; 0x1a

0000212e <.LM232>:
    212e:	8a 8d       	ldd	r24, Y+26	; 0x1a
    2130:	9b 8d       	ldd	r25, Y+27	; 0x1b

00002132 <.L1^B26>:
    2132:	01 97       	sbiw	r24, 0x01	; 1
    2134:	f1 f7       	brne	.-4      	; 0x2132 <.L1^B26>
    2136:	9b 8f       	std	Y+27, r25	; 0x1b
    2138:	8a 8f       	std	Y+26, r24	; 0x1a

0000213a <.LM233>:
	...

0000213c <.L119>:
    213c:	49 c0       	rjmp	.+146    	; 0x21d0 <.L120>

0000213e <.L177>:
    213e:	20 e0       	ldi	r18, 0x00	; 0
    2140:	30 e0       	ldi	r19, 0x00	; 0
    2142:	4f e7       	ldi	r20, 0x7F	; 127
    2144:	53 e4       	ldi	r21, 0x43	; 67
    2146:	6d 81       	ldd	r22, Y+5	; 0x05
    2148:	7e 81       	ldd	r23, Y+6	; 0x06
    214a:	8f 81       	ldd	r24, Y+7	; 0x07
    214c:	98 85       	ldd	r25, Y+8	; 0x08
    214e:	0e 94 d5 26 	call	0x4daa	; 0x4daa <__gesf2>
    2152:	18 16       	cp	r1, r24
    2154:	14 f5       	brge	.+68     	; 0x219a <.L180>

00002156 <.LM236>:
    2156:	69 85       	ldd	r22, Y+9	; 0x09
    2158:	7a 85       	ldd	r23, Y+10	; 0x0a
    215a:	8b 85       	ldd	r24, Y+11	; 0x0b
    215c:	9c 85       	ldd	r25, Y+12	; 0x0c
    215e:	0e 94 31 26 	call	0x4c62	; 0x4c62 <__fixunssfsi>
    2162:	ca 55       	subi	r28, 0x5A	; 90
    2164:	de 4f       	sbci	r29, 0xFE	; 254
    2166:	68 83       	st	Y, r22
    2168:	79 83       	std	Y+1, r23	; 0x01
    216a:	8a 83       	std	Y+2, r24	; 0x02
    216c:	9b 83       	std	Y+3, r25	; 0x03
    216e:	c6 5a       	subi	r28, 0xA6	; 166
    2170:	d1 40       	sbci	r29, 0x01	; 1
    2172:	ca 55       	subi	r28, 0x5A	; 90
    2174:	de 4f       	sbci	r29, 0xFE	; 254
    2176:	88 81       	ld	r24, Y
    2178:	99 81       	ldd	r25, Y+1	; 0x01
    217a:	c6 5a       	subi	r28, 0xA6	; 166
    217c:	d1 40       	sbci	r29, 0x01	; 1
    217e:	9d 8f       	std	Y+29, r25	; 0x1d
    2180:	8c 8f       	std	Y+28, r24	; 0x1c
    2182:	8c 8d       	ldd	r24, Y+28	; 0x1c
    2184:	9d 8d       	ldd	r25, Y+29	; 0x1d
    2186:	9f 8f       	std	Y+31, r25	; 0x1f
    2188:	8e 8f       	std	Y+30, r24	; 0x1e

0000218a <.LM237>:
    218a:	8e 8d       	ldd	r24, Y+30	; 0x1e
    218c:	9f 8d       	ldd	r25, Y+31	; 0x1f

0000218e <.L1^B27>:
    218e:	01 97       	sbiw	r24, 0x01	; 1
    2190:	f1 f7       	brne	.-4      	; 0x218e <.L1^B27>
    2192:	9f 8f       	std	Y+31, r25	; 0x1f
    2194:	8e 8f       	std	Y+30, r24	; 0x1e

00002196 <.LM238>:
	...

00002198 <.LM239>:
    2198:	1b c0       	rjmp	.+54     	; 0x21d0 <.L120>

0000219a <.L180>:
    219a:	6d 81       	ldd	r22, Y+5	; 0x05
    219c:	7e 81       	ldd	r23, Y+6	; 0x06
    219e:	8f 81       	ldd	r24, Y+7	; 0x07
    21a0:	98 85       	ldd	r25, Y+8	; 0x08
    21a2:	0e 94 31 26 	call	0x4c62	; 0x4c62 <__fixunssfsi>
    21a6:	c6 55       	subi	r28, 0x56	; 86
    21a8:	de 4f       	sbci	r29, 0xFE	; 254
    21aa:	68 83       	st	Y, r22
    21ac:	79 83       	std	Y+1, r23	; 0x01
    21ae:	8a 83       	std	Y+2, r24	; 0x02
    21b0:	9b 83       	std	Y+3, r25	; 0x03
    21b2:	ca 5a       	subi	r28, 0xAA	; 170
    21b4:	d1 40       	sbci	r29, 0x01	; 1
    21b6:	c6 55       	subi	r28, 0x56	; 86
    21b8:	de 4f       	sbci	r29, 0xFE	; 254
    21ba:	98 81       	ld	r25, Y
    21bc:	ca 5a       	subi	r28, 0xAA	; 170
    21be:	d1 40       	sbci	r29, 0x01	; 1
    21c0:	9d 87       	std	Y+13, r25	; 0x0d

000021c2 <.L109>:
    21c2:	8d 85       	ldd	r24, Y+13	; 0x0d
    21c4:	88 a3       	std	Y+32, r24	; 0x20

000021c6 <.LM241>:
    21c6:	88 a1       	ldd	r24, Y+32	; 0x20

000021c8 <.L1^B28>:
    21c8:	8a 95       	dec	r24
    21ca:	f1 f7       	brne	.-4      	; 0x21c8 <.L1^B28>
    21cc:	88 a3       	std	Y+32, r24	; 0x20

000021ce <.LM242>:
	...

000021d0 <.L120>:
    21d0:	00 00       	nop
    21d2:	c3 55       	subi	r28, 0x53	; 83
    21d4:	de 4f       	sbci	r29, 0xFE	; 254
    21d6:	0f b6       	in	r0, 0x3f	; 63
    21d8:	f8 94       	cli
    21da:	de bf       	out	0x3e, r29	; 62
    21dc:	0f be       	out	0x3f, r0	; 63
    21de:	cd bf       	out	0x3d, r28	; 61
    21e0:	df 91       	pop	r29
    21e2:	cf 91       	pop	r28
    21e4:	1f 91       	pop	r17
    21e6:	0f 91       	pop	r16
    21e8:	08 95       	ret

000021ea <LCD_displayCharacter>:
    21ea:	0f 93       	push	r16
    21ec:	1f 93       	push	r17
    21ee:	cf 93       	push	r28
    21f0:	df 93       	push	r29
    21f2:	cd b7       	in	r28, 0x3d	; 61
    21f4:	de b7       	in	r29, 0x3e	; 62
    21f6:	c1 56       	subi	r28, 0x61	; 97
    21f8:	d1 40       	sbci	r29, 0x01	; 1
    21fa:	0f b6       	in	r0, 0x3f	; 63
    21fc:	f8 94       	cli
    21fe:	de bf       	out	0x3e, r29	; 62
    2200:	0f be       	out	0x3f, r0	; 63
    2202:	cd bf       	out	0x3d, r28	; 61
    2204:	9e 01       	movw	r18, r28
    2206:	27 56       	subi	r18, 0x67	; 103
    2208:	3f 4f       	sbci	r19, 0xFF	; 255
    220a:	d9 01       	movw	r26, r18
    220c:	8c 93       	st	X, r24

0000220e <.LM245>:
    220e:	41 e0       	ldi	r20, 0x01	; 1
    2210:	61 e0       	ldi	r22, 0x01	; 1
    2212:	80 e0       	ldi	r24, 0x00	; 0
    2214:	0e 94 66 01 	call	0x2cc	; 0x2cc <GPIO_writePin>
    2218:	9e 01       	movw	r18, r28
    221a:	25 57       	subi	r18, 0x75	; 117
    221c:	3f 4f       	sbci	r19, 0xFF	; 255
    221e:	80 e0       	ldi	r24, 0x00	; 0
    2220:	90 e0       	ldi	r25, 0x00	; 0
    2222:	a0 e8       	ldi	r26, 0x80	; 128
    2224:	bf e3       	ldi	r27, 0x3F	; 63
    2226:	f9 01       	movw	r30, r18
    2228:	80 83       	st	Z, r24
    222a:	91 83       	std	Z+1, r25	; 0x01
    222c:	a2 83       	std	Z+2, r26	; 0x02
    222e:	b3 83       	std	Z+3, r27	; 0x03

00002230 <.LM246>:
    2230:	8e 01       	movw	r16, r28
    2232:	01 57       	subi	r16, 0x71	; 113
    2234:	1f 4f       	sbci	r17, 0xFF	; 255
    2236:	ce 01       	movw	r24, r28
    2238:	85 57       	subi	r24, 0x75	; 117
    223a:	9f 4f       	sbci	r25, 0xFF	; 255
    223c:	20 e0       	ldi	r18, 0x00	; 0
    223e:	30 e0       	ldi	r19, 0x00	; 0
    2240:	4a e7       	ldi	r20, 0x7A	; 122
    2242:	55 e4       	ldi	r21, 0x45	; 69
    2244:	dc 01       	movw	r26, r24
    2246:	6d 91       	ld	r22, X+
    2248:	7d 91       	ld	r23, X+
    224a:	8d 91       	ld	r24, X+
    224c:	9c 91       	ld	r25, X
    224e:	0e 94 da 26 	call	0x4db4	; 0x4db4 <__mulsf3>
    2252:	ca 54       	subi	r28, 0x4A	; 74
    2254:	df 4f       	sbci	r29, 0xFF	; 255
    2256:	68 83       	st	Y, r22
    2258:	79 83       	std	Y+1, r23	; 0x01
    225a:	8a 83       	std	Y+2, r24	; 0x02
    225c:	9b 83       	std	Y+3, r25	; 0x03
    225e:	c6 5b       	subi	r28, 0xB6	; 182
    2260:	d0 40       	sbci	r29, 0x00	; 0
    2262:	ca 54       	subi	r28, 0x4A	; 74
    2264:	df 4f       	sbci	r29, 0xFF	; 255
    2266:	88 81       	ld	r24, Y
    2268:	99 81       	ldd	r25, Y+1	; 0x01
    226a:	aa 81       	ldd	r26, Y+2	; 0x02
    226c:	bb 81       	ldd	r27, Y+3	; 0x03
    226e:	c6 5b       	subi	r28, 0xB6	; 182
    2270:	d0 40       	sbci	r29, 0x00	; 0
    2272:	f8 01       	movw	r30, r16
    2274:	80 83       	st	Z, r24
    2276:	91 83       	std	Z+1, r25	; 0x01
    2278:	a2 83       	std	Z+2, r26	; 0x02
    227a:	b3 83       	std	Z+3, r27	; 0x03

0000227c <.LM247>:
    227c:	ce 01       	movw	r24, r28
    227e:	81 57       	subi	r24, 0x71	; 113
    2280:	9f 4f       	sbci	r25, 0xFF	; 255
    2282:	20 e0       	ldi	r18, 0x00	; 0
    2284:	30 e0       	ldi	r19, 0x00	; 0
    2286:	40 e8       	ldi	r20, 0x80	; 128
    2288:	5f e3       	ldi	r21, 0x3F	; 63
    228a:	dc 01       	movw	r26, r24
    228c:	6d 91       	ld	r22, X+
    228e:	7d 91       	ld	r23, X+
    2290:	8d 91       	ld	r24, X+
    2292:	9c 91       	ld	r25, X
    2294:	0e 94 ba 25 	call	0x4b74	; 0x4b74 <__cmpsf2>
    2298:	88 23       	and	r24, r24
    229a:	4c f4       	brge	.+18     	; 0x22ae <.L285>

0000229c <.LM248>:
    229c:	ce 01       	movw	r24, r28
    229e:	8d 56       	subi	r24, 0x6D	; 109
    22a0:	9f 4f       	sbci	r25, 0xFF	; 255
    22a2:	21 e0       	ldi	r18, 0x01	; 1
    22a4:	30 e0       	ldi	r19, 0x00	; 0
    22a6:	fc 01       	movw	r30, r24
    22a8:	31 83       	std	Z+1, r19	; 0x01
    22aa:	20 83       	st	Z, r18
    22ac:	a2 c0       	rjmp	.+324    	; 0x23f2 <.L184>

000022ae <.L285>:
    22ae:	ce 01       	movw	r24, r28
    22b0:	81 57       	subi	r24, 0x71	; 113
    22b2:	9f 4f       	sbci	r25, 0xFF	; 255
    22b4:	20 e0       	ldi	r18, 0x00	; 0
    22b6:	3f ef       	ldi	r19, 0xFF	; 255
    22b8:	4f e7       	ldi	r20, 0x7F	; 127
    22ba:	57 e4       	ldi	r21, 0x47	; 71
    22bc:	dc 01       	movw	r26, r24
    22be:	6d 91       	ld	r22, X+
    22c0:	7d 91       	ld	r23, X+
    22c2:	8d 91       	ld	r24, X+
    22c4:	9c 91       	ld	r25, X
    22c6:	0e 94 d5 26 	call	0x4daa	; 0x4daa <__gesf2>
    22ca:	18 16       	cp	r1, r24
    22cc:	0c f0       	brlt	.+2      	; 0x22d0 <.LM250>

000022ce <L0^A>:
    22ce:	73 c0       	rjmp	.+230    	; 0x23b6 <.L286>

000022d0 <.LM250>:
    22d0:	ce 01       	movw	r24, r28
    22d2:	85 57       	subi	r24, 0x75	; 117
    22d4:	9f 4f       	sbci	r25, 0xFF	; 255
    22d6:	20 e0       	ldi	r18, 0x00	; 0
    22d8:	30 e0       	ldi	r19, 0x00	; 0
    22da:	40 e2       	ldi	r20, 0x20	; 32
    22dc:	51 e4       	ldi	r21, 0x41	; 65
    22de:	fc 01       	movw	r30, r24
    22e0:	60 81       	ld	r22, Z
    22e2:	71 81       	ldd	r23, Z+1	; 0x01
    22e4:	82 81       	ldd	r24, Z+2	; 0x02
    22e6:	93 81       	ldd	r25, Z+3	; 0x03
    22e8:	0e 94 da 26 	call	0x4db4	; 0x4db4 <__mulsf3>
    22ec:	c6 54       	subi	r28, 0x46	; 70
    22ee:	df 4f       	sbci	r29, 0xFF	; 255
    22f0:	68 83       	st	Y, r22
    22f2:	79 83       	std	Y+1, r23	; 0x01
    22f4:	8a 83       	std	Y+2, r24	; 0x02
    22f6:	9b 83       	std	Y+3, r25	; 0x03
    22f8:	ca 5b       	subi	r28, 0xBA	; 186
    22fa:	d0 40       	sbci	r29, 0x00	; 0
    22fc:	c6 54       	subi	r28, 0x46	; 70
    22fe:	df 4f       	sbci	r29, 0xFF	; 255
    2300:	88 81       	ld	r24, Y
    2302:	99 81       	ldd	r25, Y+1	; 0x01
    2304:	aa 81       	ldd	r26, Y+2	; 0x02
    2306:	bb 81       	ldd	r27, Y+3	; 0x03
    2308:	ca 5b       	subi	r28, 0xBA	; 186
    230a:	d0 40       	sbci	r29, 0x00	; 0
    230c:	ce 54       	subi	r28, 0x4E	; 78
    230e:	df 4f       	sbci	r29, 0xFF	; 255
    2310:	88 83       	st	Y, r24
    2312:	99 83       	std	Y+1, r25	; 0x01
    2314:	aa 83       	std	Y+2, r26	; 0x02
    2316:	bb 83       	std	Y+3, r27	; 0x03
    2318:	c2 5b       	subi	r28, 0xB2	; 178
    231a:	d0 40       	sbci	r29, 0x00	; 0

0000231c <.LM251>:
    231c:	8e 01       	movw	r16, r28
    231e:	0d 56       	subi	r16, 0x6D	; 109
    2320:	1f 4f       	sbci	r17, 0xFF	; 255
    2322:	ce 54       	subi	r28, 0x4E	; 78
    2324:	df 4f       	sbci	r29, 0xFF	; 255
    2326:	68 81       	ld	r22, Y
    2328:	79 81       	ldd	r23, Y+1	; 0x01
    232a:	8a 81       	ldd	r24, Y+2	; 0x02
    232c:	9b 81       	ldd	r25, Y+3	; 0x03
    232e:	c2 5b       	subi	r28, 0xB2	; 178
    2330:	d0 40       	sbci	r29, 0x00	; 0
    2332:	0e 94 31 26 	call	0x4c62	; 0x4c62 <__fixunssfsi>
    2336:	c2 54       	subi	r28, 0x42	; 66
    2338:	df 4f       	sbci	r29, 0xFF	; 255
    233a:	68 83       	st	Y, r22
    233c:	79 83       	std	Y+1, r23	; 0x01
    233e:	8a 83       	std	Y+2, r24	; 0x02
    2340:	9b 83       	std	Y+3, r25	; 0x03
    2342:	ce 5b       	subi	r28, 0xBE	; 190
    2344:	d0 40       	sbci	r29, 0x00	; 0
    2346:	c2 54       	subi	r28, 0x42	; 66
    2348:	df 4f       	sbci	r29, 0xFF	; 255
    234a:	e8 81       	ld	r30, Y
    234c:	f9 81       	ldd	r31, Y+1	; 0x01
    234e:	ce 5b       	subi	r28, 0xBE	; 190
    2350:	d0 40       	sbci	r29, 0x00	; 0
    2352:	d8 01       	movw	r26, r16
    2354:	ed 93       	st	X+, r30
    2356:	fc 93       	st	X, r31

00002358 <.LM252>:
    2358:	25 c0       	rjmp	.+74     	; 0x23a4 <.L187>

0000235a <.L188>:
    235a:	ce 01       	movw	r24, r28
    235c:	8b 56       	subi	r24, 0x6B	; 107
    235e:	9f 4f       	sbci	r25, 0xFF	; 255
    2360:	20 e9       	ldi	r18, 0x90	; 144
    2362:	31 e0       	ldi	r19, 0x01	; 1
    2364:	dc 01       	movw	r26, r24
    2366:	2d 93       	st	X+, r18
    2368:	3c 93       	st	X, r19

0000236a <.LM253>:
    236a:	ce 01       	movw	r24, r28
    236c:	8b 56       	subi	r24, 0x6B	; 107
    236e:	9f 4f       	sbci	r25, 0xFF	; 255
    2370:	fc 01       	movw	r30, r24
    2372:	80 81       	ld	r24, Z
    2374:	91 81       	ldd	r25, Z+1	; 0x01

00002376 <.L1^B29>:
    2376:	01 97       	sbiw	r24, 0x01	; 1
    2378:	f1 f7       	brne	.-4      	; 0x2376 <.L1^B29>
    237a:	9e 01       	movw	r18, r28
    237c:	2b 56       	subi	r18, 0x6B	; 107
    237e:	3f 4f       	sbci	r19, 0xFF	; 255
    2380:	d9 01       	movw	r26, r18
    2382:	8d 93       	st	X+, r24
    2384:	9c 93       	st	X, r25

00002386 <.LM254>:
	...

00002388 <.LM255>:
    2388:	ce 01       	movw	r24, r28
    238a:	8d 56       	subi	r24, 0x6D	; 109
    238c:	9f 4f       	sbci	r25, 0xFF	; 255
    238e:	9e 01       	movw	r18, r28
    2390:	2d 56       	subi	r18, 0x6D	; 109
    2392:	3f 4f       	sbci	r19, 0xFF	; 255
    2394:	f9 01       	movw	r30, r18
    2396:	20 81       	ld	r18, Z
    2398:	31 81       	ldd	r19, Z+1	; 0x01
    239a:	21 50       	subi	r18, 0x01	; 1
    239c:	31 09       	sbc	r19, r1
    239e:	dc 01       	movw	r26, r24
    23a0:	2d 93       	st	X+, r18
    23a2:	3c 93       	st	X, r19

000023a4 <.L187>:
    23a4:	ce 01       	movw	r24, r28
    23a6:	8d 56       	subi	r24, 0x6D	; 109
    23a8:	9f 4f       	sbci	r25, 0xFF	; 255
    23aa:	fc 01       	movw	r30, r24
    23ac:	80 81       	ld	r24, Z
    23ae:	91 81       	ldd	r25, Z+1	; 0x01
    23b0:	89 2b       	or	r24, r25
    23b2:	99 f6       	brne	.-90     	; 0x235a <.L188>

000023b4 <.LM257>:
    23b4:	39 c0       	rjmp	.+114    	; 0x2428 <.L189>

000023b6 <.L286>:
    23b6:	8e 01       	movw	r16, r28
    23b8:	0d 56       	subi	r16, 0x6D	; 109
    23ba:	1f 4f       	sbci	r17, 0xFF	; 255
    23bc:	ce 01       	movw	r24, r28
    23be:	81 57       	subi	r24, 0x71	; 113
    23c0:	9f 4f       	sbci	r25, 0xFF	; 255
    23c2:	dc 01       	movw	r26, r24
    23c4:	6d 91       	ld	r22, X+
    23c6:	7d 91       	ld	r23, X+
    23c8:	8d 91       	ld	r24, X+
    23ca:	9c 91       	ld	r25, X
    23cc:	0e 94 31 26 	call	0x4c62	; 0x4c62 <__fixunssfsi>
    23d0:	ce 53       	subi	r28, 0x3E	; 62
    23d2:	df 4f       	sbci	r29, 0xFF	; 255
    23d4:	68 83       	st	Y, r22
    23d6:	79 83       	std	Y+1, r23	; 0x01
    23d8:	8a 83       	std	Y+2, r24	; 0x02
    23da:	9b 83       	std	Y+3, r25	; 0x03
    23dc:	c2 5c       	subi	r28, 0xC2	; 194
    23de:	d0 40       	sbci	r29, 0x00	; 0
    23e0:	ce 53       	subi	r28, 0x3E	; 62
    23e2:	df 4f       	sbci	r29, 0xFF	; 255
    23e4:	88 81       	ld	r24, Y
    23e6:	99 81       	ldd	r25, Y+1	; 0x01
    23e8:	c2 5c       	subi	r28, 0xC2	; 194
    23ea:	d0 40       	sbci	r29, 0x00	; 0
    23ec:	f8 01       	movw	r30, r16
    23ee:	91 83       	std	Z+1, r25	; 0x01
    23f0:	80 83       	st	Z, r24

000023f2 <.L184>:
    23f2:	ce 01       	movw	r24, r28
    23f4:	89 56       	subi	r24, 0x69	; 105
    23f6:	9f 4f       	sbci	r25, 0xFF	; 255
    23f8:	9e 01       	movw	r18, r28
    23fa:	2d 56       	subi	r18, 0x6D	; 109
    23fc:	3f 4f       	sbci	r19, 0xFF	; 255
    23fe:	d9 01       	movw	r26, r18
    2400:	2d 91       	ld	r18, X+
    2402:	3c 91       	ld	r19, X
    2404:	fc 01       	movw	r30, r24
    2406:	31 83       	std	Z+1, r19	; 0x01
    2408:	20 83       	st	Z, r18

0000240a <.LM259>:
    240a:	ce 01       	movw	r24, r28
    240c:	89 56       	subi	r24, 0x69	; 105
    240e:	9f 4f       	sbci	r25, 0xFF	; 255
    2410:	dc 01       	movw	r26, r24
    2412:	8d 91       	ld	r24, X+
    2414:	9c 91       	ld	r25, X

00002416 <.L1^B30>:
    2416:	01 97       	sbiw	r24, 0x01	; 1
    2418:	f1 f7       	brne	.-4      	; 0x2416 <.L1^B30>
    241a:	9e 01       	movw	r18, r28
    241c:	29 56       	subi	r18, 0x69	; 105
    241e:	3f 4f       	sbci	r19, 0xFF	; 255
    2420:	f9 01       	movw	r30, r18
    2422:	91 83       	std	Z+1, r25	; 0x01
    2424:	80 83       	st	Z, r24

00002426 <.LM260>:
	...

00002428 <.L189>:
    2428:	41 e0       	ldi	r20, 0x01	; 1
    242a:	62 e0       	ldi	r22, 0x02	; 2
    242c:	80 e0       	ldi	r24, 0x00	; 0
    242e:	0e 94 66 01 	call	0x2cc	; 0x2cc <GPIO_writePin>
    2432:	9e 01       	movw	r18, r28
    2434:	23 58       	subi	r18, 0x83	; 131
    2436:	3f 4f       	sbci	r19, 0xFF	; 255
    2438:	80 e0       	ldi	r24, 0x00	; 0
    243a:	90 e0       	ldi	r25, 0x00	; 0
    243c:	a0 e8       	ldi	r26, 0x80	; 128
    243e:	bf e3       	ldi	r27, 0x3F	; 63
    2440:	f9 01       	movw	r30, r18
    2442:	80 83       	st	Z, r24
    2444:	91 83       	std	Z+1, r25	; 0x01
    2446:	a2 83       	std	Z+2, r26	; 0x02
    2448:	b3 83       	std	Z+3, r27	; 0x03

0000244a <.LM262>:
    244a:	8e 01       	movw	r16, r28
    244c:	0f 57       	subi	r16, 0x7F	; 127
    244e:	1f 4f       	sbci	r17, 0xFF	; 255
    2450:	ce 01       	movw	r24, r28
    2452:	83 58       	subi	r24, 0x83	; 131
    2454:	9f 4f       	sbci	r25, 0xFF	; 255
    2456:	20 e0       	ldi	r18, 0x00	; 0
    2458:	30 e0       	ldi	r19, 0x00	; 0
    245a:	4a e7       	ldi	r20, 0x7A	; 122
    245c:	55 e4       	ldi	r21, 0x45	; 69
    245e:	dc 01       	movw	r26, r24
    2460:	6d 91       	ld	r22, X+
    2462:	7d 91       	ld	r23, X+
    2464:	8d 91       	ld	r24, X+
    2466:	9c 91       	ld	r25, X
    2468:	0e 94 da 26 	call	0x4db4	; 0x4db4 <__mulsf3>
    246c:	ca 53       	subi	r28, 0x3A	; 58
    246e:	df 4f       	sbci	r29, 0xFF	; 255
    2470:	68 83       	st	Y, r22
    2472:	79 83       	std	Y+1, r23	; 0x01
    2474:	8a 83       	std	Y+2, r24	; 0x02
    2476:	9b 83       	std	Y+3, r25	; 0x03
    2478:	c6 5c       	subi	r28, 0xC6	; 198
    247a:	d0 40       	sbci	r29, 0x00	; 0
    247c:	ca 53       	subi	r28, 0x3A	; 58
    247e:	df 4f       	sbci	r29, 0xFF	; 255
    2480:	88 81       	ld	r24, Y
    2482:	99 81       	ldd	r25, Y+1	; 0x01
    2484:	aa 81       	ldd	r26, Y+2	; 0x02
    2486:	bb 81       	ldd	r27, Y+3	; 0x03
    2488:	c6 5c       	subi	r28, 0xC6	; 198
    248a:	d0 40       	sbci	r29, 0x00	; 0
    248c:	f8 01       	movw	r30, r16
    248e:	80 83       	st	Z, r24
    2490:	91 83       	std	Z+1, r25	; 0x01
    2492:	a2 83       	std	Z+2, r26	; 0x02
    2494:	b3 83       	std	Z+3, r27	; 0x03

00002496 <.LM263>:
    2496:	ce 01       	movw	r24, r28
    2498:	8f 57       	subi	r24, 0x7F	; 127
    249a:	9f 4f       	sbci	r25, 0xFF	; 255
    249c:	20 e0       	ldi	r18, 0x00	; 0
    249e:	30 e0       	ldi	r19, 0x00	; 0
    24a0:	40 e8       	ldi	r20, 0x80	; 128
    24a2:	5f e3       	ldi	r21, 0x3F	; 63
    24a4:	dc 01       	movw	r26, r24
    24a6:	6d 91       	ld	r22, X+
    24a8:	7d 91       	ld	r23, X+
    24aa:	8d 91       	ld	r24, X+
    24ac:	9c 91       	ld	r25, X
    24ae:	0e 94 ba 25 	call	0x4b74	; 0x4b74 <__cmpsf2>
    24b2:	88 23       	and	r24, r24
    24b4:	4c f4       	brge	.+18     	; 0x24c8 <.L287>

000024b6 <.LM264>:
    24b6:	ce 01       	movw	r24, r28
    24b8:	8b 57       	subi	r24, 0x7B	; 123
    24ba:	9f 4f       	sbci	r25, 0xFF	; 255
    24bc:	21 e0       	ldi	r18, 0x01	; 1
    24be:	30 e0       	ldi	r19, 0x00	; 0
    24c0:	fc 01       	movw	r30, r24
    24c2:	31 83       	std	Z+1, r19	; 0x01
    24c4:	20 83       	st	Z, r18
    24c6:	a2 c0       	rjmp	.+324    	; 0x260c <.L192>

000024c8 <.L287>:
    24c8:	ce 01       	movw	r24, r28
    24ca:	8f 57       	subi	r24, 0x7F	; 127
    24cc:	9f 4f       	sbci	r25, 0xFF	; 255
    24ce:	20 e0       	ldi	r18, 0x00	; 0
    24d0:	3f ef       	ldi	r19, 0xFF	; 255
    24d2:	4f e7       	ldi	r20, 0x7F	; 127
    24d4:	57 e4       	ldi	r21, 0x47	; 71
    24d6:	dc 01       	movw	r26, r24
    24d8:	6d 91       	ld	r22, X+
    24da:	7d 91       	ld	r23, X+
    24dc:	8d 91       	ld	r24, X+
    24de:	9c 91       	ld	r25, X
    24e0:	0e 94 d5 26 	call	0x4daa	; 0x4daa <__gesf2>
    24e4:	18 16       	cp	r1, r24
    24e6:	0c f0       	brlt	.+2      	; 0x24ea <.LM266>

000024e8 <L0^A>:
    24e8:	73 c0       	rjmp	.+230    	; 0x25d0 <.L288>

000024ea <.LM266>:
    24ea:	ce 01       	movw	r24, r28
    24ec:	83 58       	subi	r24, 0x83	; 131
    24ee:	9f 4f       	sbci	r25, 0xFF	; 255
    24f0:	20 e0       	ldi	r18, 0x00	; 0
    24f2:	30 e0       	ldi	r19, 0x00	; 0
    24f4:	40 e2       	ldi	r20, 0x20	; 32
    24f6:	51 e4       	ldi	r21, 0x41	; 65
    24f8:	fc 01       	movw	r30, r24
    24fa:	60 81       	ld	r22, Z
    24fc:	71 81       	ldd	r23, Z+1	; 0x01
    24fe:	82 81       	ldd	r24, Z+2	; 0x02
    2500:	93 81       	ldd	r25, Z+3	; 0x03
    2502:	0e 94 da 26 	call	0x4db4	; 0x4db4 <__mulsf3>
    2506:	c6 53       	subi	r28, 0x36	; 54
    2508:	df 4f       	sbci	r29, 0xFF	; 255
    250a:	68 83       	st	Y, r22
    250c:	79 83       	std	Y+1, r23	; 0x01
    250e:	8a 83       	std	Y+2, r24	; 0x02
    2510:	9b 83       	std	Y+3, r25	; 0x03
    2512:	ca 5c       	subi	r28, 0xCA	; 202
    2514:	d0 40       	sbci	r29, 0x00	; 0
    2516:	c6 53       	subi	r28, 0x36	; 54
    2518:	df 4f       	sbci	r29, 0xFF	; 255
    251a:	88 81       	ld	r24, Y
    251c:	99 81       	ldd	r25, Y+1	; 0x01
    251e:	aa 81       	ldd	r26, Y+2	; 0x02
    2520:	bb 81       	ldd	r27, Y+3	; 0x03
    2522:	ca 5c       	subi	r28, 0xCA	; 202
    2524:	d0 40       	sbci	r29, 0x00	; 0
    2526:	c2 55       	subi	r28, 0x52	; 82
    2528:	df 4f       	sbci	r29, 0xFF	; 255
    252a:	88 83       	st	Y, r24
    252c:	99 83       	std	Y+1, r25	; 0x01
    252e:	aa 83       	std	Y+2, r26	; 0x02
    2530:	bb 83       	std	Y+3, r27	; 0x03
    2532:	ce 5a       	subi	r28, 0xAE	; 174
    2534:	d0 40       	sbci	r29, 0x00	; 0

00002536 <.LM267>:
    2536:	8e 01       	movw	r16, r28
    2538:	0b 57       	subi	r16, 0x7B	; 123
    253a:	1f 4f       	sbci	r17, 0xFF	; 255
    253c:	c2 55       	subi	r28, 0x52	; 82
    253e:	df 4f       	sbci	r29, 0xFF	; 255
    2540:	68 81       	ld	r22, Y
    2542:	79 81       	ldd	r23, Y+1	; 0x01
    2544:	8a 81       	ldd	r24, Y+2	; 0x02
    2546:	9b 81       	ldd	r25, Y+3	; 0x03
    2548:	ce 5a       	subi	r28, 0xAE	; 174
    254a:	d0 40       	sbci	r29, 0x00	; 0
    254c:	0e 94 31 26 	call	0x4c62	; 0x4c62 <__fixunssfsi>
    2550:	c2 53       	subi	r28, 0x32	; 50
    2552:	df 4f       	sbci	r29, 0xFF	; 255
    2554:	68 83       	st	Y, r22
    2556:	79 83       	std	Y+1, r23	; 0x01
    2558:	8a 83       	std	Y+2, r24	; 0x02
    255a:	9b 83       	std	Y+3, r25	; 0x03
    255c:	ce 5c       	subi	r28, 0xCE	; 206
    255e:	d0 40       	sbci	r29, 0x00	; 0
    2560:	c2 53       	subi	r28, 0x32	; 50
    2562:	df 4f       	sbci	r29, 0xFF	; 255
    2564:	e8 81       	ld	r30, Y
    2566:	f9 81       	ldd	r31, Y+1	; 0x01
    2568:	ce 5c       	subi	r28, 0xCE	; 206
    256a:	d0 40       	sbci	r29, 0x00	; 0
    256c:	d8 01       	movw	r26, r16
    256e:	ed 93       	st	X+, r30
    2570:	fc 93       	st	X, r31

00002572 <.LM268>:
    2572:	25 c0       	rjmp	.+74     	; 0x25be <.L195>

00002574 <.L196>:
    2574:	ce 01       	movw	r24, r28
    2576:	89 57       	subi	r24, 0x79	; 121
    2578:	9f 4f       	sbci	r25, 0xFF	; 255
    257a:	20 e9       	ldi	r18, 0x90	; 144
    257c:	31 e0       	ldi	r19, 0x01	; 1
    257e:	dc 01       	movw	r26, r24
    2580:	2d 93       	st	X+, r18
    2582:	3c 93       	st	X, r19

00002584 <.LM269>:
    2584:	ce 01       	movw	r24, r28
    2586:	89 57       	subi	r24, 0x79	; 121
    2588:	9f 4f       	sbci	r25, 0xFF	; 255
    258a:	fc 01       	movw	r30, r24
    258c:	80 81       	ld	r24, Z
    258e:	91 81       	ldd	r25, Z+1	; 0x01

00002590 <.L1^B31>:
    2590:	01 97       	sbiw	r24, 0x01	; 1
    2592:	f1 f7       	brne	.-4      	; 0x2590 <.L1^B31>
    2594:	9e 01       	movw	r18, r28
    2596:	29 57       	subi	r18, 0x79	; 121
    2598:	3f 4f       	sbci	r19, 0xFF	; 255
    259a:	d9 01       	movw	r26, r18
    259c:	8d 93       	st	X+, r24
    259e:	9c 93       	st	X, r25

000025a0 <.LM270>:
	...

000025a2 <.LM271>:
    25a2:	ce 01       	movw	r24, r28
    25a4:	8b 57       	subi	r24, 0x7B	; 123
    25a6:	9f 4f       	sbci	r25, 0xFF	; 255
    25a8:	9e 01       	movw	r18, r28
    25aa:	2b 57       	subi	r18, 0x7B	; 123
    25ac:	3f 4f       	sbci	r19, 0xFF	; 255
    25ae:	f9 01       	movw	r30, r18
    25b0:	20 81       	ld	r18, Z
    25b2:	31 81       	ldd	r19, Z+1	; 0x01
    25b4:	21 50       	subi	r18, 0x01	; 1
    25b6:	31 09       	sbc	r19, r1
    25b8:	dc 01       	movw	r26, r24
    25ba:	2d 93       	st	X+, r18
    25bc:	3c 93       	st	X, r19

000025be <.L195>:
    25be:	ce 01       	movw	r24, r28
    25c0:	8b 57       	subi	r24, 0x7B	; 123
    25c2:	9f 4f       	sbci	r25, 0xFF	; 255
    25c4:	fc 01       	movw	r30, r24
    25c6:	80 81       	ld	r24, Z
    25c8:	91 81       	ldd	r25, Z+1	; 0x01
    25ca:	89 2b       	or	r24, r25
    25cc:	99 f6       	brne	.-90     	; 0x2574 <.L196>

000025ce <.LM273>:
    25ce:	39 c0       	rjmp	.+114    	; 0x2642 <.L197>

000025d0 <.L288>:
    25d0:	8e 01       	movw	r16, r28
    25d2:	0b 57       	subi	r16, 0x7B	; 123
    25d4:	1f 4f       	sbci	r17, 0xFF	; 255
    25d6:	ce 01       	movw	r24, r28
    25d8:	8f 57       	subi	r24, 0x7F	; 127
    25da:	9f 4f       	sbci	r25, 0xFF	; 255
    25dc:	dc 01       	movw	r26, r24
    25de:	6d 91       	ld	r22, X+
    25e0:	7d 91       	ld	r23, X+
    25e2:	8d 91       	ld	r24, X+
    25e4:	9c 91       	ld	r25, X
    25e6:	0e 94 31 26 	call	0x4c62	; 0x4c62 <__fixunssfsi>
    25ea:	ce 52       	subi	r28, 0x2E	; 46
    25ec:	df 4f       	sbci	r29, 0xFF	; 255
    25ee:	68 83       	st	Y, r22
    25f0:	79 83       	std	Y+1, r23	; 0x01
    25f2:	8a 83       	std	Y+2, r24	; 0x02
    25f4:	9b 83       	std	Y+3, r25	; 0x03
    25f6:	c2 5d       	subi	r28, 0xD2	; 210
    25f8:	d0 40       	sbci	r29, 0x00	; 0
    25fa:	ce 52       	subi	r28, 0x2E	; 46
    25fc:	df 4f       	sbci	r29, 0xFF	; 255
    25fe:	88 81       	ld	r24, Y
    2600:	99 81       	ldd	r25, Y+1	; 0x01
    2602:	c2 5d       	subi	r28, 0xD2	; 210
    2604:	d0 40       	sbci	r29, 0x00	; 0
    2606:	f8 01       	movw	r30, r16
    2608:	91 83       	std	Z+1, r25	; 0x01
    260a:	80 83       	st	Z, r24

0000260c <.L192>:
    260c:	ce 01       	movw	r24, r28
    260e:	87 57       	subi	r24, 0x77	; 119
    2610:	9f 4f       	sbci	r25, 0xFF	; 255
    2612:	9e 01       	movw	r18, r28
    2614:	2b 57       	subi	r18, 0x7B	; 123
    2616:	3f 4f       	sbci	r19, 0xFF	; 255
    2618:	d9 01       	movw	r26, r18
    261a:	2d 91       	ld	r18, X+
    261c:	3c 91       	ld	r19, X
    261e:	fc 01       	movw	r30, r24
    2620:	31 83       	std	Z+1, r19	; 0x01
    2622:	20 83       	st	Z, r18

00002624 <.LM275>:
    2624:	ce 01       	movw	r24, r28
    2626:	87 57       	subi	r24, 0x77	; 119
    2628:	9f 4f       	sbci	r25, 0xFF	; 255
    262a:	dc 01       	movw	r26, r24
    262c:	8d 91       	ld	r24, X+
    262e:	9c 91       	ld	r25, X

00002630 <.L1^B32>:
    2630:	01 97       	sbiw	r24, 0x01	; 1
    2632:	f1 f7       	brne	.-4      	; 0x2630 <.L1^B32>
    2634:	9e 01       	movw	r18, r28
    2636:	27 57       	subi	r18, 0x77	; 119
    2638:	3f 4f       	sbci	r19, 0xFF	; 255
    263a:	f9 01       	movw	r30, r18
    263c:	91 83       	std	Z+1, r25	; 0x01
    263e:	80 83       	st	Z, r24

00002640 <.LM276>:
	...

00002642 <.L197>:
    2642:	ce 01       	movw	r24, r28
    2644:	87 56       	subi	r24, 0x67	; 103
    2646:	9f 4f       	sbci	r25, 0xFF	; 255
    2648:	dc 01       	movw	r26, r24
    264a:	8c 91       	ld	r24, X
    264c:	82 95       	swap	r24
    264e:	8f 70       	andi	r24, 0x0F	; 15

00002650 <.LM278>:
    2650:	81 70       	andi	r24, 0x01	; 1
    2652:	48 2f       	mov	r20, r24
    2654:	63 e0       	ldi	r22, 0x03	; 3
    2656:	80 e0       	ldi	r24, 0x00	; 0
    2658:	0e 94 66 01 	call	0x2cc	; 0x2cc <GPIO_writePin>

0000265c <.LM279>:
    265c:	ce 01       	movw	r24, r28
    265e:	87 56       	subi	r24, 0x67	; 103
    2660:	9f 4f       	sbci	r25, 0xFF	; 255
    2662:	fc 01       	movw	r30, r24
    2664:	80 81       	ld	r24, Z
    2666:	82 95       	swap	r24
    2668:	86 95       	lsr	r24
    266a:	87 70       	andi	r24, 0x07	; 7

0000266c <.LM280>:
    266c:	81 70       	andi	r24, 0x01	; 1
    266e:	48 2f       	mov	r20, r24
    2670:	64 e0       	ldi	r22, 0x04	; 4
    2672:	80 e0       	ldi	r24, 0x00	; 0
    2674:	0e 94 66 01 	call	0x2cc	; 0x2cc <GPIO_writePin>

00002678 <.LM281>:
    2678:	ce 01       	movw	r24, r28
    267a:	87 56       	subi	r24, 0x67	; 103
    267c:	9f 4f       	sbci	r25, 0xFF	; 255
    267e:	dc 01       	movw	r26, r24
    2680:	8c 91       	ld	r24, X
    2682:	82 95       	swap	r24
    2684:	86 95       	lsr	r24
    2686:	86 95       	lsr	r24
    2688:	83 70       	andi	r24, 0x03	; 3

0000268a <.LM282>:
    268a:	81 70       	andi	r24, 0x01	; 1
    268c:	48 2f       	mov	r20, r24
    268e:	65 e0       	ldi	r22, 0x05	; 5
    2690:	80 e0       	ldi	r24, 0x00	; 0
    2692:	0e 94 66 01 	call	0x2cc	; 0x2cc <GPIO_writePin>

00002696 <.LM283>:
    2696:	ce 01       	movw	r24, r28
    2698:	87 56       	subi	r24, 0x67	; 103
    269a:	9f 4f       	sbci	r25, 0xFF	; 255
    269c:	fc 01       	movw	r30, r24
    269e:	80 81       	ld	r24, Z
    26a0:	88 1f       	adc	r24, r24
    26a2:	88 27       	eor	r24, r24
    26a4:	88 1f       	adc	r24, r24
    26a6:	48 2f       	mov	r20, r24
    26a8:	66 e0       	ldi	r22, 0x06	; 6
    26aa:	80 e0       	ldi	r24, 0x00	; 0
    26ac:	0e 94 66 01 	call	0x2cc	; 0x2cc <GPIO_writePin>
    26b0:	9e 01       	movw	r18, r28
    26b2:	21 59       	subi	r18, 0x91	; 145
    26b4:	3f 4f       	sbci	r19, 0xFF	; 255
    26b6:	80 e0       	ldi	r24, 0x00	; 0
    26b8:	90 e0       	ldi	r25, 0x00	; 0
    26ba:	a0 e8       	ldi	r26, 0x80	; 128
    26bc:	bf e3       	ldi	r27, 0x3F	; 63
    26be:	f9 01       	movw	r30, r18
    26c0:	80 83       	st	Z, r24
    26c2:	91 83       	std	Z+1, r25	; 0x01
    26c4:	a2 83       	std	Z+2, r26	; 0x02
    26c6:	b3 83       	std	Z+3, r27	; 0x03

000026c8 <.LM284>:
    26c8:	8e 01       	movw	r16, r28
    26ca:	0d 58       	subi	r16, 0x8D	; 141
    26cc:	1f 4f       	sbci	r17, 0xFF	; 255
    26ce:	ce 01       	movw	r24, r28
    26d0:	81 59       	subi	r24, 0x91	; 145
    26d2:	9f 4f       	sbci	r25, 0xFF	; 255
    26d4:	20 e0       	ldi	r18, 0x00	; 0
    26d6:	30 e0       	ldi	r19, 0x00	; 0
    26d8:	4a e7       	ldi	r20, 0x7A	; 122
    26da:	55 e4       	ldi	r21, 0x45	; 69
    26dc:	dc 01       	movw	r26, r24
    26de:	6d 91       	ld	r22, X+
    26e0:	7d 91       	ld	r23, X+
    26e2:	8d 91       	ld	r24, X+
    26e4:	9c 91       	ld	r25, X
    26e6:	0e 94 da 26 	call	0x4db4	; 0x4db4 <__mulsf3>
    26ea:	ca 52       	subi	r28, 0x2A	; 42
    26ec:	df 4f       	sbci	r29, 0xFF	; 255
    26ee:	68 83       	st	Y, r22
    26f0:	79 83       	std	Y+1, r23	; 0x01
    26f2:	8a 83       	std	Y+2, r24	; 0x02
    26f4:	9b 83       	std	Y+3, r25	; 0x03
    26f6:	c6 5d       	subi	r28, 0xD6	; 214
    26f8:	d0 40       	sbci	r29, 0x00	; 0
    26fa:	ca 52       	subi	r28, 0x2A	; 42
    26fc:	df 4f       	sbci	r29, 0xFF	; 255
    26fe:	88 81       	ld	r24, Y
    2700:	99 81       	ldd	r25, Y+1	; 0x01
    2702:	aa 81       	ldd	r26, Y+2	; 0x02
    2704:	bb 81       	ldd	r27, Y+3	; 0x03
    2706:	c6 5d       	subi	r28, 0xD6	; 214
    2708:	d0 40       	sbci	r29, 0x00	; 0
    270a:	f8 01       	movw	r30, r16
    270c:	80 83       	st	Z, r24
    270e:	91 83       	std	Z+1, r25	; 0x01
    2710:	a2 83       	std	Z+2, r26	; 0x02
    2712:	b3 83       	std	Z+3, r27	; 0x03

00002714 <.LM285>:
    2714:	ce 01       	movw	r24, r28
    2716:	8d 58       	subi	r24, 0x8D	; 141
    2718:	9f 4f       	sbci	r25, 0xFF	; 255
    271a:	20 e0       	ldi	r18, 0x00	; 0
    271c:	30 e0       	ldi	r19, 0x00	; 0
    271e:	40 e8       	ldi	r20, 0x80	; 128
    2720:	5f e3       	ldi	r21, 0x3F	; 63
    2722:	dc 01       	movw	r26, r24
    2724:	6d 91       	ld	r22, X+
    2726:	7d 91       	ld	r23, X+
    2728:	8d 91       	ld	r24, X+
    272a:	9c 91       	ld	r25, X
    272c:	0e 94 ba 25 	call	0x4b74	; 0x4b74 <__cmpsf2>
    2730:	88 23       	and	r24, r24
    2732:	4c f4       	brge	.+18     	; 0x2746 <.L289>

00002734 <.LM286>:
    2734:	ce 01       	movw	r24, r28
    2736:	89 58       	subi	r24, 0x89	; 137
    2738:	9f 4f       	sbci	r25, 0xFF	; 255
    273a:	21 e0       	ldi	r18, 0x01	; 1
    273c:	30 e0       	ldi	r19, 0x00	; 0
    273e:	fc 01       	movw	r30, r24
    2740:	31 83       	std	Z+1, r19	; 0x01
    2742:	20 83       	st	Z, r18
    2744:	a2 c0       	rjmp	.+324    	; 0x288a <.L200>

00002746 <.L289>:
    2746:	ce 01       	movw	r24, r28
    2748:	8d 58       	subi	r24, 0x8D	; 141
    274a:	9f 4f       	sbci	r25, 0xFF	; 255
    274c:	20 e0       	ldi	r18, 0x00	; 0
    274e:	3f ef       	ldi	r19, 0xFF	; 255
    2750:	4f e7       	ldi	r20, 0x7F	; 127
    2752:	57 e4       	ldi	r21, 0x47	; 71
    2754:	dc 01       	movw	r26, r24
    2756:	6d 91       	ld	r22, X+
    2758:	7d 91       	ld	r23, X+
    275a:	8d 91       	ld	r24, X+
    275c:	9c 91       	ld	r25, X
    275e:	0e 94 d5 26 	call	0x4daa	; 0x4daa <__gesf2>
    2762:	18 16       	cp	r1, r24
    2764:	0c f0       	brlt	.+2      	; 0x2768 <.LM288>

00002766 <L0^A>:
    2766:	73 c0       	rjmp	.+230    	; 0x284e <.L290>

00002768 <.LM288>:
    2768:	ce 01       	movw	r24, r28
    276a:	81 59       	subi	r24, 0x91	; 145
    276c:	9f 4f       	sbci	r25, 0xFF	; 255
    276e:	20 e0       	ldi	r18, 0x00	; 0
    2770:	30 e0       	ldi	r19, 0x00	; 0
    2772:	40 e2       	ldi	r20, 0x20	; 32
    2774:	51 e4       	ldi	r21, 0x41	; 65
    2776:	fc 01       	movw	r30, r24
    2778:	60 81       	ld	r22, Z
    277a:	71 81       	ldd	r23, Z+1	; 0x01
    277c:	82 81       	ldd	r24, Z+2	; 0x02
    277e:	93 81       	ldd	r25, Z+3	; 0x03
    2780:	0e 94 da 26 	call	0x4db4	; 0x4db4 <__mulsf3>
    2784:	c6 52       	subi	r28, 0x26	; 38
    2786:	df 4f       	sbci	r29, 0xFF	; 255
    2788:	68 83       	st	Y, r22
    278a:	79 83       	std	Y+1, r23	; 0x01
    278c:	8a 83       	std	Y+2, r24	; 0x02
    278e:	9b 83       	std	Y+3, r25	; 0x03
    2790:	ca 5d       	subi	r28, 0xDA	; 218
    2792:	d0 40       	sbci	r29, 0x00	; 0
    2794:	c6 52       	subi	r28, 0x26	; 38
    2796:	df 4f       	sbci	r29, 0xFF	; 255
    2798:	88 81       	ld	r24, Y
    279a:	99 81       	ldd	r25, Y+1	; 0x01
    279c:	aa 81       	ldd	r26, Y+2	; 0x02
    279e:	bb 81       	ldd	r27, Y+3	; 0x03
    27a0:	ca 5d       	subi	r28, 0xDA	; 218
    27a2:	d0 40       	sbci	r29, 0x00	; 0
    27a4:	c6 55       	subi	r28, 0x56	; 86
    27a6:	df 4f       	sbci	r29, 0xFF	; 255
    27a8:	88 83       	st	Y, r24
    27aa:	99 83       	std	Y+1, r25	; 0x01
    27ac:	aa 83       	std	Y+2, r26	; 0x02
    27ae:	bb 83       	std	Y+3, r27	; 0x03
    27b0:	ca 5a       	subi	r28, 0xAA	; 170
    27b2:	d0 40       	sbci	r29, 0x00	; 0

000027b4 <.LM289>:
    27b4:	8e 01       	movw	r16, r28
    27b6:	09 58       	subi	r16, 0x89	; 137
    27b8:	1f 4f       	sbci	r17, 0xFF	; 255
    27ba:	c6 55       	subi	r28, 0x56	; 86
    27bc:	df 4f       	sbci	r29, 0xFF	; 255
    27be:	68 81       	ld	r22, Y
    27c0:	79 81       	ldd	r23, Y+1	; 0x01
    27c2:	8a 81       	ldd	r24, Y+2	; 0x02
    27c4:	9b 81       	ldd	r25, Y+3	; 0x03
    27c6:	ca 5a       	subi	r28, 0xAA	; 170
    27c8:	d0 40       	sbci	r29, 0x00	; 0
    27ca:	0e 94 31 26 	call	0x4c62	; 0x4c62 <__fixunssfsi>
    27ce:	c2 52       	subi	r28, 0x22	; 34
    27d0:	df 4f       	sbci	r29, 0xFF	; 255
    27d2:	68 83       	st	Y, r22
    27d4:	79 83       	std	Y+1, r23	; 0x01
    27d6:	8a 83       	std	Y+2, r24	; 0x02
    27d8:	9b 83       	std	Y+3, r25	; 0x03
    27da:	ce 5d       	subi	r28, 0xDE	; 222
    27dc:	d0 40       	sbci	r29, 0x00	; 0
    27de:	c2 52       	subi	r28, 0x22	; 34
    27e0:	df 4f       	sbci	r29, 0xFF	; 255
    27e2:	e8 81       	ld	r30, Y
    27e4:	f9 81       	ldd	r31, Y+1	; 0x01
    27e6:	ce 5d       	subi	r28, 0xDE	; 222
    27e8:	d0 40       	sbci	r29, 0x00	; 0
    27ea:	d8 01       	movw	r26, r16
    27ec:	ed 93       	st	X+, r30
    27ee:	fc 93       	st	X, r31

000027f0 <.LM290>:
    27f0:	25 c0       	rjmp	.+74     	; 0x283c <.L203>

000027f2 <.L204>:
    27f2:	ce 01       	movw	r24, r28
    27f4:	87 58       	subi	r24, 0x87	; 135
    27f6:	9f 4f       	sbci	r25, 0xFF	; 255
    27f8:	20 e9       	ldi	r18, 0x90	; 144
    27fa:	31 e0       	ldi	r19, 0x01	; 1
    27fc:	dc 01       	movw	r26, r24
    27fe:	2d 93       	st	X+, r18
    2800:	3c 93       	st	X, r19

00002802 <.LM291>:
    2802:	ce 01       	movw	r24, r28
    2804:	87 58       	subi	r24, 0x87	; 135
    2806:	9f 4f       	sbci	r25, 0xFF	; 255
    2808:	fc 01       	movw	r30, r24
    280a:	80 81       	ld	r24, Z
    280c:	91 81       	ldd	r25, Z+1	; 0x01

0000280e <.L1^B33>:
    280e:	01 97       	sbiw	r24, 0x01	; 1
    2810:	f1 f7       	brne	.-4      	; 0x280e <.L1^B33>
    2812:	9e 01       	movw	r18, r28
    2814:	27 58       	subi	r18, 0x87	; 135
    2816:	3f 4f       	sbci	r19, 0xFF	; 255
    2818:	d9 01       	movw	r26, r18
    281a:	8d 93       	st	X+, r24
    281c:	9c 93       	st	X, r25

0000281e <.LM292>:
	...

00002820 <.LM293>:
    2820:	ce 01       	movw	r24, r28
    2822:	89 58       	subi	r24, 0x89	; 137
    2824:	9f 4f       	sbci	r25, 0xFF	; 255
    2826:	9e 01       	movw	r18, r28
    2828:	29 58       	subi	r18, 0x89	; 137
    282a:	3f 4f       	sbci	r19, 0xFF	; 255
    282c:	f9 01       	movw	r30, r18
    282e:	20 81       	ld	r18, Z
    2830:	31 81       	ldd	r19, Z+1	; 0x01
    2832:	21 50       	subi	r18, 0x01	; 1
    2834:	31 09       	sbc	r19, r1
    2836:	dc 01       	movw	r26, r24
    2838:	2d 93       	st	X+, r18
    283a:	3c 93       	st	X, r19

0000283c <.L203>:
    283c:	ce 01       	movw	r24, r28
    283e:	89 58       	subi	r24, 0x89	; 137
    2840:	9f 4f       	sbci	r25, 0xFF	; 255
    2842:	fc 01       	movw	r30, r24
    2844:	80 81       	ld	r24, Z
    2846:	91 81       	ldd	r25, Z+1	; 0x01
    2848:	89 2b       	or	r24, r25
    284a:	99 f6       	brne	.-90     	; 0x27f2 <.L204>

0000284c <.LM295>:
    284c:	39 c0       	rjmp	.+114    	; 0x28c0 <.L205>

0000284e <.L290>:
    284e:	8e 01       	movw	r16, r28
    2850:	09 58       	subi	r16, 0x89	; 137
    2852:	1f 4f       	sbci	r17, 0xFF	; 255
    2854:	ce 01       	movw	r24, r28
    2856:	8d 58       	subi	r24, 0x8D	; 141
    2858:	9f 4f       	sbci	r25, 0xFF	; 255
    285a:	dc 01       	movw	r26, r24
    285c:	6d 91       	ld	r22, X+
    285e:	7d 91       	ld	r23, X+
    2860:	8d 91       	ld	r24, X+
    2862:	9c 91       	ld	r25, X
    2864:	0e 94 31 26 	call	0x4c62	; 0x4c62 <__fixunssfsi>
    2868:	ce 51       	subi	r28, 0x1E	; 30
    286a:	df 4f       	sbci	r29, 0xFF	; 255
    286c:	68 83       	st	Y, r22
    286e:	79 83       	std	Y+1, r23	; 0x01
    2870:	8a 83       	std	Y+2, r24	; 0x02
    2872:	9b 83       	std	Y+3, r25	; 0x03
    2874:	c2 5e       	subi	r28, 0xE2	; 226
    2876:	d0 40       	sbci	r29, 0x00	; 0
    2878:	ce 51       	subi	r28, 0x1E	; 30
    287a:	df 4f       	sbci	r29, 0xFF	; 255
    287c:	88 81       	ld	r24, Y
    287e:	99 81       	ldd	r25, Y+1	; 0x01
    2880:	c2 5e       	subi	r28, 0xE2	; 226
    2882:	d0 40       	sbci	r29, 0x00	; 0
    2884:	f8 01       	movw	r30, r16
    2886:	91 83       	std	Z+1, r25	; 0x01
    2888:	80 83       	st	Z, r24

0000288a <.L200>:
    288a:	ce 01       	movw	r24, r28
    288c:	85 58       	subi	r24, 0x85	; 133
    288e:	9f 4f       	sbci	r25, 0xFF	; 255
    2890:	9e 01       	movw	r18, r28
    2892:	29 58       	subi	r18, 0x89	; 137
    2894:	3f 4f       	sbci	r19, 0xFF	; 255
    2896:	d9 01       	movw	r26, r18
    2898:	2d 91       	ld	r18, X+
    289a:	3c 91       	ld	r19, X
    289c:	fc 01       	movw	r30, r24
    289e:	31 83       	std	Z+1, r19	; 0x01
    28a0:	20 83       	st	Z, r18

000028a2 <.LM297>:
    28a2:	ce 01       	movw	r24, r28
    28a4:	85 58       	subi	r24, 0x85	; 133
    28a6:	9f 4f       	sbci	r25, 0xFF	; 255
    28a8:	dc 01       	movw	r26, r24
    28aa:	8d 91       	ld	r24, X+
    28ac:	9c 91       	ld	r25, X

000028ae <.L1^B34>:
    28ae:	01 97       	sbiw	r24, 0x01	; 1
    28b0:	f1 f7       	brne	.-4      	; 0x28ae <.L1^B34>
    28b2:	9e 01       	movw	r18, r28
    28b4:	25 58       	subi	r18, 0x85	; 133
    28b6:	3f 4f       	sbci	r19, 0xFF	; 255
    28b8:	f9 01       	movw	r30, r18
    28ba:	91 83       	std	Z+1, r25	; 0x01
    28bc:	80 83       	st	Z, r24

000028be <.LM298>:
	...

000028c0 <.L205>:
    28c0:	40 e0       	ldi	r20, 0x00	; 0
    28c2:	62 e0       	ldi	r22, 0x02	; 2
    28c4:	80 e0       	ldi	r24, 0x00	; 0
    28c6:	0e 94 66 01 	call	0x2cc	; 0x2cc <GPIO_writePin>
    28ca:	9e 01       	movw	r18, r28
    28cc:	21 5b       	subi	r18, 0xB1	; 177
    28ce:	3f 4f       	sbci	r19, 0xFF	; 255
    28d0:	80 e0       	ldi	r24, 0x00	; 0
    28d2:	90 e0       	ldi	r25, 0x00	; 0
    28d4:	a0 e8       	ldi	r26, 0x80	; 128
    28d6:	bf e3       	ldi	r27, 0x3F	; 63
    28d8:	f9 01       	movw	r30, r18
    28da:	80 83       	st	Z, r24
    28dc:	91 83       	std	Z+1, r25	; 0x01
    28de:	a2 83       	std	Z+2, r26	; 0x02
    28e0:	b3 83       	std	Z+3, r27	; 0x03

000028e2 <.LM300>:
    28e2:	8e 01       	movw	r16, r28
    28e4:	0d 5a       	subi	r16, 0xAD	; 173
    28e6:	1f 4f       	sbci	r17, 0xFF	; 255
    28e8:	ce 01       	movw	r24, r28
    28ea:	81 5b       	subi	r24, 0xB1	; 177
    28ec:	9f 4f       	sbci	r25, 0xFF	; 255
    28ee:	2b ea       	ldi	r18, 0xAB	; 171
    28f0:	3a ea       	ldi	r19, 0xAA	; 170
    28f2:	4a ea       	ldi	r20, 0xAA	; 170
    28f4:	50 e4       	ldi	r21, 0x40	; 64
    28f6:	dc 01       	movw	r26, r24
    28f8:	6d 91       	ld	r22, X+
    28fa:	7d 91       	ld	r23, X+
    28fc:	8d 91       	ld	r24, X+
    28fe:	9c 91       	ld	r25, X
    2900:	0e 94 da 26 	call	0x4db4	; 0x4db4 <__mulsf3>
    2904:	ca 51       	subi	r28, 0x1A	; 26
    2906:	df 4f       	sbci	r29, 0xFF	; 255
    2908:	68 83       	st	Y, r22
    290a:	79 83       	std	Y+1, r23	; 0x01
    290c:	8a 83       	std	Y+2, r24	; 0x02
    290e:	9b 83       	std	Y+3, r25	; 0x03
    2910:	c6 5e       	subi	r28, 0xE6	; 230
    2912:	d0 40       	sbci	r29, 0x00	; 0
    2914:	ca 51       	subi	r28, 0x1A	; 26
    2916:	df 4f       	sbci	r29, 0xFF	; 255
    2918:	88 81       	ld	r24, Y
    291a:	99 81       	ldd	r25, Y+1	; 0x01
    291c:	aa 81       	ldd	r26, Y+2	; 0x02
    291e:	bb 81       	ldd	r27, Y+3	; 0x03
    2920:	c6 5e       	subi	r28, 0xE6	; 230
    2922:	d0 40       	sbci	r29, 0x00	; 0
    2924:	f8 01       	movw	r30, r16
    2926:	80 83       	st	Z, r24
    2928:	91 83       	std	Z+1, r25	; 0x01
    292a:	a2 83       	std	Z+2, r26	; 0x02
    292c:	b3 83       	std	Z+3, r27	; 0x03

0000292e <.LM301>:
    292e:	8e 01       	movw	r16, r28
    2930:	09 5a       	subi	r16, 0xA9	; 169
    2932:	1f 4f       	sbci	r17, 0xFF	; 255
    2934:	ce 01       	movw	r24, r28
    2936:	81 5b       	subi	r24, 0xB1	; 177
    2938:	9f 4f       	sbci	r25, 0xFF	; 255
    293a:	20 e0       	ldi	r18, 0x00	; 0
    293c:	30 e0       	ldi	r19, 0x00	; 0
    293e:	40 e8       	ldi	r20, 0x80	; 128
    2940:	50 e4       	ldi	r21, 0x40	; 64
    2942:	dc 01       	movw	r26, r24
    2944:	6d 91       	ld	r22, X+
    2946:	7d 91       	ld	r23, X+
    2948:	8d 91       	ld	r24, X+
    294a:	9c 91       	ld	r25, X
    294c:	0e 94 da 26 	call	0x4db4	; 0x4db4 <__mulsf3>
    2950:	c6 51       	subi	r28, 0x16	; 22
    2952:	df 4f       	sbci	r29, 0xFF	; 255
    2954:	68 83       	st	Y, r22
    2956:	79 83       	std	Y+1, r23	; 0x01
    2958:	8a 83       	std	Y+2, r24	; 0x02
    295a:	9b 83       	std	Y+3, r25	; 0x03
    295c:	ca 5e       	subi	r28, 0xEA	; 234
    295e:	d0 40       	sbci	r29, 0x00	; 0
    2960:	c6 51       	subi	r28, 0x16	; 22
    2962:	df 4f       	sbci	r29, 0xFF	; 255
    2964:	88 81       	ld	r24, Y
    2966:	99 81       	ldd	r25, Y+1	; 0x01
    2968:	aa 81       	ldd	r26, Y+2	; 0x02
    296a:	bb 81       	ldd	r27, Y+3	; 0x03
    296c:	ca 5e       	subi	r28, 0xEA	; 234
    296e:	d0 40       	sbci	r29, 0x00	; 0
    2970:	f8 01       	movw	r30, r16
    2972:	80 83       	st	Z, r24
    2974:	91 83       	std	Z+1, r25	; 0x01
    2976:	a2 83       	std	Z+2, r26	; 0x02
    2978:	b3 83       	std	Z+3, r27	; 0x03

0000297a <.LM302>:
    297a:	ce 01       	movw	r24, r28
    297c:	8d 5a       	subi	r24, 0xAD	; 173
    297e:	9f 4f       	sbci	r25, 0xFF	; 255
    2980:	20 e0       	ldi	r18, 0x00	; 0
    2982:	30 e0       	ldi	r19, 0x00	; 0
    2984:	40 e8       	ldi	r20, 0x80	; 128
    2986:	5f e3       	ldi	r21, 0x3F	; 63
    2988:	dc 01       	movw	r26, r24
    298a:	6d 91       	ld	r22, X+
    298c:	7d 91       	ld	r23, X+
    298e:	8d 91       	ld	r24, X+
    2990:	9c 91       	ld	r25, X
    2992:	0e 94 ba 25 	call	0x4b74	; 0x4b74 <__cmpsf2>
    2996:	88 23       	and	r24, r24
    2998:	3c f4       	brge	.+14     	; 0x29a8 <.L291>

0000299a <.LM303>:
    299a:	ce 01       	movw	r24, r28
    299c:	85 5a       	subi	r24, 0xA5	; 165
    299e:	9f 4f       	sbci	r25, 0xFF	; 255
    29a0:	21 e0       	ldi	r18, 0x01	; 1
    29a2:	fc 01       	movw	r30, r24
    29a4:	20 83       	st	Z, r18
    29a6:	9a c1       	rjmp	.+820    	; 0x2cdc <.L208>

000029a8 <.L291>:
    29a8:	ce 01       	movw	r24, r28
    29aa:	89 5a       	subi	r24, 0xA9	; 169
    29ac:	9f 4f       	sbci	r25, 0xFF	; 255
    29ae:	20 e0       	ldi	r18, 0x00	; 0
    29b0:	3f ef       	ldi	r19, 0xFF	; 255
    29b2:	4f e7       	ldi	r20, 0x7F	; 127
    29b4:	57 e4       	ldi	r21, 0x47	; 71
    29b6:	dc 01       	movw	r26, r24
    29b8:	6d 91       	ld	r22, X+
    29ba:	7d 91       	ld	r23, X+
    29bc:	8d 91       	ld	r24, X+
    29be:	9c 91       	ld	r25, X
    29c0:	0e 94 d5 26 	call	0x4daa	; 0x4daa <__gesf2>
    29c4:	18 16       	cp	r1, r24
    29c6:	0c f0       	brlt	.+2      	; 0x29ca <.LM305>

000029c8 <L0^A>:
    29c8:	23 c1       	rjmp	.+582    	; 0x2c10 <.L292>

000029ca <.LM305>:
    29ca:	ce 01       	movw	r24, r28
    29cc:	81 5b       	subi	r24, 0xB1	; 177
    29ce:	9f 4f       	sbci	r25, 0xFF	; 255
    29d0:	20 e0       	ldi	r18, 0x00	; 0
    29d2:	30 e0       	ldi	r19, 0x00	; 0
    29d4:	4a e7       	ldi	r20, 0x7A	; 122
    29d6:	54 e4       	ldi	r21, 0x44	; 68
    29d8:	fc 01       	movw	r30, r24
    29da:	60 81       	ld	r22, Z
    29dc:	71 81       	ldd	r23, Z+1	; 0x01
    29de:	82 81       	ldd	r24, Z+2	; 0x02
    29e0:	93 81       	ldd	r25, Z+3	; 0x03
    29e2:	0e 94 bf 25 	call	0x4b7e	; 0x4b7e <__divsf3>
    29e6:	c2 51       	subi	r28, 0x12	; 18
    29e8:	df 4f       	sbci	r29, 0xFF	; 255
    29ea:	68 83       	st	Y, r22
    29ec:	79 83       	std	Y+1, r23	; 0x01
    29ee:	8a 83       	std	Y+2, r24	; 0x02
    29f0:	9b 83       	std	Y+3, r25	; 0x03
    29f2:	ce 5e       	subi	r28, 0xEE	; 238
    29f4:	d0 40       	sbci	r29, 0x00	; 0
    29f6:	c2 51       	subi	r28, 0x12	; 18
    29f8:	df 4f       	sbci	r29, 0xFF	; 255
    29fa:	88 81       	ld	r24, Y
    29fc:	99 81       	ldd	r25, Y+1	; 0x01
    29fe:	aa 81       	ldd	r26, Y+2	; 0x02
    2a00:	bb 81       	ldd	r27, Y+3	; 0x03
    2a02:	ce 5e       	subi	r28, 0xEE	; 238
    2a04:	d0 40       	sbci	r29, 0x00	; 0
    2a06:	9e 01       	movw	r18, r28
    2a08:	24 5a       	subi	r18, 0xA4	; 164
    2a0a:	3f 4f       	sbci	r19, 0xFF	; 255
    2a0c:	f9 01       	movw	r30, r18
    2a0e:	80 83       	st	Z, r24
    2a10:	91 83       	std	Z+1, r25	; 0x01
    2a12:	a2 83       	std	Z+2, r26	; 0x02
    2a14:	b3 83       	std	Z+3, r27	; 0x03

00002a16 <.LM306>:
    2a16:	8e 01       	movw	r16, r28
    2a18:	00 5a       	subi	r16, 0xA0	; 160
    2a1a:	1f 4f       	sbci	r17, 0xFF	; 255
    2a1c:	ce 01       	movw	r24, r28
    2a1e:	84 5a       	subi	r24, 0xA4	; 164
    2a20:	9f 4f       	sbci	r25, 0xFF	; 255
    2a22:	20 e0       	ldi	r18, 0x00	; 0
    2a24:	30 e0       	ldi	r19, 0x00	; 0
    2a26:	4a e7       	ldi	r20, 0x7A	; 122
    2a28:	55 e4       	ldi	r21, 0x45	; 69
    2a2a:	dc 01       	movw	r26, r24
    2a2c:	6d 91       	ld	r22, X+
    2a2e:	7d 91       	ld	r23, X+
    2a30:	8d 91       	ld	r24, X+
    2a32:	9c 91       	ld	r25, X
    2a34:	0e 94 da 26 	call	0x4db4	; 0x4db4 <__mulsf3>
    2a38:	ce 50       	subi	r28, 0x0E	; 14
    2a3a:	df 4f       	sbci	r29, 0xFF	; 255
    2a3c:	68 83       	st	Y, r22
    2a3e:	79 83       	std	Y+1, r23	; 0x01
    2a40:	8a 83       	std	Y+2, r24	; 0x02
    2a42:	9b 83       	std	Y+3, r25	; 0x03
    2a44:	c2 5f       	subi	r28, 0xF2	; 242
    2a46:	d0 40       	sbci	r29, 0x00	; 0
    2a48:	ce 50       	subi	r28, 0x0E	; 14
    2a4a:	df 4f       	sbci	r29, 0xFF	; 255
    2a4c:	88 81       	ld	r24, Y
    2a4e:	99 81       	ldd	r25, Y+1	; 0x01
    2a50:	aa 81       	ldd	r26, Y+2	; 0x02
    2a52:	bb 81       	ldd	r27, Y+3	; 0x03
    2a54:	c2 5f       	subi	r28, 0xF2	; 242
    2a56:	d0 40       	sbci	r29, 0x00	; 0
    2a58:	f8 01       	movw	r30, r16
    2a5a:	80 83       	st	Z, r24
    2a5c:	91 83       	std	Z+1, r25	; 0x01
    2a5e:	a2 83       	std	Z+2, r26	; 0x02
    2a60:	b3 83       	std	Z+3, r27	; 0x03

00002a62 <.LM307>:
    2a62:	ce 01       	movw	r24, r28
    2a64:	80 5a       	subi	r24, 0xA0	; 160
    2a66:	9f 4f       	sbci	r25, 0xFF	; 255
    2a68:	20 e0       	ldi	r18, 0x00	; 0
    2a6a:	30 e0       	ldi	r19, 0x00	; 0
    2a6c:	40 e8       	ldi	r20, 0x80	; 128
    2a6e:	5f e3       	ldi	r21, 0x3F	; 63
    2a70:	dc 01       	movw	r26, r24
    2a72:	6d 91       	ld	r22, X+
    2a74:	7d 91       	ld	r23, X+
    2a76:	8d 91       	ld	r24, X+
    2a78:	9c 91       	ld	r25, X
    2a7a:	0e 94 ba 25 	call	0x4b74	; 0x4b74 <__cmpsf2>
    2a7e:	88 23       	and	r24, r24
    2a80:	4c f4       	brge	.+18     	; 0x2a94 <.L293>

00002a82 <.LM308>:
    2a82:	ce 01       	movw	r24, r28
    2a84:	8c 59       	subi	r24, 0x9C	; 156
    2a86:	9f 4f       	sbci	r25, 0xFF	; 255
    2a88:	21 e0       	ldi	r18, 0x01	; 1
    2a8a:	30 e0       	ldi	r19, 0x00	; 0
    2a8c:	fc 01       	movw	r30, r24
    2a8e:	31 83       	std	Z+1, r19	; 0x01
    2a90:	20 83       	st	Z, r18
    2a92:	a2 c0       	rjmp	.+324    	; 0x2bd8 <.L213>

00002a94 <.L293>:
    2a94:	ce 01       	movw	r24, r28
    2a96:	80 5a       	subi	r24, 0xA0	; 160
    2a98:	9f 4f       	sbci	r25, 0xFF	; 255
    2a9a:	20 e0       	ldi	r18, 0x00	; 0
    2a9c:	3f ef       	ldi	r19, 0xFF	; 255
    2a9e:	4f e7       	ldi	r20, 0x7F	; 127
    2aa0:	57 e4       	ldi	r21, 0x47	; 71
    2aa2:	dc 01       	movw	r26, r24
    2aa4:	6d 91       	ld	r22, X+
    2aa6:	7d 91       	ld	r23, X+
    2aa8:	8d 91       	ld	r24, X+
    2aaa:	9c 91       	ld	r25, X
    2aac:	0e 94 d5 26 	call	0x4daa	; 0x4daa <__gesf2>
    2ab0:	18 16       	cp	r1, r24
    2ab2:	0c f0       	brlt	.+2      	; 0x2ab6 <.LM310>

00002ab4 <L0^A>:
    2ab4:	73 c0       	rjmp	.+230    	; 0x2b9c <.L294>

00002ab6 <.LM310>:
    2ab6:	ce 01       	movw	r24, r28
    2ab8:	84 5a       	subi	r24, 0xA4	; 164
    2aba:	9f 4f       	sbci	r25, 0xFF	; 255
    2abc:	20 e0       	ldi	r18, 0x00	; 0
    2abe:	30 e0       	ldi	r19, 0x00	; 0
    2ac0:	40 e2       	ldi	r20, 0x20	; 32
    2ac2:	51 e4       	ldi	r21, 0x41	; 65
    2ac4:	fc 01       	movw	r30, r24
    2ac6:	60 81       	ld	r22, Z
    2ac8:	71 81       	ldd	r23, Z+1	; 0x01
    2aca:	82 81       	ldd	r24, Z+2	; 0x02
    2acc:	93 81       	ldd	r25, Z+3	; 0x03
    2ace:	0e 94 da 26 	call	0x4db4	; 0x4db4 <__mulsf3>
    2ad2:	ca 50       	subi	r28, 0x0A	; 10
    2ad4:	df 4f       	sbci	r29, 0xFF	; 255
    2ad6:	68 83       	st	Y, r22
    2ad8:	79 83       	std	Y+1, r23	; 0x01
    2ada:	8a 83       	std	Y+2, r24	; 0x02
    2adc:	9b 83       	std	Y+3, r25	; 0x03
    2ade:	c6 5f       	subi	r28, 0xF6	; 246
    2ae0:	d0 40       	sbci	r29, 0x00	; 0
    2ae2:	ca 50       	subi	r28, 0x0A	; 10
    2ae4:	df 4f       	sbci	r29, 0xFF	; 255
    2ae6:	88 81       	ld	r24, Y
    2ae8:	99 81       	ldd	r25, Y+1	; 0x01
    2aea:	aa 81       	ldd	r26, Y+2	; 0x02
    2aec:	bb 81       	ldd	r27, Y+3	; 0x03
    2aee:	c6 5f       	subi	r28, 0xF6	; 246
    2af0:	d0 40       	sbci	r29, 0x00	; 0
    2af2:	ca 55       	subi	r28, 0x5A	; 90
    2af4:	df 4f       	sbci	r29, 0xFF	; 255
    2af6:	88 83       	st	Y, r24
    2af8:	99 83       	std	Y+1, r25	; 0x01
    2afa:	aa 83       	std	Y+2, r26	; 0x02
    2afc:	bb 83       	std	Y+3, r27	; 0x03
    2afe:	c6 5a       	subi	r28, 0xA6	; 166
    2b00:	d0 40       	sbci	r29, 0x00	; 0

00002b02 <.LM311>:
    2b02:	8e 01       	movw	r16, r28
    2b04:	0c 59       	subi	r16, 0x9C	; 156
    2b06:	1f 4f       	sbci	r17, 0xFF	; 255
    2b08:	ca 55       	subi	r28, 0x5A	; 90
    2b0a:	df 4f       	sbci	r29, 0xFF	; 255
    2b0c:	68 81       	ld	r22, Y
    2b0e:	79 81       	ldd	r23, Y+1	; 0x01
    2b10:	8a 81       	ldd	r24, Y+2	; 0x02
    2b12:	9b 81       	ldd	r25, Y+3	; 0x03
    2b14:	c6 5a       	subi	r28, 0xA6	; 166
    2b16:	d0 40       	sbci	r29, 0x00	; 0
    2b18:	0e 94 31 26 	call	0x4c62	; 0x4c62 <__fixunssfsi>
    2b1c:	c6 50       	subi	r28, 0x06	; 6
    2b1e:	df 4f       	sbci	r29, 0xFF	; 255
    2b20:	68 83       	st	Y, r22
    2b22:	79 83       	std	Y+1, r23	; 0x01
    2b24:	8a 83       	std	Y+2, r24	; 0x02
    2b26:	9b 83       	std	Y+3, r25	; 0x03
    2b28:	ca 5f       	subi	r28, 0xFA	; 250
    2b2a:	d0 40       	sbci	r29, 0x00	; 0
    2b2c:	c6 50       	subi	r28, 0x06	; 6
    2b2e:	df 4f       	sbci	r29, 0xFF	; 255
    2b30:	e8 81       	ld	r30, Y
    2b32:	f9 81       	ldd	r31, Y+1	; 0x01
    2b34:	ca 5f       	subi	r28, 0xFA	; 250
    2b36:	d0 40       	sbci	r29, 0x00	; 0
    2b38:	d8 01       	movw	r26, r16
    2b3a:	ed 93       	st	X+, r30
    2b3c:	fc 93       	st	X, r31

00002b3e <.LM312>:
    2b3e:	25 c0       	rjmp	.+74     	; 0x2b8a <.L216>

00002b40 <.L217>:
    2b40:	ce 01       	movw	r24, r28
    2b42:	8a 59       	subi	r24, 0x9A	; 154
    2b44:	9f 4f       	sbci	r25, 0xFF	; 255
    2b46:	20 e9       	ldi	r18, 0x90	; 144
    2b48:	31 e0       	ldi	r19, 0x01	; 1
    2b4a:	dc 01       	movw	r26, r24
    2b4c:	2d 93       	st	X+, r18
    2b4e:	3c 93       	st	X, r19

00002b50 <.LM313>:
    2b50:	ce 01       	movw	r24, r28
    2b52:	8a 59       	subi	r24, 0x9A	; 154
    2b54:	9f 4f       	sbci	r25, 0xFF	; 255
    2b56:	fc 01       	movw	r30, r24
    2b58:	80 81       	ld	r24, Z
    2b5a:	91 81       	ldd	r25, Z+1	; 0x01

00002b5c <.L1^B35>:
    2b5c:	01 97       	sbiw	r24, 0x01	; 1
    2b5e:	f1 f7       	brne	.-4      	; 0x2b5c <.L1^B35>
    2b60:	9e 01       	movw	r18, r28
    2b62:	2a 59       	subi	r18, 0x9A	; 154
    2b64:	3f 4f       	sbci	r19, 0xFF	; 255
    2b66:	d9 01       	movw	r26, r18
    2b68:	8d 93       	st	X+, r24
    2b6a:	9c 93       	st	X, r25

00002b6c <.LM314>:
	...

00002b6e <.LM315>:
    2b6e:	ce 01       	movw	r24, r28
    2b70:	8c 59       	subi	r24, 0x9C	; 156
    2b72:	9f 4f       	sbci	r25, 0xFF	; 255
    2b74:	9e 01       	movw	r18, r28
    2b76:	2c 59       	subi	r18, 0x9C	; 156
    2b78:	3f 4f       	sbci	r19, 0xFF	; 255
    2b7a:	f9 01       	movw	r30, r18
    2b7c:	20 81       	ld	r18, Z
    2b7e:	31 81       	ldd	r19, Z+1	; 0x01
    2b80:	21 50       	subi	r18, 0x01	; 1
    2b82:	31 09       	sbc	r19, r1
    2b84:	dc 01       	movw	r26, r24
    2b86:	2d 93       	st	X+, r18
    2b88:	3c 93       	st	X, r19

00002b8a <.L216>:
    2b8a:	ce 01       	movw	r24, r28
    2b8c:	8c 59       	subi	r24, 0x9C	; 156
    2b8e:	9f 4f       	sbci	r25, 0xFF	; 255
    2b90:	fc 01       	movw	r30, r24
    2b92:	80 81       	ld	r24, Z
    2b94:	91 81       	ldd	r25, Z+1	; 0x01
    2b96:	89 2b       	or	r24, r25
    2b98:	99 f6       	brne	.-90     	; 0x2b40 <.L217>

00002b9a <.LM317>:
    2b9a:	39 c0       	rjmp	.+114    	; 0x2c0e <.L218>

00002b9c <.L294>:
    2b9c:	8e 01       	movw	r16, r28
    2b9e:	0c 59       	subi	r16, 0x9C	; 156
    2ba0:	1f 4f       	sbci	r17, 0xFF	; 255
    2ba2:	ce 01       	movw	r24, r28
    2ba4:	80 5a       	subi	r24, 0xA0	; 160
    2ba6:	9f 4f       	sbci	r25, 0xFF	; 255
    2ba8:	dc 01       	movw	r26, r24
    2baa:	6d 91       	ld	r22, X+
    2bac:	7d 91       	ld	r23, X+
    2bae:	8d 91       	ld	r24, X+
    2bb0:	9c 91       	ld	r25, X
    2bb2:	0e 94 31 26 	call	0x4c62	; 0x4c62 <__fixunssfsi>
    2bb6:	c2 50       	subi	r28, 0x02	; 2
    2bb8:	df 4f       	sbci	r29, 0xFF	; 255
    2bba:	68 83       	st	Y, r22
    2bbc:	79 83       	std	Y+1, r23	; 0x01
    2bbe:	8a 83       	std	Y+2, r24	; 0x02
    2bc0:	9b 83       	std	Y+3, r25	; 0x03
    2bc2:	ce 5f       	subi	r28, 0xFE	; 254
    2bc4:	d0 40       	sbci	r29, 0x00	; 0
    2bc6:	c2 50       	subi	r28, 0x02	; 2
    2bc8:	df 4f       	sbci	r29, 0xFF	; 255
    2bca:	88 81       	ld	r24, Y
    2bcc:	99 81       	ldd	r25, Y+1	; 0x01
    2bce:	ce 5f       	subi	r28, 0xFE	; 254
    2bd0:	d0 40       	sbci	r29, 0x00	; 0
    2bd2:	f8 01       	movw	r30, r16
    2bd4:	91 83       	std	Z+1, r25	; 0x01
    2bd6:	80 83       	st	Z, r24

00002bd8 <.L213>:
    2bd8:	ce 01       	movw	r24, r28
    2bda:	88 59       	subi	r24, 0x98	; 152
    2bdc:	9f 4f       	sbci	r25, 0xFF	; 255
    2bde:	9e 01       	movw	r18, r28
    2be0:	2c 59       	subi	r18, 0x9C	; 156
    2be2:	3f 4f       	sbci	r19, 0xFF	; 255
    2be4:	d9 01       	movw	r26, r18
    2be6:	2d 91       	ld	r18, X+
    2be8:	3c 91       	ld	r19, X
    2bea:	fc 01       	movw	r30, r24
    2bec:	31 83       	std	Z+1, r19	; 0x01
    2bee:	20 83       	st	Z, r18

00002bf0 <.LM319>:
    2bf0:	ce 01       	movw	r24, r28
    2bf2:	88 59       	subi	r24, 0x98	; 152
    2bf4:	9f 4f       	sbci	r25, 0xFF	; 255
    2bf6:	dc 01       	movw	r26, r24
    2bf8:	8d 91       	ld	r24, X+
    2bfa:	9c 91       	ld	r25, X

00002bfc <.L1^B36>:
    2bfc:	01 97       	sbiw	r24, 0x01	; 1
    2bfe:	f1 f7       	brne	.-4      	; 0x2bfc <.L1^B36>
    2c00:	9e 01       	movw	r18, r28
    2c02:	28 59       	subi	r18, 0x98	; 152
    2c04:	3f 4f       	sbci	r19, 0xFF	; 255
    2c06:	f9 01       	movw	r30, r18
    2c08:	91 83       	std	Z+1, r25	; 0x01
    2c0a:	80 83       	st	Z, r24

00002c0c <.LM320>:
	...

00002c0e <.L218>:
    2c0e:	7e c0       	rjmp	.+252    	; 0x2d0c <.L219>

00002c10 <.L292>:
    2c10:	ce 01       	movw	r24, r28
    2c12:	8d 5a       	subi	r24, 0xAD	; 173
    2c14:	9f 4f       	sbci	r25, 0xFF	; 255
    2c16:	20 e0       	ldi	r18, 0x00	; 0
    2c18:	30 e0       	ldi	r19, 0x00	; 0
    2c1a:	4f e7       	ldi	r20, 0x7F	; 127
    2c1c:	53 e4       	ldi	r21, 0x43	; 67
    2c1e:	dc 01       	movw	r26, r24
    2c20:	6d 91       	ld	r22, X+
    2c22:	7d 91       	ld	r23, X+
    2c24:	8d 91       	ld	r24, X+
    2c26:	9c 91       	ld	r25, X
    2c28:	0e 94 d5 26 	call	0x4daa	; 0x4daa <__gesf2>
    2c2c:	18 16       	cp	r1, r24
    2c2e:	d4 f5       	brge	.+116    	; 0x2ca4 <.L295>

00002c30 <.LM323>:
    2c30:	8e 01       	movw	r16, r28
    2c32:	06 59       	subi	r16, 0x96	; 150
    2c34:	1f 4f       	sbci	r17, 0xFF	; 255
    2c36:	ce 01       	movw	r24, r28
    2c38:	89 5a       	subi	r24, 0xA9	; 169
    2c3a:	9f 4f       	sbci	r25, 0xFF	; 255
    2c3c:	fc 01       	movw	r30, r24
    2c3e:	60 81       	ld	r22, Z
    2c40:	71 81       	ldd	r23, Z+1	; 0x01
    2c42:	82 81       	ldd	r24, Z+2	; 0x02
    2c44:	93 81       	ldd	r25, Z+3	; 0x03
    2c46:	0e 94 31 26 	call	0x4c62	; 0x4c62 <__fixunssfsi>
    2c4a:	ce 5f       	subi	r28, 0xFE	; 254
    2c4c:	de 4f       	sbci	r29, 0xFE	; 254
    2c4e:	68 83       	st	Y, r22
    2c50:	79 83       	std	Y+1, r23	; 0x01
    2c52:	8a 83       	std	Y+2, r24	; 0x02
    2c54:	9b 83       	std	Y+3, r25	; 0x03
    2c56:	c2 50       	subi	r28, 0x02	; 2
    2c58:	d1 40       	sbci	r29, 0x01	; 1
    2c5a:	ce 5f       	subi	r28, 0xFE	; 254
    2c5c:	de 4f       	sbci	r29, 0xFE	; 254
    2c5e:	e8 81       	ld	r30, Y
    2c60:	f9 81       	ldd	r31, Y+1	; 0x01
    2c62:	c2 50       	subi	r28, 0x02	; 2
    2c64:	d1 40       	sbci	r29, 0x01	; 1
    2c66:	d8 01       	movw	r26, r16
    2c68:	ed 93       	st	X+, r30
    2c6a:	fc 93       	st	X, r31
    2c6c:	ce 01       	movw	r24, r28
    2c6e:	84 59       	subi	r24, 0x94	; 148
    2c70:	9f 4f       	sbci	r25, 0xFF	; 255
    2c72:	9e 01       	movw	r18, r28
    2c74:	26 59       	subi	r18, 0x96	; 150
    2c76:	3f 4f       	sbci	r19, 0xFF	; 255
    2c78:	d9 01       	movw	r26, r18
    2c7a:	2d 91       	ld	r18, X+
    2c7c:	3c 91       	ld	r19, X
    2c7e:	fc 01       	movw	r30, r24
    2c80:	31 83       	std	Z+1, r19	; 0x01
    2c82:	20 83       	st	Z, r18

00002c84 <.LM324>:
    2c84:	ce 01       	movw	r24, r28
    2c86:	84 59       	subi	r24, 0x94	; 148
    2c88:	9f 4f       	sbci	r25, 0xFF	; 255
    2c8a:	dc 01       	movw	r26, r24
    2c8c:	8d 91       	ld	r24, X+
    2c8e:	9c 91       	ld	r25, X

00002c90 <.L1^B37>:
    2c90:	01 97       	sbiw	r24, 0x01	; 1
    2c92:	f1 f7       	brne	.-4      	; 0x2c90 <.L1^B37>
    2c94:	9e 01       	movw	r18, r28
    2c96:	24 59       	subi	r18, 0x94	; 148
    2c98:	3f 4f       	sbci	r19, 0xFF	; 255
    2c9a:	f9 01       	movw	r30, r18
    2c9c:	91 83       	std	Z+1, r25	; 0x01
    2c9e:	80 83       	st	Z, r24

00002ca0 <.LM325>:
	...

00002ca2 <.LM326>:
    2ca2:	34 c0       	rjmp	.+104    	; 0x2d0c <.L219>

00002ca4 <.L295>:
    2ca4:	8e 01       	movw	r16, r28
    2ca6:	05 5a       	subi	r16, 0xA5	; 165
    2ca8:	1f 4f       	sbci	r17, 0xFF	; 255
    2caa:	ce 01       	movw	r24, r28
    2cac:	8d 5a       	subi	r24, 0xAD	; 173
    2cae:	9f 4f       	sbci	r25, 0xFF	; 255
    2cb0:	dc 01       	movw	r26, r24
    2cb2:	6d 91       	ld	r22, X+
    2cb4:	7d 91       	ld	r23, X+
    2cb6:	8d 91       	ld	r24, X+
    2cb8:	9c 91       	ld	r25, X
    2cba:	0e 94 31 26 	call	0x4c62	; 0x4c62 <__fixunssfsi>
    2cbe:	ca 5f       	subi	r28, 0xFA	; 250
    2cc0:	de 4f       	sbci	r29, 0xFE	; 254
    2cc2:	68 83       	st	Y, r22
    2cc4:	79 83       	std	Y+1, r23	; 0x01
    2cc6:	8a 83       	std	Y+2, r24	; 0x02
    2cc8:	9b 83       	std	Y+3, r25	; 0x03
    2cca:	c6 50       	subi	r28, 0x06	; 6
    2ccc:	d1 40       	sbci	r29, 0x01	; 1
    2cce:	ca 5f       	subi	r28, 0xFA	; 250
    2cd0:	de 4f       	sbci	r29, 0xFE	; 254
    2cd2:	88 81       	ld	r24, Y
    2cd4:	c6 50       	subi	r28, 0x06	; 6
    2cd6:	d1 40       	sbci	r29, 0x01	; 1
    2cd8:	f8 01       	movw	r30, r16
    2cda:	80 83       	st	Z, r24

00002cdc <.L208>:
    2cdc:	ce 01       	movw	r24, r28
    2cde:	82 59       	subi	r24, 0x92	; 146
    2ce0:	9f 4f       	sbci	r25, 0xFF	; 255
    2ce2:	9e 01       	movw	r18, r28
    2ce4:	25 5a       	subi	r18, 0xA5	; 165
    2ce6:	3f 4f       	sbci	r19, 0xFF	; 255
    2ce8:	d9 01       	movw	r26, r18
    2cea:	2c 91       	ld	r18, X
    2cec:	fc 01       	movw	r30, r24
    2cee:	20 83       	st	Z, r18

00002cf0 <.LM328>:
    2cf0:	ce 01       	movw	r24, r28
    2cf2:	82 59       	subi	r24, 0x92	; 146
    2cf4:	9f 4f       	sbci	r25, 0xFF	; 255
    2cf6:	dc 01       	movw	r26, r24
    2cf8:	8c 91       	ld	r24, X
    2cfa:	28 2f       	mov	r18, r24

00002cfc <.L1^B38>:
    2cfc:	2a 95       	dec	r18
    2cfe:	f1 f7       	brne	.-4      	; 0x2cfc <.L1^B38>
    2d00:	ce 01       	movw	r24, r28
    2d02:	82 59       	subi	r24, 0x92	; 146
    2d04:	9f 4f       	sbci	r25, 0xFF	; 255
    2d06:	fc 01       	movw	r30, r24
    2d08:	20 83       	st	Z, r18

00002d0a <.LM329>:
	...

00002d0c <.L219>:
    2d0c:	41 e0       	ldi	r20, 0x01	; 1
    2d0e:	62 e0       	ldi	r22, 0x02	; 2
    2d10:	80 e0       	ldi	r24, 0x00	; 0
    2d12:	0e 94 66 01 	call	0x2cc	; 0x2cc <GPIO_writePin>
    2d16:	80 e0       	ldi	r24, 0x00	; 0
    2d18:	90 e0       	ldi	r25, 0x00	; 0
    2d1a:	a0 e8       	ldi	r26, 0x80	; 128
    2d1c:	bf e3       	ldi	r27, 0x3F	; 63
    2d1e:	8f a7       	std	Y+47, r24	; 0x2f
    2d20:	98 ab       	std	Y+48, r25	; 0x30
    2d22:	a9 ab       	std	Y+49, r26	; 0x31
    2d24:	ba ab       	std	Y+50, r27	; 0x32

00002d26 <.LM331>:
    2d26:	2b ea       	ldi	r18, 0xAB	; 171
    2d28:	3a ea       	ldi	r19, 0xAA	; 170
    2d2a:	4a ea       	ldi	r20, 0xAA	; 170
    2d2c:	50 e4       	ldi	r21, 0x40	; 64
    2d2e:	6f a5       	ldd	r22, Y+47	; 0x2f
    2d30:	78 a9       	ldd	r23, Y+48	; 0x30
    2d32:	89 a9       	ldd	r24, Y+49	; 0x31
    2d34:	9a a9       	ldd	r25, Y+50	; 0x32
    2d36:	0e 94 da 26 	call	0x4db4	; 0x4db4 <__mulsf3>
    2d3a:	c6 5f       	subi	r28, 0xF6	; 246
    2d3c:	de 4f       	sbci	r29, 0xFE	; 254
    2d3e:	68 83       	st	Y, r22
    2d40:	79 83       	std	Y+1, r23	; 0x01
    2d42:	8a 83       	std	Y+2, r24	; 0x02
    2d44:	9b 83       	std	Y+3, r25	; 0x03
    2d46:	ca 50       	subi	r28, 0x0A	; 10
    2d48:	d1 40       	sbci	r29, 0x01	; 1
    2d4a:	c6 5f       	subi	r28, 0xF6	; 246
    2d4c:	de 4f       	sbci	r29, 0xFE	; 254
    2d4e:	88 81       	ld	r24, Y
    2d50:	99 81       	ldd	r25, Y+1	; 0x01
    2d52:	aa 81       	ldd	r26, Y+2	; 0x02
    2d54:	bb 81       	ldd	r27, Y+3	; 0x03
    2d56:	ca 50       	subi	r28, 0x0A	; 10
    2d58:	d1 40       	sbci	r29, 0x01	; 1
    2d5a:	8b ab       	std	Y+51, r24	; 0x33
    2d5c:	9c ab       	std	Y+52, r25	; 0x34
    2d5e:	ad ab       	std	Y+53, r26	; 0x35
    2d60:	be ab       	std	Y+54, r27	; 0x36

00002d62 <.LM332>:
    2d62:	20 e0       	ldi	r18, 0x00	; 0
    2d64:	30 e0       	ldi	r19, 0x00	; 0
    2d66:	40 e8       	ldi	r20, 0x80	; 128
    2d68:	50 e4       	ldi	r21, 0x40	; 64
    2d6a:	6f a5       	ldd	r22, Y+47	; 0x2f
    2d6c:	78 a9       	ldd	r23, Y+48	; 0x30
    2d6e:	89 a9       	ldd	r24, Y+49	; 0x31
    2d70:	9a a9       	ldd	r25, Y+50	; 0x32
    2d72:	0e 94 da 26 	call	0x4db4	; 0x4db4 <__mulsf3>
    2d76:	c2 5f       	subi	r28, 0xF2	; 242
    2d78:	de 4f       	sbci	r29, 0xFE	; 254
    2d7a:	68 83       	st	Y, r22
    2d7c:	79 83       	std	Y+1, r23	; 0x01
    2d7e:	8a 83       	std	Y+2, r24	; 0x02
    2d80:	9b 83       	std	Y+3, r25	; 0x03
    2d82:	ce 50       	subi	r28, 0x0E	; 14
    2d84:	d1 40       	sbci	r29, 0x01	; 1
    2d86:	c2 5f       	subi	r28, 0xF2	; 242
    2d88:	de 4f       	sbci	r29, 0xFE	; 254
    2d8a:	88 81       	ld	r24, Y
    2d8c:	99 81       	ldd	r25, Y+1	; 0x01
    2d8e:	aa 81       	ldd	r26, Y+2	; 0x02
    2d90:	bb 81       	ldd	r27, Y+3	; 0x03
    2d92:	ce 50       	subi	r28, 0x0E	; 14
    2d94:	d1 40       	sbci	r29, 0x01	; 1
    2d96:	8f ab       	std	Y+55, r24	; 0x37
    2d98:	98 af       	std	Y+56, r25	; 0x38
    2d9a:	a9 af       	std	Y+57, r26	; 0x39
    2d9c:	ba af       	std	Y+58, r27	; 0x3a

00002d9e <.LM333>:
    2d9e:	20 e0       	ldi	r18, 0x00	; 0
    2da0:	30 e0       	ldi	r19, 0x00	; 0
    2da2:	40 e8       	ldi	r20, 0x80	; 128
    2da4:	5f e3       	ldi	r21, 0x3F	; 63
    2da6:	6b a9       	ldd	r22, Y+51	; 0x33
    2da8:	7c a9       	ldd	r23, Y+52	; 0x34
    2daa:	8d a9       	ldd	r24, Y+53	; 0x35
    2dac:	9e a9       	ldd	r25, Y+54	; 0x36
    2dae:	0e 94 ba 25 	call	0x4b74	; 0x4b74 <__cmpsf2>
    2db2:	88 23       	and	r24, r24
    2db4:	1c f4       	brge	.+6      	; 0x2dbc <.L296>

00002db6 <.LM334>:
    2db6:	81 e0       	ldi	r24, 0x01	; 1
    2db8:	8b af       	std	Y+59, r24	; 0x3b
    2dba:	76 c1       	rjmp	.+748    	; 0x30a8 <.L224>

00002dbc <.L296>:
    2dbc:	20 e0       	ldi	r18, 0x00	; 0
    2dbe:	3f ef       	ldi	r19, 0xFF	; 255
    2dc0:	4f e7       	ldi	r20, 0x7F	; 127
    2dc2:	57 e4       	ldi	r21, 0x47	; 71
    2dc4:	6f a9       	ldd	r22, Y+55	; 0x37
    2dc6:	78 ad       	ldd	r23, Y+56	; 0x38
    2dc8:	89 ad       	ldd	r24, Y+57	; 0x39
    2dca:	9a ad       	ldd	r25, Y+58	; 0x3a
    2dcc:	0e 94 d5 26 	call	0x4daa	; 0x4daa <__gesf2>
    2dd0:	18 16       	cp	r1, r24
    2dd2:	0c f0       	brlt	.+2      	; 0x2dd6 <.LM336>

00002dd4 <L0^A>:
    2dd4:	13 c1       	rjmp	.+550    	; 0x2ffc <.L297>

00002dd6 <.LM336>:
    2dd6:	20 e0       	ldi	r18, 0x00	; 0
    2dd8:	30 e0       	ldi	r19, 0x00	; 0
    2dda:	4a e7       	ldi	r20, 0x7A	; 122
    2ddc:	54 e4       	ldi	r21, 0x44	; 68
    2dde:	6f a5       	ldd	r22, Y+47	; 0x2f
    2de0:	78 a9       	ldd	r23, Y+48	; 0x30
    2de2:	89 a9       	ldd	r24, Y+49	; 0x31
    2de4:	9a a9       	ldd	r25, Y+50	; 0x32
    2de6:	0e 94 bf 25 	call	0x4b7e	; 0x4b7e <__divsf3>
    2dea:	ce 5e       	subi	r28, 0xEE	; 238
    2dec:	de 4f       	sbci	r29, 0xFE	; 254
    2dee:	68 83       	st	Y, r22
    2df0:	79 83       	std	Y+1, r23	; 0x01
    2df2:	8a 83       	std	Y+2, r24	; 0x02
    2df4:	9b 83       	std	Y+3, r25	; 0x03
    2df6:	c2 51       	subi	r28, 0x12	; 18
    2df8:	d1 40       	sbci	r29, 0x01	; 1
    2dfa:	ce 5e       	subi	r28, 0xEE	; 238
    2dfc:	de 4f       	sbci	r29, 0xFE	; 254
    2dfe:	88 81       	ld	r24, Y
    2e00:	99 81       	ldd	r25, Y+1	; 0x01
    2e02:	aa 81       	ldd	r26, Y+2	; 0x02
    2e04:	bb 81       	ldd	r27, Y+3	; 0x03
    2e06:	c2 51       	subi	r28, 0x12	; 18
    2e08:	d1 40       	sbci	r29, 0x01	; 1
    2e0a:	8c af       	std	Y+60, r24	; 0x3c
    2e0c:	9d af       	std	Y+61, r25	; 0x3d
    2e0e:	ae af       	std	Y+62, r26	; 0x3e
    2e10:	bf af       	std	Y+63, r27	; 0x3f

00002e12 <.LM337>:
    2e12:	8e 01       	movw	r16, r28
    2e14:	00 5c       	subi	r16, 0xC0	; 192
    2e16:	1f 4f       	sbci	r17, 0xFF	; 255
    2e18:	20 e0       	ldi	r18, 0x00	; 0
    2e1a:	30 e0       	ldi	r19, 0x00	; 0
    2e1c:	4a e7       	ldi	r20, 0x7A	; 122
    2e1e:	55 e4       	ldi	r21, 0x45	; 69
    2e20:	6c ad       	ldd	r22, Y+60	; 0x3c
    2e22:	7d ad       	ldd	r23, Y+61	; 0x3d
    2e24:	8e ad       	ldd	r24, Y+62	; 0x3e
    2e26:	9f ad       	ldd	r25, Y+63	; 0x3f
    2e28:	0e 94 da 26 	call	0x4db4	; 0x4db4 <__mulsf3>
    2e2c:	ca 5e       	subi	r28, 0xEA	; 234
    2e2e:	de 4f       	sbci	r29, 0xFE	; 254
    2e30:	68 83       	st	Y, r22
    2e32:	79 83       	std	Y+1, r23	; 0x01
    2e34:	8a 83       	std	Y+2, r24	; 0x02
    2e36:	9b 83       	std	Y+3, r25	; 0x03
    2e38:	c6 51       	subi	r28, 0x16	; 22
    2e3a:	d1 40       	sbci	r29, 0x01	; 1
    2e3c:	ca 5e       	subi	r28, 0xEA	; 234
    2e3e:	de 4f       	sbci	r29, 0xFE	; 254
    2e40:	88 81       	ld	r24, Y
    2e42:	99 81       	ldd	r25, Y+1	; 0x01
    2e44:	aa 81       	ldd	r26, Y+2	; 0x02
    2e46:	bb 81       	ldd	r27, Y+3	; 0x03
    2e48:	c6 51       	subi	r28, 0x16	; 22
    2e4a:	d1 40       	sbci	r29, 0x01	; 1
    2e4c:	f8 01       	movw	r30, r16
    2e4e:	80 83       	st	Z, r24
    2e50:	91 83       	std	Z+1, r25	; 0x01
    2e52:	a2 83       	std	Z+2, r26	; 0x02
    2e54:	b3 83       	std	Z+3, r27	; 0x03

00002e56 <.LM338>:
    2e56:	ce 01       	movw	r24, r28
    2e58:	80 5c       	subi	r24, 0xC0	; 192
    2e5a:	9f 4f       	sbci	r25, 0xFF	; 255
    2e5c:	20 e0       	ldi	r18, 0x00	; 0
    2e5e:	30 e0       	ldi	r19, 0x00	; 0
    2e60:	40 e8       	ldi	r20, 0x80	; 128
    2e62:	5f e3       	ldi	r21, 0x3F	; 63
    2e64:	dc 01       	movw	r26, r24
    2e66:	6d 91       	ld	r22, X+
    2e68:	7d 91       	ld	r23, X+
    2e6a:	8d 91       	ld	r24, X+
    2e6c:	9c 91       	ld	r25, X
    2e6e:	0e 94 ba 25 	call	0x4b74	; 0x4b74 <__cmpsf2>
    2e72:	88 23       	and	r24, r24
    2e74:	4c f4       	brge	.+18     	; 0x2e88 <.L298>

00002e76 <.LM339>:
    2e76:	ce 01       	movw	r24, r28
    2e78:	8c 5b       	subi	r24, 0xBC	; 188
    2e7a:	9f 4f       	sbci	r25, 0xFF	; 255
    2e7c:	21 e0       	ldi	r18, 0x01	; 1
    2e7e:	30 e0       	ldi	r19, 0x00	; 0
    2e80:	fc 01       	movw	r30, r24
    2e82:	31 83       	std	Z+1, r19	; 0x01
    2e84:	20 83       	st	Z, r18
    2e86:	9e c0       	rjmp	.+316    	; 0x2fc4 <.L229>

00002e88 <.L298>:
    2e88:	ce 01       	movw	r24, r28
    2e8a:	80 5c       	subi	r24, 0xC0	; 192
    2e8c:	9f 4f       	sbci	r25, 0xFF	; 255
    2e8e:	20 e0       	ldi	r18, 0x00	; 0
    2e90:	3f ef       	ldi	r19, 0xFF	; 255
    2e92:	4f e7       	ldi	r20, 0x7F	; 127
    2e94:	57 e4       	ldi	r21, 0x47	; 71
    2e96:	dc 01       	movw	r26, r24
    2e98:	6d 91       	ld	r22, X+
    2e9a:	7d 91       	ld	r23, X+
    2e9c:	8d 91       	ld	r24, X+
    2e9e:	9c 91       	ld	r25, X
    2ea0:	0e 94 d5 26 	call	0x4daa	; 0x4daa <__gesf2>
    2ea4:	18 16       	cp	r1, r24
    2ea6:	0c f0       	brlt	.+2      	; 0x2eaa <.LM341>

00002ea8 <L0^A>:
    2ea8:	6f c0       	rjmp	.+222    	; 0x2f88 <.L299>

00002eaa <.LM341>:
    2eaa:	20 e0       	ldi	r18, 0x00	; 0
    2eac:	30 e0       	ldi	r19, 0x00	; 0
    2eae:	40 e2       	ldi	r20, 0x20	; 32
    2eb0:	51 e4       	ldi	r21, 0x41	; 65
    2eb2:	6c ad       	ldd	r22, Y+60	; 0x3c
    2eb4:	7d ad       	ldd	r23, Y+61	; 0x3d
    2eb6:	8e ad       	ldd	r24, Y+62	; 0x3e
    2eb8:	9f ad       	ldd	r25, Y+63	; 0x3f
    2eba:	0e 94 da 26 	call	0x4db4	; 0x4db4 <__mulsf3>
    2ebe:	c6 5e       	subi	r28, 0xE6	; 230
    2ec0:	de 4f       	sbci	r29, 0xFE	; 254
    2ec2:	68 83       	st	Y, r22
    2ec4:	79 83       	std	Y+1, r23	; 0x01
    2ec6:	8a 83       	std	Y+2, r24	; 0x02
    2ec8:	9b 83       	std	Y+3, r25	; 0x03
    2eca:	ca 51       	subi	r28, 0x1A	; 26
    2ecc:	d1 40       	sbci	r29, 0x01	; 1
    2ece:	c6 5e       	subi	r28, 0xE6	; 230
    2ed0:	de 4f       	sbci	r29, 0xFE	; 254
    2ed2:	88 81       	ld	r24, Y
    2ed4:	99 81       	ldd	r25, Y+1	; 0x01
    2ed6:	aa 81       	ldd	r26, Y+2	; 0x02
    2ed8:	bb 81       	ldd	r27, Y+3	; 0x03
    2eda:	ca 51       	subi	r28, 0x1A	; 26
    2edc:	d1 40       	sbci	r29, 0x01	; 1
    2ede:	ce 55       	subi	r28, 0x5E	; 94
    2ee0:	df 4f       	sbci	r29, 0xFF	; 255
    2ee2:	88 83       	st	Y, r24
    2ee4:	99 83       	std	Y+1, r25	; 0x01
    2ee6:	aa 83       	std	Y+2, r26	; 0x02
    2ee8:	bb 83       	std	Y+3, r27	; 0x03
    2eea:	c2 5a       	subi	r28, 0xA2	; 162
    2eec:	d0 40       	sbci	r29, 0x00	; 0

00002eee <.LM342>:
    2eee:	8e 01       	movw	r16, r28
    2ef0:	0c 5b       	subi	r16, 0xBC	; 188
    2ef2:	1f 4f       	sbci	r17, 0xFF	; 255
    2ef4:	ce 55       	subi	r28, 0x5E	; 94
    2ef6:	df 4f       	sbci	r29, 0xFF	; 255
    2ef8:	68 81       	ld	r22, Y
    2efa:	79 81       	ldd	r23, Y+1	; 0x01
    2efc:	8a 81       	ldd	r24, Y+2	; 0x02
    2efe:	9b 81       	ldd	r25, Y+3	; 0x03
    2f00:	c2 5a       	subi	r28, 0xA2	; 162
    2f02:	d0 40       	sbci	r29, 0x00	; 0
    2f04:	0e 94 31 26 	call	0x4c62	; 0x4c62 <__fixunssfsi>
    2f08:	c2 5e       	subi	r28, 0xE2	; 226
    2f0a:	de 4f       	sbci	r29, 0xFE	; 254
    2f0c:	68 83       	st	Y, r22
    2f0e:	79 83       	std	Y+1, r23	; 0x01
    2f10:	8a 83       	std	Y+2, r24	; 0x02
    2f12:	9b 83       	std	Y+3, r25	; 0x03
    2f14:	ce 51       	subi	r28, 0x1E	; 30
    2f16:	d1 40       	sbci	r29, 0x01	; 1
    2f18:	c2 5e       	subi	r28, 0xE2	; 226
    2f1a:	de 4f       	sbci	r29, 0xFE	; 254
    2f1c:	e8 81       	ld	r30, Y
    2f1e:	f9 81       	ldd	r31, Y+1	; 0x01
    2f20:	ce 51       	subi	r28, 0x1E	; 30
    2f22:	d1 40       	sbci	r29, 0x01	; 1
    2f24:	d8 01       	movw	r26, r16
    2f26:	ed 93       	st	X+, r30
    2f28:	fc 93       	st	X, r31

00002f2a <.LM343>:
    2f2a:	25 c0       	rjmp	.+74     	; 0x2f76 <.L232>

00002f2c <.L233>:
    2f2c:	ce 01       	movw	r24, r28
    2f2e:	8a 5b       	subi	r24, 0xBA	; 186
    2f30:	9f 4f       	sbci	r25, 0xFF	; 255
    2f32:	20 e9       	ldi	r18, 0x90	; 144
    2f34:	31 e0       	ldi	r19, 0x01	; 1
    2f36:	dc 01       	movw	r26, r24
    2f38:	2d 93       	st	X+, r18
    2f3a:	3c 93       	st	X, r19

00002f3c <.LM344>:
    2f3c:	ce 01       	movw	r24, r28
    2f3e:	8a 5b       	subi	r24, 0xBA	; 186
    2f40:	9f 4f       	sbci	r25, 0xFF	; 255
    2f42:	fc 01       	movw	r30, r24
    2f44:	80 81       	ld	r24, Z
    2f46:	91 81       	ldd	r25, Z+1	; 0x01

00002f48 <.L1^B39>:
    2f48:	01 97       	sbiw	r24, 0x01	; 1
    2f4a:	f1 f7       	brne	.-4      	; 0x2f48 <.L1^B39>
    2f4c:	9e 01       	movw	r18, r28
    2f4e:	2a 5b       	subi	r18, 0xBA	; 186
    2f50:	3f 4f       	sbci	r19, 0xFF	; 255
    2f52:	d9 01       	movw	r26, r18
    2f54:	8d 93       	st	X+, r24
    2f56:	9c 93       	st	X, r25

00002f58 <.LM345>:
	...

00002f5a <.LM346>:
    2f5a:	ce 01       	movw	r24, r28
    2f5c:	8c 5b       	subi	r24, 0xBC	; 188
    2f5e:	9f 4f       	sbci	r25, 0xFF	; 255
    2f60:	9e 01       	movw	r18, r28
    2f62:	2c 5b       	subi	r18, 0xBC	; 188
    2f64:	3f 4f       	sbci	r19, 0xFF	; 255
    2f66:	f9 01       	movw	r30, r18
    2f68:	20 81       	ld	r18, Z
    2f6a:	31 81       	ldd	r19, Z+1	; 0x01
    2f6c:	21 50       	subi	r18, 0x01	; 1
    2f6e:	31 09       	sbc	r19, r1
    2f70:	dc 01       	movw	r26, r24
    2f72:	2d 93       	st	X+, r18
    2f74:	3c 93       	st	X, r19

00002f76 <.L232>:
    2f76:	ce 01       	movw	r24, r28
    2f78:	8c 5b       	subi	r24, 0xBC	; 188
    2f7a:	9f 4f       	sbci	r25, 0xFF	; 255
    2f7c:	fc 01       	movw	r30, r24
    2f7e:	80 81       	ld	r24, Z
    2f80:	91 81       	ldd	r25, Z+1	; 0x01
    2f82:	89 2b       	or	r24, r25
    2f84:	99 f6       	brne	.-90     	; 0x2f2c <.L233>

00002f86 <.LM348>:
    2f86:	39 c0       	rjmp	.+114    	; 0x2ffa <.L234>

00002f88 <.L299>:
    2f88:	8e 01       	movw	r16, r28
    2f8a:	0c 5b       	subi	r16, 0xBC	; 188
    2f8c:	1f 4f       	sbci	r17, 0xFF	; 255
    2f8e:	ce 01       	movw	r24, r28
    2f90:	80 5c       	subi	r24, 0xC0	; 192
    2f92:	9f 4f       	sbci	r25, 0xFF	; 255
    2f94:	dc 01       	movw	r26, r24
    2f96:	6d 91       	ld	r22, X+
    2f98:	7d 91       	ld	r23, X+
    2f9a:	8d 91       	ld	r24, X+
    2f9c:	9c 91       	ld	r25, X
    2f9e:	0e 94 31 26 	call	0x4c62	; 0x4c62 <__fixunssfsi>
    2fa2:	ce 5d       	subi	r28, 0xDE	; 222
    2fa4:	de 4f       	sbci	r29, 0xFE	; 254
    2fa6:	68 83       	st	Y, r22
    2fa8:	79 83       	std	Y+1, r23	; 0x01
    2faa:	8a 83       	std	Y+2, r24	; 0x02
    2fac:	9b 83       	std	Y+3, r25	; 0x03
    2fae:	c2 52       	subi	r28, 0x22	; 34
    2fb0:	d1 40       	sbci	r29, 0x01	; 1
    2fb2:	ce 5d       	subi	r28, 0xDE	; 222
    2fb4:	de 4f       	sbci	r29, 0xFE	; 254
    2fb6:	88 81       	ld	r24, Y
    2fb8:	99 81       	ldd	r25, Y+1	; 0x01
    2fba:	c2 52       	subi	r28, 0x22	; 34
    2fbc:	d1 40       	sbci	r29, 0x01	; 1
    2fbe:	f8 01       	movw	r30, r16
    2fc0:	91 83       	std	Z+1, r25	; 0x01
    2fc2:	80 83       	st	Z, r24

00002fc4 <.L229>:
    2fc4:	ce 01       	movw	r24, r28
    2fc6:	88 5b       	subi	r24, 0xB8	; 184
    2fc8:	9f 4f       	sbci	r25, 0xFF	; 255
    2fca:	9e 01       	movw	r18, r28
    2fcc:	2c 5b       	subi	r18, 0xBC	; 188
    2fce:	3f 4f       	sbci	r19, 0xFF	; 255
    2fd0:	d9 01       	movw	r26, r18
    2fd2:	2d 91       	ld	r18, X+
    2fd4:	3c 91       	ld	r19, X
    2fd6:	fc 01       	movw	r30, r24
    2fd8:	31 83       	std	Z+1, r19	; 0x01
    2fda:	20 83       	st	Z, r18

00002fdc <.LM350>:
    2fdc:	ce 01       	movw	r24, r28
    2fde:	88 5b       	subi	r24, 0xB8	; 184
    2fe0:	9f 4f       	sbci	r25, 0xFF	; 255
    2fe2:	dc 01       	movw	r26, r24
    2fe4:	8d 91       	ld	r24, X+
    2fe6:	9c 91       	ld	r25, X

00002fe8 <.L1^B40>:
    2fe8:	01 97       	sbiw	r24, 0x01	; 1
    2fea:	f1 f7       	brne	.-4      	; 0x2fe8 <.L1^B40>
    2fec:	9e 01       	movw	r18, r28
    2fee:	28 5b       	subi	r18, 0xB8	; 184
    2ff0:	3f 4f       	sbci	r19, 0xFF	; 255
    2ff2:	f9 01       	movw	r30, r18
    2ff4:	91 83       	std	Z+1, r25	; 0x01
    2ff6:	80 83       	st	Z, r24

00002ff8 <.LM351>:
	...

00002ffa <.L234>:
    2ffa:	6a c0       	rjmp	.+212    	; 0x30d0 <.L235>

00002ffc <.L297>:
    2ffc:	20 e0       	ldi	r18, 0x00	; 0
    2ffe:	30 e0       	ldi	r19, 0x00	; 0
    3000:	4f e7       	ldi	r20, 0x7F	; 127
    3002:	53 e4       	ldi	r21, 0x43	; 67
    3004:	6b a9       	ldd	r22, Y+51	; 0x33
    3006:	7c a9       	ldd	r23, Y+52	; 0x34
    3008:	8d a9       	ldd	r24, Y+53	; 0x35
    300a:	9e a9       	ldd	r25, Y+54	; 0x36
    300c:	0e 94 d5 26 	call	0x4daa	; 0x4daa <__gesf2>
    3010:	18 16       	cp	r1, r24
    3012:	b4 f5       	brge	.+108    	; 0x3080 <.L300>

00003014 <.LM354>:
    3014:	8e 01       	movw	r16, r28
    3016:	06 5b       	subi	r16, 0xB6	; 182
    3018:	1f 4f       	sbci	r17, 0xFF	; 255
    301a:	6f a9       	ldd	r22, Y+55	; 0x37
    301c:	78 ad       	ldd	r23, Y+56	; 0x38
    301e:	89 ad       	ldd	r24, Y+57	; 0x39
    3020:	9a ad       	ldd	r25, Y+58	; 0x3a
    3022:	0e 94 31 26 	call	0x4c62	; 0x4c62 <__fixunssfsi>
    3026:	ca 5d       	subi	r28, 0xDA	; 218
    3028:	de 4f       	sbci	r29, 0xFE	; 254
    302a:	68 83       	st	Y, r22
    302c:	79 83       	std	Y+1, r23	; 0x01
    302e:	8a 83       	std	Y+2, r24	; 0x02
    3030:	9b 83       	std	Y+3, r25	; 0x03
    3032:	c6 52       	subi	r28, 0x26	; 38
    3034:	d1 40       	sbci	r29, 0x01	; 1
    3036:	ca 5d       	subi	r28, 0xDA	; 218
    3038:	de 4f       	sbci	r29, 0xFE	; 254
    303a:	e8 81       	ld	r30, Y
    303c:	f9 81       	ldd	r31, Y+1	; 0x01
    303e:	c6 52       	subi	r28, 0x26	; 38
    3040:	d1 40       	sbci	r29, 0x01	; 1
    3042:	d8 01       	movw	r26, r16
    3044:	ed 93       	st	X+, r30
    3046:	fc 93       	st	X, r31
    3048:	ce 01       	movw	r24, r28
    304a:	84 5b       	subi	r24, 0xB4	; 180
    304c:	9f 4f       	sbci	r25, 0xFF	; 255
    304e:	9e 01       	movw	r18, r28
    3050:	26 5b       	subi	r18, 0xB6	; 182
    3052:	3f 4f       	sbci	r19, 0xFF	; 255
    3054:	d9 01       	movw	r26, r18
    3056:	2d 91       	ld	r18, X+
    3058:	3c 91       	ld	r19, X
    305a:	fc 01       	movw	r30, r24
    305c:	31 83       	std	Z+1, r19	; 0x01
    305e:	20 83       	st	Z, r18

00003060 <.LM355>:
    3060:	ce 01       	movw	r24, r28
    3062:	84 5b       	subi	r24, 0xB4	; 180
    3064:	9f 4f       	sbci	r25, 0xFF	; 255
    3066:	dc 01       	movw	r26, r24
    3068:	8d 91       	ld	r24, X+
    306a:	9c 91       	ld	r25, X

0000306c <.L1^B41>:
    306c:	01 97       	sbiw	r24, 0x01	; 1
    306e:	f1 f7       	brne	.-4      	; 0x306c <.L1^B41>
    3070:	9e 01       	movw	r18, r28
    3072:	24 5b       	subi	r18, 0xB4	; 180
    3074:	3f 4f       	sbci	r19, 0xFF	; 255
    3076:	f9 01       	movw	r30, r18
    3078:	91 83       	std	Z+1, r25	; 0x01
    307a:	80 83       	st	Z, r24

0000307c <.LM356>:
	...

0000307e <.LM357>:
    307e:	28 c0       	rjmp	.+80     	; 0x30d0 <.L235>

00003080 <.L300>:
    3080:	6b a9       	ldd	r22, Y+51	; 0x33
    3082:	7c a9       	ldd	r23, Y+52	; 0x34
    3084:	8d a9       	ldd	r24, Y+53	; 0x35
    3086:	9e a9       	ldd	r25, Y+54	; 0x36
    3088:	0e 94 31 26 	call	0x4c62	; 0x4c62 <__fixunssfsi>
    308c:	c6 5d       	subi	r28, 0xD6	; 214
    308e:	de 4f       	sbci	r29, 0xFE	; 254
    3090:	68 83       	st	Y, r22
    3092:	79 83       	std	Y+1, r23	; 0x01
    3094:	8a 83       	std	Y+2, r24	; 0x02
    3096:	9b 83       	std	Y+3, r25	; 0x03
    3098:	ca 52       	subi	r28, 0x2A	; 42
    309a:	d1 40       	sbci	r29, 0x01	; 1
    309c:	c6 5d       	subi	r28, 0xD6	; 214
    309e:	de 4f       	sbci	r29, 0xFE	; 254
    30a0:	f8 81       	ld	r31, Y
    30a2:	ca 52       	subi	r28, 0x2A	; 42
    30a4:	d1 40       	sbci	r29, 0x01	; 1
    30a6:	fb af       	std	Y+59, r31	; 0x3b

000030a8 <.L224>:
    30a8:	ce 01       	movw	r24, r28
    30aa:	82 5b       	subi	r24, 0xB2	; 178
    30ac:	9f 4f       	sbci	r25, 0xFF	; 255
    30ae:	2b ad       	ldd	r18, Y+59	; 0x3b
    30b0:	dc 01       	movw	r26, r24
    30b2:	2c 93       	st	X, r18

000030b4 <.LM359>:
    30b4:	ce 01       	movw	r24, r28
    30b6:	82 5b       	subi	r24, 0xB2	; 178
    30b8:	9f 4f       	sbci	r25, 0xFF	; 255
    30ba:	fc 01       	movw	r30, r24
    30bc:	80 81       	ld	r24, Z
    30be:	28 2f       	mov	r18, r24

000030c0 <.L1^B42>:
    30c0:	2a 95       	dec	r18
    30c2:	f1 f7       	brne	.-4      	; 0x30c0 <.L1^B42>
    30c4:	ce 01       	movw	r24, r28
    30c6:	82 5b       	subi	r24, 0xB2	; 178
    30c8:	9f 4f       	sbci	r25, 0xFF	; 255
    30ca:	dc 01       	movw	r26, r24
    30cc:	2c 93       	st	X, r18

000030ce <.LM360>:
	...

000030d0 <.L235>:
    30d0:	ce 01       	movw	r24, r28
    30d2:	87 56       	subi	r24, 0x67	; 103
    30d4:	9f 4f       	sbci	r25, 0xFF	; 255
    30d6:	fc 01       	movw	r30, r24
    30d8:	80 81       	ld	r24, Z
    30da:	81 70       	andi	r24, 0x01	; 1
    30dc:	48 2f       	mov	r20, r24
    30de:	63 e0       	ldi	r22, 0x03	; 3
    30e0:	80 e0       	ldi	r24, 0x00	; 0
    30e2:	0e 94 66 01 	call	0x2cc	; 0x2cc <GPIO_writePin>

000030e6 <.LM362>:
    30e6:	ce 01       	movw	r24, r28
    30e8:	87 56       	subi	r24, 0x67	; 103
    30ea:	9f 4f       	sbci	r25, 0xFF	; 255
    30ec:	dc 01       	movw	r26, r24
    30ee:	8c 91       	ld	r24, X
    30f0:	86 95       	lsr	r24

000030f2 <.LM363>:
    30f2:	81 70       	andi	r24, 0x01	; 1
    30f4:	48 2f       	mov	r20, r24
    30f6:	64 e0       	ldi	r22, 0x04	; 4
    30f8:	80 e0       	ldi	r24, 0x00	; 0
    30fa:	0e 94 66 01 	call	0x2cc	; 0x2cc <GPIO_writePin>

000030fe <.LM364>:
    30fe:	ce 01       	movw	r24, r28
    3100:	87 56       	subi	r24, 0x67	; 103
    3102:	9f 4f       	sbci	r25, 0xFF	; 255
    3104:	fc 01       	movw	r30, r24
    3106:	80 81       	ld	r24, Z
    3108:	86 95       	lsr	r24
    310a:	86 95       	lsr	r24

0000310c <.LM365>:
    310c:	81 70       	andi	r24, 0x01	; 1
    310e:	48 2f       	mov	r20, r24
    3110:	65 e0       	ldi	r22, 0x05	; 5
    3112:	80 e0       	ldi	r24, 0x00	; 0
    3114:	0e 94 66 01 	call	0x2cc	; 0x2cc <GPIO_writePin>

00003118 <.LM366>:
    3118:	ce 01       	movw	r24, r28
    311a:	87 56       	subi	r24, 0x67	; 103
    311c:	9f 4f       	sbci	r25, 0xFF	; 255
    311e:	dc 01       	movw	r26, r24
    3120:	8c 91       	ld	r24, X
    3122:	86 95       	lsr	r24
    3124:	86 95       	lsr	r24
    3126:	86 95       	lsr	r24

00003128 <.LM367>:
    3128:	81 70       	andi	r24, 0x01	; 1
    312a:	48 2f       	mov	r20, r24
    312c:	66 e0       	ldi	r22, 0x06	; 6
    312e:	80 e0       	ldi	r24, 0x00	; 0
    3130:	0e 94 66 01 	call	0x2cc	; 0x2cc <GPIO_writePin>
    3134:	80 e0       	ldi	r24, 0x00	; 0
    3136:	90 e0       	ldi	r25, 0x00	; 0
    3138:	a0 e8       	ldi	r26, 0x80	; 128
    313a:	bf e3       	ldi	r27, 0x3F	; 63
    313c:	89 a3       	std	Y+33, r24	; 0x21
    313e:	9a a3       	std	Y+34, r25	; 0x22
    3140:	ab a3       	std	Y+35, r26	; 0x23
    3142:	bc a3       	std	Y+36, r27	; 0x24

00003144 <.LM368>:
    3144:	20 e0       	ldi	r18, 0x00	; 0
    3146:	30 e0       	ldi	r19, 0x00	; 0
    3148:	4a e7       	ldi	r20, 0x7A	; 122
    314a:	55 e4       	ldi	r21, 0x45	; 69
    314c:	69 a1       	ldd	r22, Y+33	; 0x21
    314e:	7a a1       	ldd	r23, Y+34	; 0x22
    3150:	8b a1       	ldd	r24, Y+35	; 0x23
    3152:	9c a1       	ldd	r25, Y+36	; 0x24
    3154:	0e 94 da 26 	call	0x4db4	; 0x4db4 <__mulsf3>
    3158:	c2 5d       	subi	r28, 0xD2	; 210
    315a:	de 4f       	sbci	r29, 0xFE	; 254
    315c:	68 83       	st	Y, r22
    315e:	79 83       	std	Y+1, r23	; 0x01
    3160:	8a 83       	std	Y+2, r24	; 0x02
    3162:	9b 83       	std	Y+3, r25	; 0x03
    3164:	ce 52       	subi	r28, 0x2E	; 46
    3166:	d1 40       	sbci	r29, 0x01	; 1
    3168:	c2 5d       	subi	r28, 0xD2	; 210
    316a:	de 4f       	sbci	r29, 0xFE	; 254
    316c:	88 81       	ld	r24, Y
    316e:	99 81       	ldd	r25, Y+1	; 0x01
    3170:	aa 81       	ldd	r26, Y+2	; 0x02
    3172:	bb 81       	ldd	r27, Y+3	; 0x03
    3174:	ce 52       	subi	r28, 0x2E	; 46
    3176:	d1 40       	sbci	r29, 0x01	; 1
    3178:	8d a3       	std	Y+37, r24	; 0x25
    317a:	9e a3       	std	Y+38, r25	; 0x26
    317c:	af a3       	std	Y+39, r26	; 0x27
    317e:	b8 a7       	std	Y+40, r27	; 0x28

00003180 <.LM369>:
    3180:	20 e0       	ldi	r18, 0x00	; 0
    3182:	30 e0       	ldi	r19, 0x00	; 0
    3184:	40 e8       	ldi	r20, 0x80	; 128
    3186:	5f e3       	ldi	r21, 0x3F	; 63
    3188:	6d a1       	ldd	r22, Y+37	; 0x25
    318a:	7e a1       	ldd	r23, Y+38	; 0x26
    318c:	8f a1       	ldd	r24, Y+39	; 0x27
    318e:	98 a5       	ldd	r25, Y+40	; 0x28
    3190:	0e 94 ba 25 	call	0x4b74	; 0x4b74 <__cmpsf2>
    3194:	88 23       	and	r24, r24
    3196:	2c f4       	brge	.+10     	; 0x31a2 <.L301>

00003198 <.LM370>:
    3198:	81 e0       	ldi	r24, 0x01	; 1
    319a:	90 e0       	ldi	r25, 0x00	; 0
    319c:	9a a7       	std	Y+42, r25	; 0x2a
    319e:	89 a7       	std	Y+41, r24	; 0x29
    31a0:	75 c0       	rjmp	.+234    	; 0x328c <.L240>

000031a2 <.L301>:
    31a2:	20 e0       	ldi	r18, 0x00	; 0
    31a4:	3f ef       	ldi	r19, 0xFF	; 255
    31a6:	4f e7       	ldi	r20, 0x7F	; 127
    31a8:	57 e4       	ldi	r21, 0x47	; 71
    31aa:	6d a1       	ldd	r22, Y+37	; 0x25
    31ac:	7e a1       	ldd	r23, Y+38	; 0x26
    31ae:	8f a1       	ldd	r24, Y+39	; 0x27
    31b0:	98 a5       	ldd	r25, Y+40	; 0x28
    31b2:	0e 94 d5 26 	call	0x4daa	; 0x4daa <__gesf2>
    31b6:	18 16       	cp	r1, r24
    31b8:	0c f0       	brlt	.+2      	; 0x31bc <.LM372>

000031ba <L0^A>:
    31ba:	52 c0       	rjmp	.+164    	; 0x3260 <.L302>

000031bc <.LM372>:
    31bc:	20 e0       	ldi	r18, 0x00	; 0
    31be:	30 e0       	ldi	r19, 0x00	; 0
    31c0:	40 e2       	ldi	r20, 0x20	; 32
    31c2:	51 e4       	ldi	r21, 0x41	; 65
    31c4:	69 a1       	ldd	r22, Y+33	; 0x21
    31c6:	7a a1       	ldd	r23, Y+34	; 0x22
    31c8:	8b a1       	ldd	r24, Y+35	; 0x23
    31ca:	9c a1       	ldd	r25, Y+36	; 0x24
    31cc:	0e 94 da 26 	call	0x4db4	; 0x4db4 <__mulsf3>
    31d0:	ce 5c       	subi	r28, 0xCE	; 206
    31d2:	de 4f       	sbci	r29, 0xFE	; 254
    31d4:	68 83       	st	Y, r22
    31d6:	79 83       	std	Y+1, r23	; 0x01
    31d8:	8a 83       	std	Y+2, r24	; 0x02
    31da:	9b 83       	std	Y+3, r25	; 0x03
    31dc:	c2 53       	subi	r28, 0x32	; 50
    31de:	d1 40       	sbci	r29, 0x01	; 1
    31e0:	ce 5c       	subi	r28, 0xCE	; 206
    31e2:	de 4f       	sbci	r29, 0xFE	; 254
    31e4:	88 81       	ld	r24, Y
    31e6:	99 81       	ldd	r25, Y+1	; 0x01
    31e8:	aa 81       	ldd	r26, Y+2	; 0x02
    31ea:	bb 81       	ldd	r27, Y+3	; 0x03
    31ec:	c2 53       	subi	r28, 0x32	; 50
    31ee:	d1 40       	sbci	r29, 0x01	; 1
    31f0:	c2 56       	subi	r28, 0x62	; 98
    31f2:	df 4f       	sbci	r29, 0xFF	; 255
    31f4:	88 83       	st	Y, r24
    31f6:	99 83       	std	Y+1, r25	; 0x01
    31f8:	aa 83       	std	Y+2, r26	; 0x02
    31fa:	bb 83       	std	Y+3, r27	; 0x03
    31fc:	ce 59       	subi	r28, 0x9E	; 158
    31fe:	d0 40       	sbci	r29, 0x00	; 0

00003200 <.LM373>:
    3200:	c2 56       	subi	r28, 0x62	; 98
    3202:	df 4f       	sbci	r29, 0xFF	; 255
    3204:	68 81       	ld	r22, Y
    3206:	79 81       	ldd	r23, Y+1	; 0x01
    3208:	8a 81       	ldd	r24, Y+2	; 0x02
    320a:	9b 81       	ldd	r25, Y+3	; 0x03
    320c:	ce 59       	subi	r28, 0x9E	; 158
    320e:	d0 40       	sbci	r29, 0x00	; 0
    3210:	0e 94 31 26 	call	0x4c62	; 0x4c62 <__fixunssfsi>
    3214:	ca 5c       	subi	r28, 0xCA	; 202
    3216:	de 4f       	sbci	r29, 0xFE	; 254
    3218:	68 83       	st	Y, r22
    321a:	79 83       	std	Y+1, r23	; 0x01
    321c:	8a 83       	std	Y+2, r24	; 0x02
    321e:	9b 83       	std	Y+3, r25	; 0x03
    3220:	c6 53       	subi	r28, 0x36	; 54
    3222:	d1 40       	sbci	r29, 0x01	; 1
    3224:	ca 5c       	subi	r28, 0xCA	; 202
    3226:	de 4f       	sbci	r29, 0xFE	; 254
    3228:	a8 81       	ld	r26, Y
    322a:	b9 81       	ldd	r27, Y+1	; 0x01
    322c:	c6 53       	subi	r28, 0x36	; 54
    322e:	d1 40       	sbci	r29, 0x01	; 1
    3230:	ba a7       	std	Y+42, r27	; 0x2a
    3232:	a9 a7       	std	Y+41, r26	; 0x29

00003234 <.LM374>:
    3234:	10 c0       	rjmp	.+32     	; 0x3256 <.L243>

00003236 <.L244>:
    3236:	80 e9       	ldi	r24, 0x90	; 144
    3238:	91 e0       	ldi	r25, 0x01	; 1
    323a:	9c a7       	std	Y+44, r25	; 0x2c
    323c:	8b a7       	std	Y+43, r24	; 0x2b

0000323e <.LM375>:
    323e:	8b a5       	ldd	r24, Y+43	; 0x2b
    3240:	9c a5       	ldd	r25, Y+44	; 0x2c

00003242 <.L1^B43>:
    3242:	01 97       	sbiw	r24, 0x01	; 1
    3244:	f1 f7       	brne	.-4      	; 0x3242 <.L1^B43>
    3246:	9c a7       	std	Y+44, r25	; 0x2c
    3248:	8b a7       	std	Y+43, r24	; 0x2b

0000324a <.LM376>:
	...

0000324c <.LM377>:
    324c:	89 a5       	ldd	r24, Y+41	; 0x29
    324e:	9a a5       	ldd	r25, Y+42	; 0x2a
    3250:	01 97       	sbiw	r24, 0x01	; 1
    3252:	9a a7       	std	Y+42, r25	; 0x2a
    3254:	89 a7       	std	Y+41, r24	; 0x29

00003256 <.L243>:
    3256:	89 a5       	ldd	r24, Y+41	; 0x29
    3258:	9a a5       	ldd	r25, Y+42	; 0x2a
    325a:	89 2b       	or	r24, r25
    325c:	61 f7       	brne	.-40     	; 0x3236 <.L244>

0000325e <.LM379>:
    325e:	21 c0       	rjmp	.+66     	; 0x32a2 <.L245>

00003260 <.L302>:
    3260:	6d a1       	ldd	r22, Y+37	; 0x25
    3262:	7e a1       	ldd	r23, Y+38	; 0x26
    3264:	8f a1       	ldd	r24, Y+39	; 0x27
    3266:	98 a5       	ldd	r25, Y+40	; 0x28
    3268:	0e 94 31 26 	call	0x4c62	; 0x4c62 <__fixunssfsi>
    326c:	c6 5c       	subi	r28, 0xC6	; 198
    326e:	de 4f       	sbci	r29, 0xFE	; 254
    3270:	68 83       	st	Y, r22
    3272:	79 83       	std	Y+1, r23	; 0x01
    3274:	8a 83       	std	Y+2, r24	; 0x02
    3276:	9b 83       	std	Y+3, r25	; 0x03
    3278:	ca 53       	subi	r28, 0x3A	; 58
    327a:	d1 40       	sbci	r29, 0x01	; 1
    327c:	c6 5c       	subi	r28, 0xC6	; 198
    327e:	de 4f       	sbci	r29, 0xFE	; 254
    3280:	e8 81       	ld	r30, Y
    3282:	f9 81       	ldd	r31, Y+1	; 0x01
    3284:	ca 53       	subi	r28, 0x3A	; 58
    3286:	d1 40       	sbci	r29, 0x01	; 1
    3288:	fa a7       	std	Y+42, r31	; 0x2a
    328a:	e9 a7       	std	Y+41, r30	; 0x29

0000328c <.L240>:
    328c:	89 a5       	ldd	r24, Y+41	; 0x29
    328e:	9a a5       	ldd	r25, Y+42	; 0x2a
    3290:	9e a7       	std	Y+46, r25	; 0x2e
    3292:	8d a7       	std	Y+45, r24	; 0x2d

00003294 <.LM381>:
    3294:	8d a5       	ldd	r24, Y+45	; 0x2d
    3296:	9e a5       	ldd	r25, Y+46	; 0x2e

00003298 <.L1^B44>:
    3298:	01 97       	sbiw	r24, 0x01	; 1
    329a:	f1 f7       	brne	.-4      	; 0x3298 <.L1^B44>
    329c:	9e a7       	std	Y+46, r25	; 0x2e
    329e:	8d a7       	std	Y+45, r24	; 0x2d

000032a0 <.LM382>:
	...

000032a2 <.L245>:
    32a2:	40 e0       	ldi	r20, 0x00	; 0
    32a4:	62 e0       	ldi	r22, 0x02	; 2
    32a6:	80 e0       	ldi	r24, 0x00	; 0
    32a8:	0e 94 66 01 	call	0x2cc	; 0x2cc <GPIO_writePin>
    32ac:	80 e0       	ldi	r24, 0x00	; 0
    32ae:	90 e0       	ldi	r25, 0x00	; 0
    32b0:	a0 e8       	ldi	r26, 0x80	; 128
    32b2:	bf e3       	ldi	r27, 0x3F	; 63
    32b4:	89 83       	std	Y+1, r24	; 0x01
    32b6:	9a 83       	std	Y+2, r25	; 0x02
    32b8:	ab 83       	std	Y+3, r26	; 0x03
    32ba:	bc 83       	std	Y+4, r27	; 0x04

000032bc <.LM384>:
    32bc:	2b ea       	ldi	r18, 0xAB	; 171
    32be:	3a ea       	ldi	r19, 0xAA	; 170
    32c0:	4a ea       	ldi	r20, 0xAA	; 170
    32c2:	50 e4       	ldi	r21, 0x40	; 64
    32c4:	69 81       	ldd	r22, Y+1	; 0x01
    32c6:	7a 81       	ldd	r23, Y+2	; 0x02
    32c8:	8b 81       	ldd	r24, Y+3	; 0x03
    32ca:	9c 81       	ldd	r25, Y+4	; 0x04
    32cc:	0e 94 da 26 	call	0x4db4	; 0x4db4 <__mulsf3>
    32d0:	c2 5c       	subi	r28, 0xC2	; 194
    32d2:	de 4f       	sbci	r29, 0xFE	; 254
    32d4:	68 83       	st	Y, r22
    32d6:	79 83       	std	Y+1, r23	; 0x01
    32d8:	8a 83       	std	Y+2, r24	; 0x02
    32da:	9b 83       	std	Y+3, r25	; 0x03
    32dc:	ce 53       	subi	r28, 0x3E	; 62
    32de:	d1 40       	sbci	r29, 0x01	; 1
    32e0:	c2 5c       	subi	r28, 0xC2	; 194
    32e2:	de 4f       	sbci	r29, 0xFE	; 254
    32e4:	88 81       	ld	r24, Y
    32e6:	99 81       	ldd	r25, Y+1	; 0x01
    32e8:	aa 81       	ldd	r26, Y+2	; 0x02
    32ea:	bb 81       	ldd	r27, Y+3	; 0x03
    32ec:	ce 53       	subi	r28, 0x3E	; 62
    32ee:	d1 40       	sbci	r29, 0x01	; 1
    32f0:	8d 83       	std	Y+5, r24	; 0x05
    32f2:	9e 83       	std	Y+6, r25	; 0x06
    32f4:	af 83       	std	Y+7, r26	; 0x07
    32f6:	b8 87       	std	Y+8, r27	; 0x08

000032f8 <.LM385>:
    32f8:	20 e0       	ldi	r18, 0x00	; 0
    32fa:	30 e0       	ldi	r19, 0x00	; 0
    32fc:	40 e8       	ldi	r20, 0x80	; 128
    32fe:	50 e4       	ldi	r21, 0x40	; 64
    3300:	69 81       	ldd	r22, Y+1	; 0x01
    3302:	7a 81       	ldd	r23, Y+2	; 0x02
    3304:	8b 81       	ldd	r24, Y+3	; 0x03
    3306:	9c 81       	ldd	r25, Y+4	; 0x04
    3308:	0e 94 da 26 	call	0x4db4	; 0x4db4 <__mulsf3>
    330c:	ce 5b       	subi	r28, 0xBE	; 190
    330e:	de 4f       	sbci	r29, 0xFE	; 254
    3310:	68 83       	st	Y, r22
    3312:	79 83       	std	Y+1, r23	; 0x01
    3314:	8a 83       	std	Y+2, r24	; 0x02
    3316:	9b 83       	std	Y+3, r25	; 0x03
    3318:	c2 54       	subi	r28, 0x42	; 66
    331a:	d1 40       	sbci	r29, 0x01	; 1
    331c:	ce 5b       	subi	r28, 0xBE	; 190
    331e:	de 4f       	sbci	r29, 0xFE	; 254
    3320:	88 81       	ld	r24, Y
    3322:	99 81       	ldd	r25, Y+1	; 0x01
    3324:	aa 81       	ldd	r26, Y+2	; 0x02
    3326:	bb 81       	ldd	r27, Y+3	; 0x03
    3328:	c2 54       	subi	r28, 0x42	; 66
    332a:	d1 40       	sbci	r29, 0x01	; 1
    332c:	89 87       	std	Y+9, r24	; 0x09
    332e:	9a 87       	std	Y+10, r25	; 0x0a
    3330:	ab 87       	std	Y+11, r26	; 0x0b
    3332:	bc 87       	std	Y+12, r27	; 0x0c

00003334 <.LM386>:
    3334:	20 e0       	ldi	r18, 0x00	; 0
    3336:	30 e0       	ldi	r19, 0x00	; 0
    3338:	40 e8       	ldi	r20, 0x80	; 128
    333a:	5f e3       	ldi	r21, 0x3F	; 63
    333c:	6d 81       	ldd	r22, Y+5	; 0x05
    333e:	7e 81       	ldd	r23, Y+6	; 0x06
    3340:	8f 81       	ldd	r24, Y+7	; 0x07
    3342:	98 85       	ldd	r25, Y+8	; 0x08
    3344:	0e 94 ba 25 	call	0x4b74	; 0x4b74 <__cmpsf2>
    3348:	88 23       	and	r24, r24
    334a:	1c f4       	brge	.+6      	; 0x3352 <.L303>

0000334c <.LM387>:
    334c:	81 e0       	ldi	r24, 0x01	; 1
    334e:	8d 87       	std	Y+13, r24	; 0x0d
    3350:	1d c1       	rjmp	.+570    	; 0x358c <.L248>

00003352 <.L303>:
    3352:	20 e0       	ldi	r18, 0x00	; 0
    3354:	3f ef       	ldi	r19, 0xFF	; 255
    3356:	4f e7       	ldi	r20, 0x7F	; 127
    3358:	57 e4       	ldi	r21, 0x47	; 71
    335a:	69 85       	ldd	r22, Y+9	; 0x09
    335c:	7a 85       	ldd	r23, Y+10	; 0x0a
    335e:	8b 85       	ldd	r24, Y+11	; 0x0b
    3360:	9c 85       	ldd	r25, Y+12	; 0x0c
    3362:	0e 94 d5 26 	call	0x4daa	; 0x4daa <__gesf2>
    3366:	18 16       	cp	r1, r24
    3368:	0c f0       	brlt	.+2      	; 0x336c <.LM389>

0000336a <L0^A>:
    336a:	ce c0       	rjmp	.+412    	; 0x3508 <.L304>

0000336c <.LM389>:
    336c:	20 e0       	ldi	r18, 0x00	; 0
    336e:	30 e0       	ldi	r19, 0x00	; 0
    3370:	4a e7       	ldi	r20, 0x7A	; 122
    3372:	54 e4       	ldi	r21, 0x44	; 68
    3374:	69 81       	ldd	r22, Y+1	; 0x01
    3376:	7a 81       	ldd	r23, Y+2	; 0x02
    3378:	8b 81       	ldd	r24, Y+3	; 0x03
    337a:	9c 81       	ldd	r25, Y+4	; 0x04
    337c:	0e 94 bf 25 	call	0x4b7e	; 0x4b7e <__divsf3>
    3380:	ca 5b       	subi	r28, 0xBA	; 186
    3382:	de 4f       	sbci	r29, 0xFE	; 254
    3384:	68 83       	st	Y, r22
    3386:	79 83       	std	Y+1, r23	; 0x01
    3388:	8a 83       	std	Y+2, r24	; 0x02
    338a:	9b 83       	std	Y+3, r25	; 0x03
    338c:	c6 54       	subi	r28, 0x46	; 70
    338e:	d1 40       	sbci	r29, 0x01	; 1
    3390:	ca 5b       	subi	r28, 0xBA	; 186
    3392:	de 4f       	sbci	r29, 0xFE	; 254
    3394:	88 81       	ld	r24, Y
    3396:	99 81       	ldd	r25, Y+1	; 0x01
    3398:	aa 81       	ldd	r26, Y+2	; 0x02
    339a:	bb 81       	ldd	r27, Y+3	; 0x03
    339c:	c6 54       	subi	r28, 0x46	; 70
    339e:	d1 40       	sbci	r29, 0x01	; 1
    33a0:	8e 87       	std	Y+14, r24	; 0x0e
    33a2:	9f 87       	std	Y+15, r25	; 0x0f
    33a4:	a8 8b       	std	Y+16, r26	; 0x10
    33a6:	b9 8b       	std	Y+17, r27	; 0x11

000033a8 <.LM390>:
    33a8:	20 e0       	ldi	r18, 0x00	; 0
    33aa:	30 e0       	ldi	r19, 0x00	; 0
    33ac:	4a e7       	ldi	r20, 0x7A	; 122
    33ae:	55 e4       	ldi	r21, 0x45	; 69
    33b0:	6e 85       	ldd	r22, Y+14	; 0x0e
    33b2:	7f 85       	ldd	r23, Y+15	; 0x0f
    33b4:	88 89       	ldd	r24, Y+16	; 0x10
    33b6:	99 89       	ldd	r25, Y+17	; 0x11
    33b8:	0e 94 da 26 	call	0x4db4	; 0x4db4 <__mulsf3>
    33bc:	c6 5b       	subi	r28, 0xB6	; 182
    33be:	de 4f       	sbci	r29, 0xFE	; 254
    33c0:	68 83       	st	Y, r22
    33c2:	79 83       	std	Y+1, r23	; 0x01
    33c4:	8a 83       	std	Y+2, r24	; 0x02
    33c6:	9b 83       	std	Y+3, r25	; 0x03
    33c8:	ca 54       	subi	r28, 0x4A	; 74
    33ca:	d1 40       	sbci	r29, 0x01	; 1
    33cc:	c6 5b       	subi	r28, 0xB6	; 182
    33ce:	de 4f       	sbci	r29, 0xFE	; 254
    33d0:	88 81       	ld	r24, Y
    33d2:	99 81       	ldd	r25, Y+1	; 0x01
    33d4:	aa 81       	ldd	r26, Y+2	; 0x02
    33d6:	bb 81       	ldd	r27, Y+3	; 0x03
    33d8:	ca 54       	subi	r28, 0x4A	; 74
    33da:	d1 40       	sbci	r29, 0x01	; 1
    33dc:	8a 8b       	std	Y+18, r24	; 0x12
    33de:	9b 8b       	std	Y+19, r25	; 0x13
    33e0:	ac 8b       	std	Y+20, r26	; 0x14
    33e2:	bd 8b       	std	Y+21, r27	; 0x15

000033e4 <.LM391>:
    33e4:	20 e0       	ldi	r18, 0x00	; 0
    33e6:	30 e0       	ldi	r19, 0x00	; 0
    33e8:	40 e8       	ldi	r20, 0x80	; 128
    33ea:	5f e3       	ldi	r21, 0x3F	; 63
    33ec:	6a 89       	ldd	r22, Y+18	; 0x12
    33ee:	7b 89       	ldd	r23, Y+19	; 0x13
    33f0:	8c 89       	ldd	r24, Y+20	; 0x14
    33f2:	9d 89       	ldd	r25, Y+21	; 0x15
    33f4:	0e 94 ba 25 	call	0x4b74	; 0x4b74 <__cmpsf2>
    33f8:	88 23       	and	r24, r24
    33fa:	2c f4       	brge	.+10     	; 0x3406 <.L305>

000033fc <.LM392>:
    33fc:	81 e0       	ldi	r24, 0x01	; 1
    33fe:	90 e0       	ldi	r25, 0x00	; 0
    3400:	9f 8b       	std	Y+23, r25	; 0x17
    3402:	8e 8b       	std	Y+22, r24	; 0x16
    3404:	75 c0       	rjmp	.+234    	; 0x34f0 <.L253>

00003406 <.L305>:
    3406:	20 e0       	ldi	r18, 0x00	; 0
    3408:	3f ef       	ldi	r19, 0xFF	; 255
    340a:	4f e7       	ldi	r20, 0x7F	; 127
    340c:	57 e4       	ldi	r21, 0x47	; 71
    340e:	6a 89       	ldd	r22, Y+18	; 0x12
    3410:	7b 89       	ldd	r23, Y+19	; 0x13
    3412:	8c 89       	ldd	r24, Y+20	; 0x14
    3414:	9d 89       	ldd	r25, Y+21	; 0x15
    3416:	0e 94 d5 26 	call	0x4daa	; 0x4daa <__gesf2>
    341a:	18 16       	cp	r1, r24
    341c:	0c f0       	brlt	.+2      	; 0x3420 <.LM394>

0000341e <L0^A>:
    341e:	52 c0       	rjmp	.+164    	; 0x34c4 <.L306>

00003420 <.LM394>:
    3420:	20 e0       	ldi	r18, 0x00	; 0
    3422:	30 e0       	ldi	r19, 0x00	; 0
    3424:	40 e2       	ldi	r20, 0x20	; 32
    3426:	51 e4       	ldi	r21, 0x41	; 65
    3428:	6e 85       	ldd	r22, Y+14	; 0x0e
    342a:	7f 85       	ldd	r23, Y+15	; 0x0f
    342c:	88 89       	ldd	r24, Y+16	; 0x10
    342e:	99 89       	ldd	r25, Y+17	; 0x11
    3430:	0e 94 da 26 	call	0x4db4	; 0x4db4 <__mulsf3>
    3434:	c2 5b       	subi	r28, 0xB2	; 178
    3436:	de 4f       	sbci	r29, 0xFE	; 254
    3438:	68 83       	st	Y, r22
    343a:	79 83       	std	Y+1, r23	; 0x01
    343c:	8a 83       	std	Y+2, r24	; 0x02
    343e:	9b 83       	std	Y+3, r25	; 0x03
    3440:	ce 54       	subi	r28, 0x4E	; 78
    3442:	d1 40       	sbci	r29, 0x01	; 1
    3444:	c2 5b       	subi	r28, 0xB2	; 178
    3446:	de 4f       	sbci	r29, 0xFE	; 254
    3448:	88 81       	ld	r24, Y
    344a:	99 81       	ldd	r25, Y+1	; 0x01
    344c:	aa 81       	ldd	r26, Y+2	; 0x02
    344e:	bb 81       	ldd	r27, Y+3	; 0x03
    3450:	ce 54       	subi	r28, 0x4E	; 78
    3452:	d1 40       	sbci	r29, 0x01	; 1
    3454:	c6 56       	subi	r28, 0x66	; 102
    3456:	df 4f       	sbci	r29, 0xFF	; 255
    3458:	88 83       	st	Y, r24
    345a:	99 83       	std	Y+1, r25	; 0x01
    345c:	aa 83       	std	Y+2, r26	; 0x02
    345e:	bb 83       	std	Y+3, r27	; 0x03
    3460:	ca 59       	subi	r28, 0x9A	; 154
    3462:	d0 40       	sbci	r29, 0x00	; 0

00003464 <.LM395>:
    3464:	c6 56       	subi	r28, 0x66	; 102
    3466:	df 4f       	sbci	r29, 0xFF	; 255
    3468:	68 81       	ld	r22, Y
    346a:	79 81       	ldd	r23, Y+1	; 0x01
    346c:	8a 81       	ldd	r24, Y+2	; 0x02
    346e:	9b 81       	ldd	r25, Y+3	; 0x03
    3470:	ca 59       	subi	r28, 0x9A	; 154
    3472:	d0 40       	sbci	r29, 0x00	; 0
    3474:	0e 94 31 26 	call	0x4c62	; 0x4c62 <__fixunssfsi>
    3478:	ce 5a       	subi	r28, 0xAE	; 174
    347a:	de 4f       	sbci	r29, 0xFE	; 254
    347c:	68 83       	st	Y, r22
    347e:	79 83       	std	Y+1, r23	; 0x01
    3480:	8a 83       	std	Y+2, r24	; 0x02
    3482:	9b 83       	std	Y+3, r25	; 0x03
    3484:	c2 55       	subi	r28, 0x52	; 82
    3486:	d1 40       	sbci	r29, 0x01	; 1
    3488:	ce 5a       	subi	r28, 0xAE	; 174
    348a:	de 4f       	sbci	r29, 0xFE	; 254
    348c:	a8 81       	ld	r26, Y
    348e:	b9 81       	ldd	r27, Y+1	; 0x01
    3490:	c2 55       	subi	r28, 0x52	; 82
    3492:	d1 40       	sbci	r29, 0x01	; 1
    3494:	bf 8b       	std	Y+23, r27	; 0x17
    3496:	ae 8b       	std	Y+22, r26	; 0x16

00003498 <.LM396>:
    3498:	10 c0       	rjmp	.+32     	; 0x34ba <.L256>

0000349a <.L257>:
    349a:	80 e9       	ldi	r24, 0x90	; 144
    349c:	91 e0       	ldi	r25, 0x01	; 1
    349e:	99 8f       	std	Y+25, r25	; 0x19
    34a0:	88 8f       	std	Y+24, r24	; 0x18

000034a2 <.LM397>:
    34a2:	88 8d       	ldd	r24, Y+24	; 0x18
    34a4:	99 8d       	ldd	r25, Y+25	; 0x19

000034a6 <.L1^B45>:
    34a6:	01 97       	sbiw	r24, 0x01	; 1
    34a8:	f1 f7       	brne	.-4      	; 0x34a6 <.L1^B45>
    34aa:	99 8f       	std	Y+25, r25	; 0x19
    34ac:	88 8f       	std	Y+24, r24	; 0x18

000034ae <.LM398>:
	...

000034b0 <.LM399>:
    34b0:	8e 89       	ldd	r24, Y+22	; 0x16
    34b2:	9f 89       	ldd	r25, Y+23	; 0x17
    34b4:	01 97       	sbiw	r24, 0x01	; 1
    34b6:	9f 8b       	std	Y+23, r25	; 0x17
    34b8:	8e 8b       	std	Y+22, r24	; 0x16

000034ba <.L256>:
    34ba:	8e 89       	ldd	r24, Y+22	; 0x16
    34bc:	9f 89       	ldd	r25, Y+23	; 0x17
    34be:	89 2b       	or	r24, r25
    34c0:	61 f7       	brne	.-40     	; 0x349a <.L257>

000034c2 <.LM401>:
    34c2:	21 c0       	rjmp	.+66     	; 0x3506 <.L258>

000034c4 <.L306>:
    34c4:	6a 89       	ldd	r22, Y+18	; 0x12
    34c6:	7b 89       	ldd	r23, Y+19	; 0x13
    34c8:	8c 89       	ldd	r24, Y+20	; 0x14
    34ca:	9d 89       	ldd	r25, Y+21	; 0x15
    34cc:	0e 94 31 26 	call	0x4c62	; 0x4c62 <__fixunssfsi>
    34d0:	ca 5a       	subi	r28, 0xAA	; 170
    34d2:	de 4f       	sbci	r29, 0xFE	; 254
    34d4:	68 83       	st	Y, r22
    34d6:	79 83       	std	Y+1, r23	; 0x01
    34d8:	8a 83       	std	Y+2, r24	; 0x02
    34da:	9b 83       	std	Y+3, r25	; 0x03
    34dc:	c6 55       	subi	r28, 0x56	; 86
    34de:	d1 40       	sbci	r29, 0x01	; 1
    34e0:	ca 5a       	subi	r28, 0xAA	; 170
    34e2:	de 4f       	sbci	r29, 0xFE	; 254
    34e4:	e8 81       	ld	r30, Y
    34e6:	f9 81       	ldd	r31, Y+1	; 0x01
    34e8:	c6 55       	subi	r28, 0x56	; 86
    34ea:	d1 40       	sbci	r29, 0x01	; 1
    34ec:	ff 8b       	std	Y+23, r31	; 0x17
    34ee:	ee 8b       	std	Y+22, r30	; 0x16

000034f0 <.L253>:
    34f0:	8e 89       	ldd	r24, Y+22	; 0x16
    34f2:	9f 89       	ldd	r25, Y+23	; 0x17
    34f4:	9b 8f       	std	Y+27, r25	; 0x1b
    34f6:	8a 8f       	std	Y+26, r24	; 0x1a

000034f8 <.LM403>:
    34f8:	8a 8d       	ldd	r24, Y+26	; 0x1a
    34fa:	9b 8d       	ldd	r25, Y+27	; 0x1b

000034fc <.L1^B46>:
    34fc:	01 97       	sbiw	r24, 0x01	; 1
    34fe:	f1 f7       	brne	.-4      	; 0x34fc <.L1^B46>
    3500:	9b 8f       	std	Y+27, r25	; 0x1b
    3502:	8a 8f       	std	Y+26, r24	; 0x1a

00003504 <.LM404>:
	...

00003506 <.L258>:
    3506:	49 c0       	rjmp	.+146    	; 0x359a <.L259>

00003508 <.L304>:
    3508:	20 e0       	ldi	r18, 0x00	; 0
    350a:	30 e0       	ldi	r19, 0x00	; 0
    350c:	4f e7       	ldi	r20, 0x7F	; 127
    350e:	53 e4       	ldi	r21, 0x43	; 67
    3510:	6d 81       	ldd	r22, Y+5	; 0x05
    3512:	7e 81       	ldd	r23, Y+6	; 0x06
    3514:	8f 81       	ldd	r24, Y+7	; 0x07
    3516:	98 85       	ldd	r25, Y+8	; 0x08
    3518:	0e 94 d5 26 	call	0x4daa	; 0x4daa <__gesf2>
    351c:	18 16       	cp	r1, r24
    351e:	14 f5       	brge	.+68     	; 0x3564 <.L307>

00003520 <.LM407>:
    3520:	69 85       	ldd	r22, Y+9	; 0x09
    3522:	7a 85       	ldd	r23, Y+10	; 0x0a
    3524:	8b 85       	ldd	r24, Y+11	; 0x0b
    3526:	9c 85       	ldd	r25, Y+12	; 0x0c
    3528:	0e 94 31 26 	call	0x4c62	; 0x4c62 <__fixunssfsi>
    352c:	c6 5a       	subi	r28, 0xA6	; 166
    352e:	de 4f       	sbci	r29, 0xFE	; 254
    3530:	68 83       	st	Y, r22
    3532:	79 83       	std	Y+1, r23	; 0x01
    3534:	8a 83       	std	Y+2, r24	; 0x02
    3536:	9b 83       	std	Y+3, r25	; 0x03
    3538:	ca 55       	subi	r28, 0x5A	; 90
    353a:	d1 40       	sbci	r29, 0x01	; 1
    353c:	c6 5a       	subi	r28, 0xA6	; 166
    353e:	de 4f       	sbci	r29, 0xFE	; 254
    3540:	88 81       	ld	r24, Y
    3542:	99 81       	ldd	r25, Y+1	; 0x01
    3544:	ca 55       	subi	r28, 0x5A	; 90
    3546:	d1 40       	sbci	r29, 0x01	; 1
    3548:	9d 8f       	std	Y+29, r25	; 0x1d
    354a:	8c 8f       	std	Y+28, r24	; 0x1c
    354c:	8c 8d       	ldd	r24, Y+28	; 0x1c
    354e:	9d 8d       	ldd	r25, Y+29	; 0x1d
    3550:	9f 8f       	std	Y+31, r25	; 0x1f
    3552:	8e 8f       	std	Y+30, r24	; 0x1e

00003554 <.LM408>:
    3554:	8e 8d       	ldd	r24, Y+30	; 0x1e
    3556:	9f 8d       	ldd	r25, Y+31	; 0x1f

00003558 <.L1^B47>:
    3558:	01 97       	sbiw	r24, 0x01	; 1
    355a:	f1 f7       	brne	.-4      	; 0x3558 <.L1^B47>
    355c:	9f 8f       	std	Y+31, r25	; 0x1f
    355e:	8e 8f       	std	Y+30, r24	; 0x1e

00003560 <.LM409>:
	...

00003562 <.LM410>:
    3562:	1b c0       	rjmp	.+54     	; 0x359a <.L259>

00003564 <.L307>:
    3564:	6d 81       	ldd	r22, Y+5	; 0x05
    3566:	7e 81       	ldd	r23, Y+6	; 0x06
    3568:	8f 81       	ldd	r24, Y+7	; 0x07
    356a:	98 85       	ldd	r25, Y+8	; 0x08
    356c:	0e 94 31 26 	call	0x4c62	; 0x4c62 <__fixunssfsi>
    3570:	c2 5a       	subi	r28, 0xA2	; 162
    3572:	de 4f       	sbci	r29, 0xFE	; 254
    3574:	68 83       	st	Y, r22
    3576:	79 83       	std	Y+1, r23	; 0x01
    3578:	8a 83       	std	Y+2, r24	; 0x02
    357a:	9b 83       	std	Y+3, r25	; 0x03
    357c:	ce 55       	subi	r28, 0x5E	; 94
    357e:	d1 40       	sbci	r29, 0x01	; 1
    3580:	c2 5a       	subi	r28, 0xA2	; 162
    3582:	de 4f       	sbci	r29, 0xFE	; 254
    3584:	98 81       	ld	r25, Y
    3586:	ce 55       	subi	r28, 0x5E	; 94
    3588:	d1 40       	sbci	r29, 0x01	; 1
    358a:	9d 87       	std	Y+13, r25	; 0x0d

0000358c <.L248>:
    358c:	8d 85       	ldd	r24, Y+13	; 0x0d
    358e:	88 a3       	std	Y+32, r24	; 0x20

00003590 <.LM412>:
    3590:	88 a1       	ldd	r24, Y+32	; 0x20

00003592 <.L1^B48>:
    3592:	8a 95       	dec	r24
    3594:	f1 f7       	brne	.-4      	; 0x3592 <.L1^B48>
    3596:	88 a3       	std	Y+32, r24	; 0x20

00003598 <.LM413>:
	...

0000359a <.L259>:
    359a:	00 00       	nop
    359c:	cf 59       	subi	r28, 0x9F	; 159
    359e:	de 4f       	sbci	r29, 0xFE	; 254
    35a0:	0f b6       	in	r0, 0x3f	; 63
    35a2:	f8 94       	cli
    35a4:	de bf       	out	0x3e, r29	; 62
    35a6:	0f be       	out	0x3f, r0	; 63
    35a8:	cd bf       	out	0x3d, r28	; 61
    35aa:	df 91       	pop	r29
    35ac:	cf 91       	pop	r28
    35ae:	1f 91       	pop	r17
    35b0:	0f 91       	pop	r16
    35b2:	08 95       	ret

000035b4 <LCD_displayString>:
    35b4:	cf 93       	push	r28
    35b6:	df 93       	push	r29
    35b8:	00 d0       	rcall	.+0      	; 0x35ba <L0^A>

000035ba <L0^A>:
    35ba:	0f 92       	push	r0
    35bc:	cd b7       	in	r28, 0x3d	; 61
    35be:	de b7       	in	r29, 0x3e	; 62
    35c0:	9b 83       	std	Y+3, r25	; 0x03
    35c2:	8a 83       	std	Y+2, r24	; 0x02

000035c4 <.LM416>:
    35c4:	19 82       	std	Y+1, r1	; 0x01

000035c6 <.LM417>:
    35c6:	0e c0       	rjmp	.+28     	; 0x35e4 <.L309>

000035c8 <.L310>:
    35c8:	89 81       	ldd	r24, Y+1	; 0x01
    35ca:	88 2f       	mov	r24, r24
    35cc:	90 e0       	ldi	r25, 0x00	; 0
    35ce:	2a 81       	ldd	r18, Y+2	; 0x02
    35d0:	3b 81       	ldd	r19, Y+3	; 0x03
    35d2:	82 0f       	add	r24, r18
    35d4:	93 1f       	adc	r25, r19

000035d6 <.LM419>:
    35d6:	fc 01       	movw	r30, r24
    35d8:	80 81       	ld	r24, Z
    35da:	0e 94 f5 10 	call	0x21ea	; 0x21ea <LCD_displayCharacter>

000035de <.LM420>:
    35de:	89 81       	ldd	r24, Y+1	; 0x01
    35e0:	8f 5f       	subi	r24, 0xFF	; 255
    35e2:	89 83       	std	Y+1, r24	; 0x01

000035e4 <.L309>:
    35e4:	89 81       	ldd	r24, Y+1	; 0x01
    35e6:	88 2f       	mov	r24, r24
    35e8:	90 e0       	ldi	r25, 0x00	; 0
    35ea:	2a 81       	ldd	r18, Y+2	; 0x02
    35ec:	3b 81       	ldd	r19, Y+3	; 0x03
    35ee:	82 0f       	add	r24, r18
    35f0:	93 1f       	adc	r25, r19
    35f2:	fc 01       	movw	r30, r24
    35f4:	80 81       	ld	r24, Z

000035f6 <.LM422>:
    35f6:	88 23       	and	r24, r24
    35f8:	39 f7       	brne	.-50     	; 0x35c8 <.L310>

000035fa <.LM423>:
    35fa:	00 00       	nop
    35fc:	00 00       	nop
    35fe:	0f 90       	pop	r0
    3600:	0f 90       	pop	r0
    3602:	0f 90       	pop	r0
    3604:	df 91       	pop	r29
    3606:	cf 91       	pop	r28
    3608:	08 95       	ret

0000360a <LCD_integerToString>:
    360a:	cf 93       	push	r28
    360c:	df 93       	push	r29
    360e:	cd b7       	in	r28, 0x3d	; 61
    3610:	de b7       	in	r29, 0x3e	; 62
    3612:	62 97       	sbiw	r28, 0x12	; 18
    3614:	0f b6       	in	r0, 0x3f	; 63
    3616:	f8 94       	cli
    3618:	de bf       	out	0x3e, r29	; 62
    361a:	0f be       	out	0x3f, r0	; 63
    361c:	cd bf       	out	0x3d, r28	; 61
    361e:	9a 8b       	std	Y+18, r25	; 0x12
    3620:	89 8b       	std	Y+17, r24	; 0x11

00003622 <.LM425>:
    3622:	89 89       	ldd	r24, Y+17	; 0x11
    3624:	9a 89       	ldd	r25, Y+18	; 0x12
    3626:	4a e0       	ldi	r20, 0x0A	; 10
    3628:	50 e0       	ldi	r21, 0x00	; 0
    362a:	9e 01       	movw	r18, r28
    362c:	2f 5f       	subi	r18, 0xFF	; 255
    362e:	3f 4f       	sbci	r19, 0xFF	; 255
    3630:	b9 01       	movw	r22, r18
    3632:	0e 94 47 27 	call	0x4e8e	; 0x4e8e <itoa>

00003636 <.LM426>:
    3636:	ce 01       	movw	r24, r28
    3638:	01 96       	adiw	r24, 0x01	; 1
    363a:	0e 94 da 1a 	call	0x35b4	; 0x35b4 <LCD_displayString>

0000363e <.LM427>:
    363e:	00 00       	nop
    3640:	62 96       	adiw	r28, 0x12	; 18
    3642:	0f b6       	in	r0, 0x3f	; 63
    3644:	f8 94       	cli
    3646:	de bf       	out	0x3e, r29	; 62
    3648:	0f be       	out	0x3f, r0	; 63
    364a:	cd bf       	out	0x3d, r28	; 61
    364c:	df 91       	pop	r29
    364e:	cf 91       	pop	r28
    3650:	08 95       	ret

00003652 <LCD_moveCursor>:
    3652:	cf 93       	push	r28
    3654:	df 93       	push	r29
    3656:	00 d0       	rcall	.+0      	; 0x3658 <L0^A>

00003658 <L0^A>:
    3658:	0f 92       	push	r0
    365a:	cd b7       	in	r28, 0x3d	; 61
    365c:	de b7       	in	r29, 0x3e	; 62
    365e:	8a 83       	std	Y+2, r24	; 0x02
    3660:	6b 83       	std	Y+3, r22	; 0x03

00003662 <.LM429>:
    3662:	8a 81       	ldd	r24, Y+2	; 0x02
    3664:	88 2f       	mov	r24, r24
    3666:	90 e0       	ldi	r25, 0x00	; 0
    3668:	83 30       	cpi	r24, 0x03	; 3
    366a:	91 05       	cpc	r25, r1
    366c:	c9 f0       	breq	.+50     	; 0x36a0 <.L313>
    366e:	84 30       	cpi	r24, 0x04	; 4
    3670:	91 05       	cpc	r25, r1
    3672:	d4 f4       	brge	.+52     	; 0x36a8 <.L314>
    3674:	82 30       	cpi	r24, 0x02	; 2
    3676:	91 05       	cpc	r25, r1
    3678:	79 f0       	breq	.+30     	; 0x3698 <.L315>
    367a:	83 30       	cpi	r24, 0x03	; 3
    367c:	91 05       	cpc	r25, r1
    367e:	a4 f4       	brge	.+40     	; 0x36a8 <.L314>
    3680:	00 97       	sbiw	r24, 0x00	; 0
    3682:	19 f0       	breq	.+6      	; 0x368a <.L316>
    3684:	01 97       	sbiw	r24, 0x01	; 1
    3686:	21 f0       	breq	.+8      	; 0x3690 <.L317>
    3688:	0f c0       	rjmp	.+30     	; 0x36a8 <.L314>

0000368a <.L316>:
    368a:	8b 81       	ldd	r24, Y+3	; 0x03
    368c:	89 83       	std	Y+1, r24	; 0x01

0000368e <.LM431>:
    368e:	0c c0       	rjmp	.+24     	; 0x36a8 <.L314>

00003690 <.L317>:
    3690:	8b 81       	ldd	r24, Y+3	; 0x03
    3692:	80 5c       	subi	r24, 0xC0	; 192
    3694:	89 83       	std	Y+1, r24	; 0x01

00003696 <.LM433>:
    3696:	08 c0       	rjmp	.+16     	; 0x36a8 <.L314>

00003698 <.L315>:
    3698:	8b 81       	ldd	r24, Y+3	; 0x03
    369a:	80 5f       	subi	r24, 0xF0	; 240
    369c:	89 83       	std	Y+1, r24	; 0x01

0000369e <.LM435>:
    369e:	04 c0       	rjmp	.+8      	; 0x36a8 <.L314>

000036a0 <.L313>:
    36a0:	8b 81       	ldd	r24, Y+3	; 0x03
    36a2:	80 5c       	subi	r24, 0xC0	; 192
    36a4:	89 83       	std	Y+1, r24	; 0x01

000036a6 <.LM437>:
	...

000036a8 <.L314>:
    36a8:	89 81       	ldd	r24, Y+1	; 0x01
    36aa:	80 68       	ori	r24, 0x80	; 128
    36ac:	0e 94 de 04 	call	0x9bc	; 0x9bc <LCD_sendCommand>

000036b0 <.LM439>:
    36b0:	00 00       	nop
    36b2:	0f 90       	pop	r0
    36b4:	0f 90       	pop	r0
    36b6:	0f 90       	pop	r0
    36b8:	df 91       	pop	r29
    36ba:	cf 91       	pop	r28
    36bc:	08 95       	ret

000036be <LCD_displayStringRowColumn>:
    36be:	cf 93       	push	r28
    36c0:	df 93       	push	r29
    36c2:	00 d0       	rcall	.+0      	; 0x36c4 <L0^A>

000036c4 <L0^A>:
    36c4:	00 d0       	rcall	.+0      	; 0x36c6 <L0^A>

000036c6 <L0^A>:
    36c6:	cd b7       	in	r28, 0x3d	; 61
    36c8:	de b7       	in	r29, 0x3e	; 62
    36ca:	89 83       	std	Y+1, r24	; 0x01
    36cc:	6a 83       	std	Y+2, r22	; 0x02
    36ce:	5c 83       	std	Y+4, r21	; 0x04
    36d0:	4b 83       	std	Y+3, r20	; 0x03

000036d2 <.LM441>:
    36d2:	6a 81       	ldd	r22, Y+2	; 0x02
    36d4:	89 81       	ldd	r24, Y+1	; 0x01
    36d6:	0e 94 29 1b 	call	0x3652	; 0x3652 <LCD_moveCursor>

000036da <.LM442>:
    36da:	8b 81       	ldd	r24, Y+3	; 0x03
    36dc:	9c 81       	ldd	r25, Y+4	; 0x04
    36de:	0e 94 da 1a 	call	0x35b4	; 0x35b4 <LCD_displayString>

000036e2 <.LM443>:
    36e2:	00 00       	nop
    36e4:	0f 90       	pop	r0
    36e6:	0f 90       	pop	r0
    36e8:	0f 90       	pop	r0
    36ea:	0f 90       	pop	r0
    36ec:	df 91       	pop	r29
    36ee:	cf 91       	pop	r28
    36f0:	08 95       	ret

000036f2 <LCD_clearScreen>:
    36f2:	cf 93       	push	r28
    36f4:	df 93       	push	r29
    36f6:	cd b7       	in	r28, 0x3d	; 61
    36f8:	de b7       	in	r29, 0x3e	; 62

000036fa <.LM445>:
    36fa:	81 e0       	ldi	r24, 0x01	; 1
    36fc:	0e 94 de 04 	call	0x9bc	; 0x9bc <LCD_sendCommand>

00003700 <.LM446>:
    3700:	00 00       	nop
    3702:	df 91       	pop	r29
    3704:	cf 91       	pop	r28
    3706:	08 95       	ret

00003708 <KEYPAD_getPressedKey>:
    3708:	cf 93       	push	r28
    370a:	df 93       	push	r29
    370c:	00 d0       	rcall	.+0      	; 0x370e <L0^A>

0000370e <L0^A>:
    370e:	cd b7       	in	r28, 0x3d	; 61
    3710:	de b7       	in	r29, 0x3e	; 62

00003712 <.LM1>:
    3712:	40 e0       	ldi	r20, 0x00	; 0
    3714:	64 e0       	ldi	r22, 0x04	; 4
    3716:	81 e0       	ldi	r24, 0x01	; 1
    3718:	0e 94 41 00 	call	0x82	; 0x82 <GPIO_setupPinDirection>

0000371c <.LM2>:
    371c:	40 e0       	ldi	r20, 0x00	; 0
    371e:	65 e0       	ldi	r22, 0x05	; 5
    3720:	81 e0       	ldi	r24, 0x01	; 1
    3722:	0e 94 41 00 	call	0x82	; 0x82 <GPIO_setupPinDirection>

00003726 <.LM3>:
    3726:	40 e0       	ldi	r20, 0x00	; 0
    3728:	66 e0       	ldi	r22, 0x06	; 6
    372a:	81 e0       	ldi	r24, 0x01	; 1
    372c:	0e 94 41 00 	call	0x82	; 0x82 <GPIO_setupPinDirection>

00003730 <.LM4>:
    3730:	40 e0       	ldi	r20, 0x00	; 0
    3732:	67 e0       	ldi	r22, 0x07	; 7
    3734:	81 e0       	ldi	r24, 0x01	; 1
    3736:	0e 94 41 00 	call	0x82	; 0x82 <GPIO_setupPinDirection>

0000373a <.LM5>:
    373a:	40 e0       	ldi	r20, 0x00	; 0
    373c:	62 e0       	ldi	r22, 0x02	; 2
    373e:	83 e0       	ldi	r24, 0x03	; 3
    3740:	0e 94 41 00 	call	0x82	; 0x82 <GPIO_setupPinDirection>

00003744 <.LM6>:
    3744:	40 e0       	ldi	r20, 0x00	; 0
    3746:	63 e0       	ldi	r22, 0x03	; 3
    3748:	83 e0       	ldi	r24, 0x03	; 3
    374a:	0e 94 41 00 	call	0x82	; 0x82 <GPIO_setupPinDirection>

0000374e <.LM7>:
    374e:	40 e0       	ldi	r20, 0x00	; 0
    3750:	64 e0       	ldi	r22, 0x04	; 4
    3752:	83 e0       	ldi	r24, 0x03	; 3
    3754:	0e 94 41 00 	call	0x82	; 0x82 <GPIO_setupPinDirection>

00003758 <.LM8>:
    3758:	40 e0       	ldi	r20, 0x00	; 0
    375a:	65 e0       	ldi	r22, 0x05	; 5
    375c:	81 e0       	ldi	r24, 0x01	; 1
    375e:	0e 94 41 00 	call	0x82	; 0x82 <GPIO_setupPinDirection>

00003762 <.L8>:
    3762:	19 82       	std	Y+1, r1	; 0x01

00003764 <.LM10>:
    3764:	30 c0       	rjmp	.+96     	; 0x37c6 <.L2>

00003766 <.L7>:
    3766:	89 81       	ldd	r24, Y+1	; 0x01
    3768:	8c 5f       	subi	r24, 0xFC	; 252
    376a:	41 e0       	ldi	r20, 0x01	; 1
    376c:	68 2f       	mov	r22, r24
    376e:	81 e0       	ldi	r24, 0x01	; 1
    3770:	0e 94 41 00 	call	0x82	; 0x82 <GPIO_setupPinDirection>

00003774 <.LM12>:
    3774:	89 81       	ldd	r24, Y+1	; 0x01
    3776:	8c 5f       	subi	r24, 0xFC	; 252
    3778:	40 e0       	ldi	r20, 0x00	; 0
    377a:	68 2f       	mov	r22, r24
    377c:	81 e0       	ldi	r24, 0x01	; 1
    377e:	0e 94 66 01 	call	0x2cc	; 0x2cc <GPIO_writePin>

00003782 <.LM13>:
    3782:	1a 82       	std	Y+2, r1	; 0x02

00003784 <.LM14>:
    3784:	13 c0       	rjmp	.+38     	; 0x37ac <.L3>

00003786 <.L6>:
    3786:	8a 81       	ldd	r24, Y+2	; 0x02
    3788:	8e 5f       	subi	r24, 0xFE	; 254
    378a:	68 2f       	mov	r22, r24
    378c:	83 e0       	ldi	r24, 0x03	; 3
    378e:	0e 94 92 02 	call	0x524	; 0x524 <GPIO_readPin>

00003792 <.LM16>:
    3792:	88 23       	and	r24, r24
    3794:	41 f4       	brne	.+16     	; 0x37a6 <.L4>

00003796 <.LM17>:
    3796:	89 81       	ldd	r24, Y+1	; 0x01
    3798:	98 2f       	mov	r25, r24
    379a:	99 0f       	add	r25, r25
    379c:	99 0f       	add	r25, r25
    379e:	8a 81       	ldd	r24, Y+2	; 0x02
    37a0:	89 0f       	add	r24, r25

000037a2 <.LM18>:
    37a2:	8f 5f       	subi	r24, 0xFF	; 255
    37a4:	14 c0       	rjmp	.+40     	; 0x37ce <.L9>

000037a6 <.L4>:
    37a6:	8a 81       	ldd	r24, Y+2	; 0x02
    37a8:	8f 5f       	subi	r24, 0xFF	; 255
    37aa:	8a 83       	std	Y+2, r24	; 0x02

000037ac <.L3>:
    37ac:	8a 81       	ldd	r24, Y+2	; 0x02
    37ae:	84 30       	cpi	r24, 0x04	; 4
    37b0:	50 f3       	brcs	.-44     	; 0x3786 <.L6>

000037b2 <.LM21>:
    37b2:	89 81       	ldd	r24, Y+1	; 0x01
    37b4:	8c 5f       	subi	r24, 0xFC	; 252
    37b6:	40 e0       	ldi	r20, 0x00	; 0
    37b8:	68 2f       	mov	r22, r24
    37ba:	81 e0       	ldi	r24, 0x01	; 1
    37bc:	0e 94 41 00 	call	0x82	; 0x82 <GPIO_setupPinDirection>

000037c0 <.LM22>:
    37c0:	89 81       	ldd	r24, Y+1	; 0x01
    37c2:	8f 5f       	subi	r24, 0xFF	; 255
    37c4:	89 83       	std	Y+1, r24	; 0x01

000037c6 <.L2>:
    37c6:	89 81       	ldd	r24, Y+1	; 0x01
    37c8:	84 30       	cpi	r24, 0x04	; 4
    37ca:	68 f2       	brcs	.-102    	; 0x3766 <.L7>

000037cc <.LM24>:
    37cc:	ca cf       	rjmp	.-108    	; 0x3762 <.L8>

000037ce <.L9>:
    37ce:	0f 90       	pop	r0
    37d0:	0f 90       	pop	r0
    37d2:	df 91       	pop	r29
    37d4:	cf 91       	pop	r28
    37d6:	08 95       	ret

000037d8 <APP_voidInit>:
    37d8:	cf 93       	push	r28
    37da:	df 93       	push	r29
    37dc:	cd b7       	in	r28, 0x3d	; 61
    37de:	de b7       	in	r29, 0x3e	; 62

000037e0 <.LM1>:
    37e0:	0e 94 78 03 	call	0x6f0	; 0x6f0 <LCD_init>

000037e4 <.LM2>:
    37e4:	0e 94 20 03 	call	0x640	; 0x640 <GRN_LED_init>

000037e8 <.LM3>:
    37e8:	0e 94 4c 03 	call	0x698	; 0x698 <RED_LED_init>

000037ec <.LM4>:
    37ec:	00 00       	nop
    37ee:	df 91       	pop	r29
    37f0:	cf 91       	pop	r28
    37f2:	08 95       	ret

000037f4 <APP_WelcomeScreen>:
    37f4:	cf 93       	push	r28
    37f6:	df 93       	push	r29
    37f8:	cd b7       	in	r28, 0x3d	; 61
    37fa:	de b7       	in	r29, 0x3e	; 62
    37fc:	a2 97       	sbiw	r28, 0x22	; 34
    37fe:	0f b6       	in	r0, 0x3f	; 63
    3800:	f8 94       	cli
    3802:	de bf       	out	0x3e, r29	; 62
    3804:	0f be       	out	0x3f, r0	; 63
    3806:	cd bf       	out	0x3d, r28	; 61

00003808 <.LM6>:
    3808:	0e 94 79 1b 	call	0x36f2	; 0x36f2 <LCD_clearScreen>

0000380c <.LM7>:
    380c:	84 e6       	ldi	r24, 0x64	; 100
    380e:	90 e0       	ldi	r25, 0x00	; 0
    3810:	0e 94 da 1a 	call	0x35b4	; 0x35b4 <LCD_displayString>
    3814:	80 e0       	ldi	r24, 0x00	; 0
    3816:	90 e8       	ldi	r25, 0x80	; 128
    3818:	ab e3       	ldi	r26, 0x3B	; 59
    381a:	b5 e4       	ldi	r27, 0x45	; 69
    381c:	89 83       	std	Y+1, r24	; 0x01
    381e:	9a 83       	std	Y+2, r25	; 0x02
    3820:	ab 83       	std	Y+3, r26	; 0x03
    3822:	bc 83       	std	Y+4, r27	; 0x04

00003824 <.LM8>:
    3824:	20 e0       	ldi	r18, 0x00	; 0
    3826:	30 e0       	ldi	r19, 0x00	; 0
    3828:	4a e7       	ldi	r20, 0x7A	; 122
    382a:	55 e4       	ldi	r21, 0x45	; 69
    382c:	69 81       	ldd	r22, Y+1	; 0x01
    382e:	7a 81       	ldd	r23, Y+2	; 0x02
    3830:	8b 81       	ldd	r24, Y+3	; 0x03
    3832:	9c 81       	ldd	r25, Y+4	; 0x04
    3834:	0e 94 da 26 	call	0x4db4	; 0x4db4 <__mulsf3>
    3838:	6b 8b       	std	Y+19, r22	; 0x13
    383a:	7c 8b       	std	Y+20, r23	; 0x14
    383c:	8d 8b       	std	Y+21, r24	; 0x15
    383e:	9e 8b       	std	Y+22, r25	; 0x16
    3840:	8b 89       	ldd	r24, Y+19	; 0x13
    3842:	9c 89       	ldd	r25, Y+20	; 0x14
    3844:	ad 89       	ldd	r26, Y+21	; 0x15
    3846:	be 89       	ldd	r27, Y+22	; 0x16
    3848:	8d 83       	std	Y+5, r24	; 0x05
    384a:	9e 83       	std	Y+6, r25	; 0x06
    384c:	af 83       	std	Y+7, r26	; 0x07
    384e:	b8 87       	std	Y+8, r27	; 0x08

00003850 <.LM9>:
    3850:	20 e0       	ldi	r18, 0x00	; 0
    3852:	30 e0       	ldi	r19, 0x00	; 0
    3854:	40 e8       	ldi	r20, 0x80	; 128
    3856:	5f e3       	ldi	r21, 0x3F	; 63
    3858:	6d 81       	ldd	r22, Y+5	; 0x05
    385a:	7e 81       	ldd	r23, Y+6	; 0x06
    385c:	8f 81       	ldd	r24, Y+7	; 0x07
    385e:	98 85       	ldd	r25, Y+8	; 0x08
    3860:	0e 94 ba 25 	call	0x4b74	; 0x4b74 <__cmpsf2>
    3864:	88 23       	and	r24, r24
    3866:	2c f4       	brge	.+10     	; 0x3872 <.L13>

00003868 <.LM10>:
    3868:	81 e0       	ldi	r24, 0x01	; 1
    386a:	90 e0       	ldi	r25, 0x00	; 0
    386c:	9a 87       	std	Y+10, r25	; 0x0a
    386e:	89 87       	std	Y+9, r24	; 0x09
    3870:	54 c0       	rjmp	.+168    	; 0x391a <.L5>

00003872 <.L13>:
    3872:	20 e0       	ldi	r18, 0x00	; 0
    3874:	3f ef       	ldi	r19, 0xFF	; 255
    3876:	4f e7       	ldi	r20, 0x7F	; 127
    3878:	57 e4       	ldi	r21, 0x47	; 71
    387a:	6d 81       	ldd	r22, Y+5	; 0x05
    387c:	7e 81       	ldd	r23, Y+6	; 0x06
    387e:	8f 81       	ldd	r24, Y+7	; 0x07
    3880:	98 85       	ldd	r25, Y+8	; 0x08
    3882:	0e 94 d5 26 	call	0x4daa	; 0x4daa <__gesf2>
    3886:	18 16       	cp	r1, r24
    3888:	d4 f5       	brge	.+116    	; 0x38fe <.L14>

0000388a <.LM12>:
    388a:	20 e0       	ldi	r18, 0x00	; 0
    388c:	30 e0       	ldi	r19, 0x00	; 0
    388e:	40 e2       	ldi	r20, 0x20	; 32
    3890:	51 e4       	ldi	r21, 0x41	; 65
    3892:	69 81       	ldd	r22, Y+1	; 0x01
    3894:	7a 81       	ldd	r23, Y+2	; 0x02
    3896:	8b 81       	ldd	r24, Y+3	; 0x03
    3898:	9c 81       	ldd	r25, Y+4	; 0x04
    389a:	0e 94 da 26 	call	0x4db4	; 0x4db4 <__mulsf3>
    389e:	6f 8b       	std	Y+23, r22	; 0x17
    38a0:	78 8f       	std	Y+24, r23	; 0x18
    38a2:	89 8f       	std	Y+25, r24	; 0x19
    38a4:	9a 8f       	std	Y+26, r25	; 0x1a
    38a6:	8f 89       	ldd	r24, Y+23	; 0x17
    38a8:	98 8d       	ldd	r25, Y+24	; 0x18
    38aa:	a9 8d       	ldd	r26, Y+25	; 0x19
    38ac:	ba 8d       	ldd	r27, Y+26	; 0x1a
    38ae:	8f 87       	std	Y+15, r24	; 0x0f
    38b0:	98 8b       	std	Y+16, r25	; 0x10
    38b2:	a9 8b       	std	Y+17, r26	; 0x11
    38b4:	ba 8b       	std	Y+18, r27	; 0x12

000038b6 <.LM13>:
    38b6:	6f 85       	ldd	r22, Y+15	; 0x0f
    38b8:	78 89       	ldd	r23, Y+16	; 0x10
    38ba:	89 89       	ldd	r24, Y+17	; 0x11
    38bc:	9a 89       	ldd	r25, Y+18	; 0x12
    38be:	0e 94 31 26 	call	0x4c62	; 0x4c62 <__fixunssfsi>
    38c2:	6b 8f       	std	Y+27, r22	; 0x1b
    38c4:	7c 8f       	std	Y+28, r23	; 0x1c
    38c6:	8d 8f       	std	Y+29, r24	; 0x1d
    38c8:	9e 8f       	std	Y+30, r25	; 0x1e
    38ca:	ab 8d       	ldd	r26, Y+27	; 0x1b
    38cc:	bc 8d       	ldd	r27, Y+28	; 0x1c
    38ce:	ba 87       	std	Y+10, r27	; 0x0a
    38d0:	a9 87       	std	Y+9, r26	; 0x09

000038d2 <.LM14>:
    38d2:	10 c0       	rjmp	.+32     	; 0x38f4 <.L8>

000038d4 <.L9>:
    38d4:	80 e9       	ldi	r24, 0x90	; 144
    38d6:	91 e0       	ldi	r25, 0x01	; 1
    38d8:	9c 87       	std	Y+12, r25	; 0x0c
    38da:	8b 87       	std	Y+11, r24	; 0x0b

000038dc <.LM15>:
    38dc:	8b 85       	ldd	r24, Y+11	; 0x0b
    38de:	9c 85       	ldd	r25, Y+12	; 0x0c

000038e0 <.L1^B1>:
    38e0:	01 97       	sbiw	r24, 0x01	; 1
    38e2:	f1 f7       	brne	.-4      	; 0x38e0 <.L1^B1>
    38e4:	9c 87       	std	Y+12, r25	; 0x0c
    38e6:	8b 87       	std	Y+11, r24	; 0x0b

000038e8 <.LM16>:
	...

000038ea <.LM17>:
    38ea:	89 85       	ldd	r24, Y+9	; 0x09
    38ec:	9a 85       	ldd	r25, Y+10	; 0x0a
    38ee:	01 97       	sbiw	r24, 0x01	; 1
    38f0:	9a 87       	std	Y+10, r25	; 0x0a
    38f2:	89 87       	std	Y+9, r24	; 0x09

000038f4 <.L8>:
    38f4:	89 85       	ldd	r24, Y+9	; 0x09
    38f6:	9a 85       	ldd	r25, Y+10	; 0x0a
    38f8:	89 2b       	or	r24, r25
    38fa:	61 f7       	brne	.-40     	; 0x38d4 <.L9>

000038fc <.LM19>:
    38fc:	19 c0       	rjmp	.+50     	; 0x3930 <.L10>

000038fe <.L14>:
    38fe:	6d 81       	ldd	r22, Y+5	; 0x05
    3900:	7e 81       	ldd	r23, Y+6	; 0x06
    3902:	8f 81       	ldd	r24, Y+7	; 0x07
    3904:	98 85       	ldd	r25, Y+8	; 0x08
    3906:	0e 94 31 26 	call	0x4c62	; 0x4c62 <__fixunssfsi>
    390a:	6f 8f       	std	Y+31, r22	; 0x1f
    390c:	78 a3       	std	Y+32, r23	; 0x20
    390e:	89 a3       	std	Y+33, r24	; 0x21
    3910:	9a a3       	std	Y+34, r25	; 0x22
    3912:	8f 8d       	ldd	r24, Y+31	; 0x1f
    3914:	98 a1       	ldd	r25, Y+32	; 0x20
    3916:	9a 87       	std	Y+10, r25	; 0x0a
    3918:	89 87       	std	Y+9, r24	; 0x09

0000391a <.L5>:
    391a:	89 85       	ldd	r24, Y+9	; 0x09
    391c:	9a 85       	ldd	r25, Y+10	; 0x0a
    391e:	9e 87       	std	Y+14, r25	; 0x0e
    3920:	8d 87       	std	Y+13, r24	; 0x0d

00003922 <.LM21>:
    3922:	8d 85       	ldd	r24, Y+13	; 0x0d
    3924:	9e 85       	ldd	r25, Y+14	; 0x0e

00003926 <.L1^B2>:
    3926:	01 97       	sbiw	r24, 0x01	; 1
    3928:	f1 f7       	brne	.-4      	; 0x3926 <.L1^B2>
    392a:	9e 87       	std	Y+14, r25	; 0x0e
    392c:	8d 87       	std	Y+13, r24	; 0x0d

0000392e <.LM22>:
	...

00003930 <.L10>:
    3930:	0e 94 a4 1c 	call	0x3948	; 0x3948 <APP_Selector>

00003934 <.LM24>:
    3934:	00 00       	nop
    3936:	a2 96       	adiw	r28, 0x22	; 34
    3938:	0f b6       	in	r0, 0x3f	; 63
    393a:	f8 94       	cli
    393c:	de bf       	out	0x3e, r29	; 62
    393e:	0f be       	out	0x3f, r0	; 63
    3940:	cd bf       	out	0x3d, r28	; 61
    3942:	df 91       	pop	r29
    3944:	cf 91       	pop	r28
    3946:	08 95       	ret

00003948 <APP_Selector>:
    3948:	cf 93       	push	r28
    394a:	df 93       	push	r29
    394c:	cd b7       	in	r28, 0x3d	; 61
    394e:	de b7       	in	r29, 0x3e	; 62
    3950:	c6 56       	subi	r28, 0x66	; 102
    3952:	d1 09       	sbc	r29, r1
    3954:	0f b6       	in	r0, 0x3f	; 63
    3956:	f8 94       	cli
    3958:	de bf       	out	0x3e, r29	; 62
    395a:	0f be       	out	0x3f, r0	; 63
    395c:	cd bf       	out	0x3d, r28	; 61

0000395e <.LM26>:
    395e:	0e 94 79 1b 	call	0x36f2	; 0x36f2 <LCD_clearScreen>

00003962 <.LM27>:
    3962:	84 e7       	ldi	r24, 0x74	; 116
    3964:	90 e0       	ldi	r25, 0x00	; 0
    3966:	0e 94 da 1a 	call	0x35b4	; 0x35b4 <LCD_displayString>

0000396a <.LM28>:
    396a:	60 e0       	ldi	r22, 0x00	; 0
    396c:	81 e0       	ldi	r24, 0x01	; 1
    396e:	0e 94 29 1b 	call	0x3652	; 0x3652 <LCD_moveCursor>

00003972 <.LM29>:
    3972:	80 e8       	ldi	r24, 0x80	; 128
    3974:	90 e0       	ldi	r25, 0x00	; 0
    3976:	0e 94 da 1a 	call	0x35b4	; 0x35b4 <LCD_displayString>

0000397a <.LM30>:
    397a:	0e 94 84 1b 	call	0x3708	; 0x3708 <KEYPAD_getPressedKey>

0000397e <.LM31>:
    397e:	81 30       	cpi	r24, 0x01	; 1
    3980:	09 f0       	breq	.+2      	; 0x3984 <L0^A+0x2>

00003982 <L0^A>:
    3982:	9c c0       	rjmp	.+312    	; 0x3abc <.L16>
    3984:	80 e0       	ldi	r24, 0x00	; 0
    3986:	90 e0       	ldi	r25, 0x00	; 0
    3988:	aa ef       	ldi	r26, 0xFA	; 250
    398a:	b3 e4       	ldi	r27, 0x43	; 67
    398c:	89 83       	std	Y+1, r24	; 0x01
    398e:	9a 83       	std	Y+2, r25	; 0x02
    3990:	ab 83       	std	Y+3, r26	; 0x03
    3992:	bc 83       	std	Y+4, r27	; 0x04

00003994 <.LM32>:
    3994:	20 e0       	ldi	r18, 0x00	; 0
    3996:	30 e0       	ldi	r19, 0x00	; 0
    3998:	4a e7       	ldi	r20, 0x7A	; 122
    399a:	55 e4       	ldi	r21, 0x45	; 69
    399c:	69 81       	ldd	r22, Y+1	; 0x01
    399e:	7a 81       	ldd	r23, Y+2	; 0x02
    39a0:	8b 81       	ldd	r24, Y+3	; 0x03
    39a2:	9c 81       	ldd	r25, Y+4	; 0x04
    39a4:	0e 94 da 26 	call	0x4db4	; 0x4db4 <__mulsf3>
    39a8:	6f ab       	std	Y+55, r22	; 0x37
    39aa:	78 af       	std	Y+56, r23	; 0x38
    39ac:	89 af       	std	Y+57, r24	; 0x39
    39ae:	9a af       	std	Y+58, r25	; 0x3a
    39b0:	8f a9       	ldd	r24, Y+55	; 0x37
    39b2:	98 ad       	ldd	r25, Y+56	; 0x38
    39b4:	a9 ad       	ldd	r26, Y+57	; 0x39
    39b6:	ba ad       	ldd	r27, Y+58	; 0x3a
    39b8:	8d 83       	std	Y+5, r24	; 0x05
    39ba:	9e 83       	std	Y+6, r25	; 0x06
    39bc:	af 83       	std	Y+7, r26	; 0x07
    39be:	b8 87       	std	Y+8, r27	; 0x08

000039c0 <.LM33>:
    39c0:	20 e0       	ldi	r18, 0x00	; 0
    39c2:	30 e0       	ldi	r19, 0x00	; 0
    39c4:	40 e8       	ldi	r20, 0x80	; 128
    39c6:	5f e3       	ldi	r21, 0x3F	; 63
    39c8:	6d 81       	ldd	r22, Y+5	; 0x05
    39ca:	7e 81       	ldd	r23, Y+6	; 0x06
    39cc:	8f 81       	ldd	r24, Y+7	; 0x07
    39ce:	98 85       	ldd	r25, Y+8	; 0x08
    39d0:	0e 94 ba 25 	call	0x4b74	; 0x4b74 <__cmpsf2>
    39d4:	88 23       	and	r24, r24
    39d6:	2c f4       	brge	.+10     	; 0x39e2 <.L49>

000039d8 <.LM34>:
    39d8:	81 e0       	ldi	r24, 0x01	; 1
    39da:	90 e0       	ldi	r25, 0x00	; 0
    39dc:	9a 87       	std	Y+10, r25	; 0x0a
    39de:	89 87       	std	Y+9, r24	; 0x09
    39e0:	5d c0       	rjmp	.+186    	; 0x3a9c <.L19>

000039e2 <.L49>:
    39e2:	20 e0       	ldi	r18, 0x00	; 0
    39e4:	3f ef       	ldi	r19, 0xFF	; 255
    39e6:	4f e7       	ldi	r20, 0x7F	; 127
    39e8:	57 e4       	ldi	r21, 0x47	; 71
    39ea:	6d 81       	ldd	r22, Y+5	; 0x05
    39ec:	7e 81       	ldd	r23, Y+6	; 0x06
    39ee:	8f 81       	ldd	r24, Y+7	; 0x07
    39f0:	98 85       	ldd	r25, Y+8	; 0x08
    39f2:	0e 94 d5 26 	call	0x4daa	; 0x4daa <__gesf2>
    39f6:	18 16       	cp	r1, r24
    39f8:	0c f0       	brlt	.+2      	; 0x39fc <.LM36>

000039fa <L0^A>:
    39fa:	3e c0       	rjmp	.+124    	; 0x3a78 <.L50>

000039fc <.LM36>:
    39fc:	20 e0       	ldi	r18, 0x00	; 0
    39fe:	30 e0       	ldi	r19, 0x00	; 0
    3a00:	40 e2       	ldi	r20, 0x20	; 32
    3a02:	51 e4       	ldi	r21, 0x41	; 65
    3a04:	69 81       	ldd	r22, Y+1	; 0x01
    3a06:	7a 81       	ldd	r23, Y+2	; 0x02
    3a08:	8b 81       	ldd	r24, Y+3	; 0x03
    3a0a:	9c 81       	ldd	r25, Y+4	; 0x04
    3a0c:	0e 94 da 26 	call	0x4db4	; 0x4db4 <__mulsf3>
    3a10:	6b af       	std	Y+59, r22	; 0x3b
    3a12:	7c af       	std	Y+60, r23	; 0x3c
    3a14:	8d af       	std	Y+61, r24	; 0x3d
    3a16:	9e af       	std	Y+62, r25	; 0x3e
    3a18:	8b ad       	ldd	r24, Y+59	; 0x3b
    3a1a:	9c ad       	ldd	r25, Y+60	; 0x3c
    3a1c:	ad ad       	ldd	r26, Y+61	; 0x3d
    3a1e:	be ad       	ldd	r27, Y+62	; 0x3e
    3a20:	8b a7       	std	Y+43, r24	; 0x2b
    3a22:	9c a7       	std	Y+44, r25	; 0x2c
    3a24:	ad a7       	std	Y+45, r26	; 0x2d
    3a26:	be a7       	std	Y+46, r27	; 0x2e

00003a28 <.LM37>:
    3a28:	6b a5       	ldd	r22, Y+43	; 0x2b
    3a2a:	7c a5       	ldd	r23, Y+44	; 0x2c
    3a2c:	8d a5       	ldd	r24, Y+45	; 0x2d
    3a2e:	9e a5       	ldd	r25, Y+46	; 0x2e
    3a30:	0e 94 31 26 	call	0x4c62	; 0x4c62 <__fixunssfsi>
    3a34:	23 96       	adiw	r28, 0x03	; 3
    3a36:	6c af       	std	Y+60, r22	; 0x3c
    3a38:	7d af       	std	Y+61, r23	; 0x3d
    3a3a:	8e af       	std	Y+62, r24	; 0x3e
    3a3c:	9f af       	std	Y+63, r25	; 0x3f
    3a3e:	23 97       	sbiw	r28, 0x03	; 3
    3a40:	21 96       	adiw	r28, 0x01	; 1
    3a42:	ae ad       	ldd	r26, Y+62	; 0x3e
    3a44:	bf ad       	ldd	r27, Y+63	; 0x3f
    3a46:	21 97       	sbiw	r28, 0x01	; 1
    3a48:	ba 87       	std	Y+10, r27	; 0x0a
    3a4a:	a9 87       	std	Y+9, r26	; 0x09

00003a4c <.LM38>:
    3a4c:	10 c0       	rjmp	.+32     	; 0x3a6e <.L22>

00003a4e <.L23>:
    3a4e:	80 e9       	ldi	r24, 0x90	; 144
    3a50:	91 e0       	ldi	r25, 0x01	; 1
    3a52:	9c 87       	std	Y+12, r25	; 0x0c
    3a54:	8b 87       	std	Y+11, r24	; 0x0b

00003a56 <.LM39>:
    3a56:	8b 85       	ldd	r24, Y+11	; 0x0b
    3a58:	9c 85       	ldd	r25, Y+12	; 0x0c

00003a5a <.L1^B3>:
    3a5a:	01 97       	sbiw	r24, 0x01	; 1
    3a5c:	f1 f7       	brne	.-4      	; 0x3a5a <.L1^B3>
    3a5e:	9c 87       	std	Y+12, r25	; 0x0c
    3a60:	8b 87       	std	Y+11, r24	; 0x0b

00003a62 <.LM40>:
	...

00003a64 <.LM41>:
    3a64:	89 85       	ldd	r24, Y+9	; 0x09
    3a66:	9a 85       	ldd	r25, Y+10	; 0x0a
    3a68:	01 97       	sbiw	r24, 0x01	; 1
    3a6a:	9a 87       	std	Y+10, r25	; 0x0a
    3a6c:	89 87       	std	Y+9, r24	; 0x09

00003a6e <.L22>:
    3a6e:	89 85       	ldd	r24, Y+9	; 0x09
    3a70:	9a 85       	ldd	r25, Y+10	; 0x0a
    3a72:	89 2b       	or	r24, r25
    3a74:	61 f7       	brne	.-40     	; 0x3a4e <.L23>

00003a76 <.LM43>:
    3a76:	1d c0       	rjmp	.+58     	; 0x3ab2 <.L24>

00003a78 <.L50>:
    3a78:	6d 81       	ldd	r22, Y+5	; 0x05
    3a7a:	7e 81       	ldd	r23, Y+6	; 0x06
    3a7c:	8f 81       	ldd	r24, Y+7	; 0x07
    3a7e:	98 85       	ldd	r25, Y+8	; 0x08
    3a80:	0e 94 31 26 	call	0x4c62	; 0x4c62 <__fixunssfsi>
    3a84:	27 96       	adiw	r28, 0x07	; 7
    3a86:	6c af       	std	Y+60, r22	; 0x3c
    3a88:	7d af       	std	Y+61, r23	; 0x3d
    3a8a:	8e af       	std	Y+62, r24	; 0x3e
    3a8c:	9f af       	std	Y+63, r25	; 0x3f
    3a8e:	27 97       	sbiw	r28, 0x07	; 7
    3a90:	25 96       	adiw	r28, 0x05	; 5
    3a92:	8e ad       	ldd	r24, Y+62	; 0x3e
    3a94:	9f ad       	ldd	r25, Y+63	; 0x3f
    3a96:	25 97       	sbiw	r28, 0x05	; 5
    3a98:	9a 87       	std	Y+10, r25	; 0x0a
    3a9a:	89 87       	std	Y+9, r24	; 0x09

00003a9c <.L19>:
    3a9c:	89 85       	ldd	r24, Y+9	; 0x09
    3a9e:	9a 85       	ldd	r25, Y+10	; 0x0a
    3aa0:	9e 87       	std	Y+14, r25	; 0x0e
    3aa2:	8d 87       	std	Y+13, r24	; 0x0d

00003aa4 <.LM45>:
    3aa4:	8d 85       	ldd	r24, Y+13	; 0x0d
    3aa6:	9e 85       	ldd	r25, Y+14	; 0x0e

00003aa8 <.L1^B4>:
    3aa8:	01 97       	sbiw	r24, 0x01	; 1
    3aaa:	f1 f7       	brne	.-4      	; 0x3aa8 <.L1^B4>
    3aac:	9e 87       	std	Y+14, r25	; 0x0e
    3aae:	8d 87       	std	Y+13, r24	; 0x0d

00003ab0 <.LM46>:
	...

00003ab2 <.L24>:
    3ab2:	0e 94 79 1b 	call	0x36f2	; 0x36f2 <LCD_clearScreen>

00003ab6 <.LM48>:
    3ab6:	0e 94 c3 1e 	call	0x3d86	; 0x3d86 <APP_CheckPassword>

00003aba <.LM49>:
    3aba:	5a c1       	rjmp	.+692    	; 0x3d70 <.L55>

00003abc <.L16>:
    3abc:	0e 94 84 1b 	call	0x3708	; 0x3708 <KEYPAD_getPressedKey>

00003ac0 <.LM51>:
    3ac0:	82 30       	cpi	r24, 0x02	; 2
    3ac2:	09 f0       	breq	.+2      	; 0x3ac6 <L0^A+0x2>

00003ac4 <L0^A>:
    3ac4:	a6 c0       	rjmp	.+332    	; 0x3c12 <.L26>
    3ac6:	80 e0       	ldi	r24, 0x00	; 0
    3ac8:	90 e0       	ldi	r25, 0x00	; 0
    3aca:	aa ef       	ldi	r26, 0xFA	; 250
    3acc:	b3 e4       	ldi	r27, 0x43	; 67
    3ace:	8f 87       	std	Y+15, r24	; 0x0f
    3ad0:	98 8b       	std	Y+16, r25	; 0x10
    3ad2:	a9 8b       	std	Y+17, r26	; 0x11
    3ad4:	ba 8b       	std	Y+18, r27	; 0x12

00003ad6 <.LM52>:
    3ad6:	20 e0       	ldi	r18, 0x00	; 0
    3ad8:	30 e0       	ldi	r19, 0x00	; 0
    3ada:	4a e7       	ldi	r20, 0x7A	; 122
    3adc:	55 e4       	ldi	r21, 0x45	; 69
    3ade:	6f 85       	ldd	r22, Y+15	; 0x0f
    3ae0:	78 89       	ldd	r23, Y+16	; 0x10
    3ae2:	89 89       	ldd	r24, Y+17	; 0x11
    3ae4:	9a 89       	ldd	r25, Y+18	; 0x12
    3ae6:	0e 94 da 26 	call	0x4db4	; 0x4db4 <__mulsf3>
    3aea:	2b 96       	adiw	r28, 0x0b	; 11
    3aec:	6c af       	std	Y+60, r22	; 0x3c
    3aee:	7d af       	std	Y+61, r23	; 0x3d
    3af0:	8e af       	std	Y+62, r24	; 0x3e
    3af2:	9f af       	std	Y+63, r25	; 0x3f
    3af4:	2b 97       	sbiw	r28, 0x0b	; 11
    3af6:	2b 96       	adiw	r28, 0x0b	; 11
    3af8:	8c ad       	ldd	r24, Y+60	; 0x3c
    3afa:	9d ad       	ldd	r25, Y+61	; 0x3d
    3afc:	ae ad       	ldd	r26, Y+62	; 0x3e
    3afe:	bf ad       	ldd	r27, Y+63	; 0x3f
    3b00:	2b 97       	sbiw	r28, 0x0b	; 11
    3b02:	8b 8b       	std	Y+19, r24	; 0x13
    3b04:	9c 8b       	std	Y+20, r25	; 0x14
    3b06:	ad 8b       	std	Y+21, r26	; 0x15
    3b08:	be 8b       	std	Y+22, r27	; 0x16

00003b0a <.LM53>:
    3b0a:	20 e0       	ldi	r18, 0x00	; 0
    3b0c:	30 e0       	ldi	r19, 0x00	; 0
    3b0e:	40 e8       	ldi	r20, 0x80	; 128
    3b10:	5f e3       	ldi	r21, 0x3F	; 63
    3b12:	6b 89       	ldd	r22, Y+19	; 0x13
    3b14:	7c 89       	ldd	r23, Y+20	; 0x14
    3b16:	8d 89       	ldd	r24, Y+21	; 0x15
    3b18:	9e 89       	ldd	r25, Y+22	; 0x16
    3b1a:	0e 94 ba 25 	call	0x4b74	; 0x4b74 <__cmpsf2>
    3b1e:	88 23       	and	r24, r24
    3b20:	2c f4       	brge	.+10     	; 0x3b2c <.L51>

00003b22 <.LM54>:
    3b22:	81 e0       	ldi	r24, 0x01	; 1
    3b24:	90 e0       	ldi	r25, 0x00	; 0
    3b26:	98 8f       	std	Y+24, r25	; 0x18
    3b28:	8f 8b       	std	Y+23, r24	; 0x17
    3b2a:	61 c0       	rjmp	.+194    	; 0x3bee <.L29>

00003b2c <.L51>:
    3b2c:	20 e0       	ldi	r18, 0x00	; 0
    3b2e:	3f ef       	ldi	r19, 0xFF	; 255
    3b30:	4f e7       	ldi	r20, 0x7F	; 127
    3b32:	57 e4       	ldi	r21, 0x47	; 71
    3b34:	6b 89       	ldd	r22, Y+19	; 0x13
    3b36:	7c 89       	ldd	r23, Y+20	; 0x14
    3b38:	8d 89       	ldd	r24, Y+21	; 0x15
    3b3a:	9e 89       	ldd	r25, Y+22	; 0x16
    3b3c:	0e 94 d5 26 	call	0x4daa	; 0x4daa <__gesf2>
    3b40:	18 16       	cp	r1, r24
    3b42:	0c f0       	brlt	.+2      	; 0x3b46 <.LM56>

00003b44 <L0^A>:
    3b44:	42 c0       	rjmp	.+132    	; 0x3bca <.L52>

00003b46 <.LM56>:
    3b46:	20 e0       	ldi	r18, 0x00	; 0
    3b48:	30 e0       	ldi	r19, 0x00	; 0
    3b4a:	40 e2       	ldi	r20, 0x20	; 32
    3b4c:	51 e4       	ldi	r21, 0x41	; 65
    3b4e:	6f 85       	ldd	r22, Y+15	; 0x0f
    3b50:	78 89       	ldd	r23, Y+16	; 0x10
    3b52:	89 89       	ldd	r24, Y+17	; 0x11
    3b54:	9a 89       	ldd	r25, Y+18	; 0x12
    3b56:	0e 94 da 26 	call	0x4db4	; 0x4db4 <__mulsf3>
    3b5a:	2f 96       	adiw	r28, 0x0f	; 15
    3b5c:	6c af       	std	Y+60, r22	; 0x3c
    3b5e:	7d af       	std	Y+61, r23	; 0x3d
    3b60:	8e af       	std	Y+62, r24	; 0x3e
    3b62:	9f af       	std	Y+63, r25	; 0x3f
    3b64:	2f 97       	sbiw	r28, 0x0f	; 15
    3b66:	2f 96       	adiw	r28, 0x0f	; 15
    3b68:	8c ad       	ldd	r24, Y+60	; 0x3c
    3b6a:	9d ad       	ldd	r25, Y+61	; 0x3d
    3b6c:	ae ad       	ldd	r26, Y+62	; 0x3e
    3b6e:	bf ad       	ldd	r27, Y+63	; 0x3f
    3b70:	2f 97       	sbiw	r28, 0x0f	; 15
    3b72:	8f a7       	std	Y+47, r24	; 0x2f
    3b74:	98 ab       	std	Y+48, r25	; 0x30
    3b76:	a9 ab       	std	Y+49, r26	; 0x31
    3b78:	ba ab       	std	Y+50, r27	; 0x32

00003b7a <.LM57>:
    3b7a:	6f a5       	ldd	r22, Y+47	; 0x2f
    3b7c:	78 a9       	ldd	r23, Y+48	; 0x30
    3b7e:	89 a9       	ldd	r24, Y+49	; 0x31
    3b80:	9a a9       	ldd	r25, Y+50	; 0x32
    3b82:	0e 94 31 26 	call	0x4c62	; 0x4c62 <__fixunssfsi>
    3b86:	63 96       	adiw	r28, 0x13	; 19
    3b88:	6c af       	std	Y+60, r22	; 0x3c
    3b8a:	7d af       	std	Y+61, r23	; 0x3d
    3b8c:	8e af       	std	Y+62, r24	; 0x3e
    3b8e:	9f af       	std	Y+63, r25	; 0x3f
    3b90:	63 97       	sbiw	r28, 0x13	; 19
    3b92:	61 96       	adiw	r28, 0x11	; 17
    3b94:	ae ad       	ldd	r26, Y+62	; 0x3e
    3b96:	bf ad       	ldd	r27, Y+63	; 0x3f
    3b98:	61 97       	sbiw	r28, 0x11	; 17
    3b9a:	b8 8f       	std	Y+24, r27	; 0x18
    3b9c:	af 8b       	std	Y+23, r26	; 0x17

00003b9e <.LM58>:
    3b9e:	10 c0       	rjmp	.+32     	; 0x3bc0 <.L32>

00003ba0 <.L33>:
    3ba0:	80 e9       	ldi	r24, 0x90	; 144
    3ba2:	91 e0       	ldi	r25, 0x01	; 1
    3ba4:	9a 8f       	std	Y+26, r25	; 0x1a
    3ba6:	89 8f       	std	Y+25, r24	; 0x19

00003ba8 <.LM59>:
    3ba8:	89 8d       	ldd	r24, Y+25	; 0x19
    3baa:	9a 8d       	ldd	r25, Y+26	; 0x1a

00003bac <.L1^B5>:
    3bac:	01 97       	sbiw	r24, 0x01	; 1
    3bae:	f1 f7       	brne	.-4      	; 0x3bac <.L1^B5>
    3bb0:	9a 8f       	std	Y+26, r25	; 0x1a
    3bb2:	89 8f       	std	Y+25, r24	; 0x19

00003bb4 <.LM60>:
	...

00003bb6 <.LM61>:
    3bb6:	8f 89       	ldd	r24, Y+23	; 0x17
    3bb8:	98 8d       	ldd	r25, Y+24	; 0x18
    3bba:	01 97       	sbiw	r24, 0x01	; 1
    3bbc:	98 8f       	std	Y+24, r25	; 0x18
    3bbe:	8f 8b       	std	Y+23, r24	; 0x17

00003bc0 <.L32>:
    3bc0:	8f 89       	ldd	r24, Y+23	; 0x17
    3bc2:	98 8d       	ldd	r25, Y+24	; 0x18
    3bc4:	89 2b       	or	r24, r25
    3bc6:	61 f7       	brne	.-40     	; 0x3ba0 <.L33>

00003bc8 <.LM63>:
    3bc8:	1d c0       	rjmp	.+58     	; 0x3c04 <.L34>

00003bca <.L52>:
    3bca:	6b 89       	ldd	r22, Y+19	; 0x13
    3bcc:	7c 89       	ldd	r23, Y+20	; 0x14
    3bce:	8d 89       	ldd	r24, Y+21	; 0x15
    3bd0:	9e 89       	ldd	r25, Y+22	; 0x16
    3bd2:	0e 94 31 26 	call	0x4c62	; 0x4c62 <__fixunssfsi>
    3bd6:	67 96       	adiw	r28, 0x17	; 23
    3bd8:	6c af       	std	Y+60, r22	; 0x3c
    3bda:	7d af       	std	Y+61, r23	; 0x3d
    3bdc:	8e af       	std	Y+62, r24	; 0x3e
    3bde:	9f af       	std	Y+63, r25	; 0x3f
    3be0:	67 97       	sbiw	r28, 0x17	; 23
    3be2:	65 96       	adiw	r28, 0x15	; 21
    3be4:	8e ad       	ldd	r24, Y+62	; 0x3e
    3be6:	9f ad       	ldd	r25, Y+63	; 0x3f
    3be8:	65 97       	sbiw	r28, 0x15	; 21
    3bea:	98 8f       	std	Y+24, r25	; 0x18
    3bec:	8f 8b       	std	Y+23, r24	; 0x17

00003bee <.L29>:
    3bee:	8f 89       	ldd	r24, Y+23	; 0x17
    3bf0:	98 8d       	ldd	r25, Y+24	; 0x18
    3bf2:	9c 8f       	std	Y+28, r25	; 0x1c
    3bf4:	8b 8f       	std	Y+27, r24	; 0x1b

00003bf6 <.LM65>:
    3bf6:	8b 8d       	ldd	r24, Y+27	; 0x1b
    3bf8:	9c 8d       	ldd	r25, Y+28	; 0x1c

00003bfa <.L1^B6>:
    3bfa:	01 97       	sbiw	r24, 0x01	; 1
    3bfc:	f1 f7       	brne	.-4      	; 0x3bfa <.L1^B6>
    3bfe:	9c 8f       	std	Y+28, r25	; 0x1c
    3c00:	8b 8f       	std	Y+27, r24	; 0x1b

00003c02 <.LM66>:
	...

00003c04 <.L34>:
    3c04:	0e 94 79 1b 	call	0x36f2	; 0x36f2 <LCD_clearScreen>

00003c08 <.LM68>:
    3c08:	0e 94 25 21 	call	0x424a	; 0x424a <APP_CheckChangePass>

00003c0c <.LM69>:
    3c0c:	0e 94 2d 22 	call	0x445a	; 0x445a <APP_ChangePassword>

00003c10 <.LM70>:
    3c10:	af c0       	rjmp	.+350    	; 0x3d70 <.L55>

00003c12 <.L26>:
    3c12:	0e 94 79 1b 	call	0x36f2	; 0x36f2 <LCD_clearScreen>

00003c16 <.LM72>:
    3c16:	8e e8       	ldi	r24, 0x8E	; 142
    3c18:	90 e0       	ldi	r25, 0x00	; 0
    3c1a:	0e 94 da 1a 	call	0x35b4	; 0x35b4 <LCD_displayString>

00003c1e <.LM73>:
    3c1e:	60 e0       	ldi	r22, 0x00	; 0
    3c20:	81 e0       	ldi	r24, 0x01	; 1
    3c22:	0e 94 29 1b 	call	0x3652	; 0x3652 <LCD_moveCursor>

00003c26 <.LM74>:
    3c26:	8a e9       	ldi	r24, 0x9A	; 154
    3c28:	90 e0       	ldi	r25, 0x00	; 0
    3c2a:	0e 94 da 1a 	call	0x35b4	; 0x35b4 <LCD_displayString>
    3c2e:	80 e0       	ldi	r24, 0x00	; 0
    3c30:	90 e8       	ldi	r25, 0x80	; 128
    3c32:	ab e3       	ldi	r26, 0x3B	; 59
    3c34:	b5 e4       	ldi	r27, 0x45	; 69
    3c36:	8d 8f       	std	Y+29, r24	; 0x1d
    3c38:	9e 8f       	std	Y+30, r25	; 0x1e
    3c3a:	af 8f       	std	Y+31, r26	; 0x1f
    3c3c:	b8 a3       	std	Y+32, r27	; 0x20

00003c3e <.LM75>:
    3c3e:	20 e0       	ldi	r18, 0x00	; 0
    3c40:	30 e0       	ldi	r19, 0x00	; 0
    3c42:	4a e7       	ldi	r20, 0x7A	; 122
    3c44:	55 e4       	ldi	r21, 0x45	; 69
    3c46:	6d 8d       	ldd	r22, Y+29	; 0x1d
    3c48:	7e 8d       	ldd	r23, Y+30	; 0x1e
    3c4a:	8f 8d       	ldd	r24, Y+31	; 0x1f
    3c4c:	98 a1       	ldd	r25, Y+32	; 0x20
    3c4e:	0e 94 da 26 	call	0x4db4	; 0x4db4 <__mulsf3>
    3c52:	6b 96       	adiw	r28, 0x1b	; 27
    3c54:	6c af       	std	Y+60, r22	; 0x3c
    3c56:	7d af       	std	Y+61, r23	; 0x3d
    3c58:	8e af       	std	Y+62, r24	; 0x3e
    3c5a:	9f af       	std	Y+63, r25	; 0x3f
    3c5c:	6b 97       	sbiw	r28, 0x1b	; 27
    3c5e:	6b 96       	adiw	r28, 0x1b	; 27
    3c60:	8c ad       	ldd	r24, Y+60	; 0x3c
    3c62:	9d ad       	ldd	r25, Y+61	; 0x3d
    3c64:	ae ad       	ldd	r26, Y+62	; 0x3e
    3c66:	bf ad       	ldd	r27, Y+63	; 0x3f
    3c68:	6b 97       	sbiw	r28, 0x1b	; 27
    3c6a:	89 a3       	std	Y+33, r24	; 0x21
    3c6c:	9a a3       	std	Y+34, r25	; 0x22
    3c6e:	ab a3       	std	Y+35, r26	; 0x23
    3c70:	bc a3       	std	Y+36, r27	; 0x24

00003c72 <.LM76>:
    3c72:	20 e0       	ldi	r18, 0x00	; 0
    3c74:	30 e0       	ldi	r19, 0x00	; 0
    3c76:	40 e8       	ldi	r20, 0x80	; 128
    3c78:	5f e3       	ldi	r21, 0x3F	; 63
    3c7a:	69 a1       	ldd	r22, Y+33	; 0x21
    3c7c:	7a a1       	ldd	r23, Y+34	; 0x22
    3c7e:	8b a1       	ldd	r24, Y+35	; 0x23
    3c80:	9c a1       	ldd	r25, Y+36	; 0x24
    3c82:	0e 94 ba 25 	call	0x4b74	; 0x4b74 <__cmpsf2>
    3c86:	88 23       	and	r24, r24
    3c88:	2c f4       	brge	.+10     	; 0x3c94 <.L53>

00003c8a <.LM77>:
    3c8a:	81 e0       	ldi	r24, 0x01	; 1
    3c8c:	90 e0       	ldi	r25, 0x00	; 0
    3c8e:	9e a3       	std	Y+38, r25	; 0x26
    3c90:	8d a3       	std	Y+37, r24	; 0x25
    3c92:	61 c0       	rjmp	.+194    	; 0x3d56 <.L37>

00003c94 <.L53>:
    3c94:	20 e0       	ldi	r18, 0x00	; 0
    3c96:	3f ef       	ldi	r19, 0xFF	; 255
    3c98:	4f e7       	ldi	r20, 0x7F	; 127
    3c9a:	57 e4       	ldi	r21, 0x47	; 71
    3c9c:	69 a1       	ldd	r22, Y+33	; 0x21
    3c9e:	7a a1       	ldd	r23, Y+34	; 0x22
    3ca0:	8b a1       	ldd	r24, Y+35	; 0x23
    3ca2:	9c a1       	ldd	r25, Y+36	; 0x24
    3ca4:	0e 94 d5 26 	call	0x4daa	; 0x4daa <__gesf2>
    3ca8:	18 16       	cp	r1, r24
    3caa:	0c f0       	brlt	.+2      	; 0x3cae <.LM79>

00003cac <L0^A>:
    3cac:	42 c0       	rjmp	.+132    	; 0x3d32 <.L54>

00003cae <.LM79>:
    3cae:	20 e0       	ldi	r18, 0x00	; 0
    3cb0:	30 e0       	ldi	r19, 0x00	; 0
    3cb2:	40 e2       	ldi	r20, 0x20	; 32
    3cb4:	51 e4       	ldi	r21, 0x41	; 65
    3cb6:	6d 8d       	ldd	r22, Y+29	; 0x1d
    3cb8:	7e 8d       	ldd	r23, Y+30	; 0x1e
    3cba:	8f 8d       	ldd	r24, Y+31	; 0x1f
    3cbc:	98 a1       	ldd	r25, Y+32	; 0x20
    3cbe:	0e 94 da 26 	call	0x4db4	; 0x4db4 <__mulsf3>
    3cc2:	6f 96       	adiw	r28, 0x1f	; 31
    3cc4:	6c af       	std	Y+60, r22	; 0x3c
    3cc6:	7d af       	std	Y+61, r23	; 0x3d
    3cc8:	8e af       	std	Y+62, r24	; 0x3e
    3cca:	9f af       	std	Y+63, r25	; 0x3f
    3ccc:	6f 97       	sbiw	r28, 0x1f	; 31
    3cce:	6f 96       	adiw	r28, 0x1f	; 31
    3cd0:	8c ad       	ldd	r24, Y+60	; 0x3c
    3cd2:	9d ad       	ldd	r25, Y+61	; 0x3d
    3cd4:	ae ad       	ldd	r26, Y+62	; 0x3e
    3cd6:	bf ad       	ldd	r27, Y+63	; 0x3f
    3cd8:	6f 97       	sbiw	r28, 0x1f	; 31
    3cda:	8b ab       	std	Y+51, r24	; 0x33
    3cdc:	9c ab       	std	Y+52, r25	; 0x34
    3cde:	ad ab       	std	Y+53, r26	; 0x35
    3ce0:	be ab       	std	Y+54, r27	; 0x36

00003ce2 <.LM80>:
    3ce2:	6b a9       	ldd	r22, Y+51	; 0x33
    3ce4:	7c a9       	ldd	r23, Y+52	; 0x34
    3ce6:	8d a9       	ldd	r24, Y+53	; 0x35
    3ce8:	9e a9       	ldd	r25, Y+54	; 0x36
    3cea:	0e 94 31 26 	call	0x4c62	; 0x4c62 <__fixunssfsi>
    3cee:	a3 96       	adiw	r28, 0x23	; 35
    3cf0:	6c af       	std	Y+60, r22	; 0x3c
    3cf2:	7d af       	std	Y+61, r23	; 0x3d
    3cf4:	8e af       	std	Y+62, r24	; 0x3e
    3cf6:	9f af       	std	Y+63, r25	; 0x3f
    3cf8:	a3 97       	sbiw	r28, 0x23	; 35
    3cfa:	a1 96       	adiw	r28, 0x21	; 33
    3cfc:	ae ad       	ldd	r26, Y+62	; 0x3e
    3cfe:	bf ad       	ldd	r27, Y+63	; 0x3f
    3d00:	a1 97       	sbiw	r28, 0x21	; 33
    3d02:	be a3       	std	Y+38, r27	; 0x26
    3d04:	ad a3       	std	Y+37, r26	; 0x25

00003d06 <.LM81>:
    3d06:	10 c0       	rjmp	.+32     	; 0x3d28 <.L40>

00003d08 <.L41>:
    3d08:	80 e9       	ldi	r24, 0x90	; 144
    3d0a:	91 e0       	ldi	r25, 0x01	; 1
    3d0c:	98 a7       	std	Y+40, r25	; 0x28
    3d0e:	8f a3       	std	Y+39, r24	; 0x27

00003d10 <.LM82>:
    3d10:	8f a1       	ldd	r24, Y+39	; 0x27
    3d12:	98 a5       	ldd	r25, Y+40	; 0x28

00003d14 <.L1^B7>:
    3d14:	01 97       	sbiw	r24, 0x01	; 1
    3d16:	f1 f7       	brne	.-4      	; 0x3d14 <.L1^B7>
    3d18:	98 a7       	std	Y+40, r25	; 0x28
    3d1a:	8f a3       	std	Y+39, r24	; 0x27

00003d1c <.LM83>:
	...

00003d1e <.LM84>:
    3d1e:	8d a1       	ldd	r24, Y+37	; 0x25
    3d20:	9e a1       	ldd	r25, Y+38	; 0x26
    3d22:	01 97       	sbiw	r24, 0x01	; 1
    3d24:	9e a3       	std	Y+38, r25	; 0x26
    3d26:	8d a3       	std	Y+37, r24	; 0x25

00003d28 <.L40>:
    3d28:	8d a1       	ldd	r24, Y+37	; 0x25
    3d2a:	9e a1       	ldd	r25, Y+38	; 0x26
    3d2c:	89 2b       	or	r24, r25
    3d2e:	61 f7       	brne	.-40     	; 0x3d08 <.L41>

00003d30 <.LM86>:
    3d30:	1d c0       	rjmp	.+58     	; 0x3d6c <.L42>

00003d32 <.L54>:
    3d32:	69 a1       	ldd	r22, Y+33	; 0x21
    3d34:	7a a1       	ldd	r23, Y+34	; 0x22
    3d36:	8b a1       	ldd	r24, Y+35	; 0x23
    3d38:	9c a1       	ldd	r25, Y+36	; 0x24
    3d3a:	0e 94 31 26 	call	0x4c62	; 0x4c62 <__fixunssfsi>
    3d3e:	a7 96       	adiw	r28, 0x27	; 39
    3d40:	6c af       	std	Y+60, r22	; 0x3c
    3d42:	7d af       	std	Y+61, r23	; 0x3d
    3d44:	8e af       	std	Y+62, r24	; 0x3e
    3d46:	9f af       	std	Y+63, r25	; 0x3f
    3d48:	a7 97       	sbiw	r28, 0x27	; 39
    3d4a:	a5 96       	adiw	r28, 0x25	; 37
    3d4c:	8e ad       	ldd	r24, Y+62	; 0x3e
    3d4e:	9f ad       	ldd	r25, Y+63	; 0x3f
    3d50:	a5 97       	sbiw	r28, 0x25	; 37
    3d52:	9e a3       	std	Y+38, r25	; 0x26
    3d54:	8d a3       	std	Y+37, r24	; 0x25

00003d56 <.L37>:
    3d56:	8d a1       	ldd	r24, Y+37	; 0x25
    3d58:	9e a1       	ldd	r25, Y+38	; 0x26
    3d5a:	9a a7       	std	Y+42, r25	; 0x2a
    3d5c:	89 a7       	std	Y+41, r24	; 0x29

00003d5e <.LM88>:
    3d5e:	89 a5       	ldd	r24, Y+41	; 0x29
    3d60:	9a a5       	ldd	r25, Y+42	; 0x2a

00003d62 <.L1^B8>:
    3d62:	01 97       	sbiw	r24, 0x01	; 1
    3d64:	f1 f7       	brne	.-4      	; 0x3d62 <.L1^B8>
    3d66:	9a a7       	std	Y+42, r25	; 0x2a
    3d68:	89 a7       	std	Y+41, r24	; 0x29

00003d6a <.LM89>:
	...

00003d6c <.L42>:
    3d6c:	0e 94 fa 1b 	call	0x37f4	; 0x37f4 <APP_WelcomeScreen>

00003d70 <.L55>:
    3d70:	00 00       	nop
    3d72:	ca 59       	subi	r28, 0x9A	; 154
    3d74:	df 4f       	sbci	r29, 0xFF	; 255
    3d76:	0f b6       	in	r0, 0x3f	; 63
    3d78:	f8 94       	cli
    3d7a:	de bf       	out	0x3e, r29	; 62
    3d7c:	0f be       	out	0x3f, r0	; 63
    3d7e:	cd bf       	out	0x3d, r28	; 61
    3d80:	df 91       	pop	r29
    3d82:	cf 91       	pop	r28
    3d84:	08 95       	ret

00003d86 <APP_CheckPassword>:
    3d86:	0f 93       	push	r16
    3d88:	1f 93       	push	r17
    3d8a:	cf 93       	push	r28
    3d8c:	df 93       	push	r29
    3d8e:	cd b7       	in	r28, 0x3d	; 61
    3d90:	de b7       	in	r29, 0x3e	; 62
    3d92:	ce 56       	subi	r28, 0x6E	; 110
    3d94:	d1 09       	sbc	r29, r1
    3d96:	0f b6       	in	r0, 0x3f	; 63
    3d98:	f8 94       	cli
    3d9a:	de bf       	out	0x3e, r29	; 62
    3d9c:	0f be       	out	0x3f, r0	; 63
    3d9e:	cd bf       	out	0x3d, r28	; 61

00003da0 <.LM93>:
    3da0:	81 e0       	ldi	r24, 0x01	; 1
    3da2:	89 83       	std	Y+1, r24	; 0x01

00003da4 <.LBB115>:
    3da4:	1a 82       	std	Y+2, r1	; 0x02

00003da6 <.LM95>:
    3da6:	ea c0       	rjmp	.+468    	; 0x3f7c <.L57>

00003da8 <.L73>:
    3da8:	0e 94 79 1b 	call	0x36f2	; 0x36f2 <LCD_clearScreen>

00003dac <.LM97>:
    3dac:	87 ea       	ldi	r24, 0xA7	; 167
    3dae:	90 e0       	ldi	r25, 0x00	; 0
    3db0:	0e 94 da 1a 	call	0x35b4	; 0x35b4 <LCD_displayString>

00003db4 <.LM98>:
    3db4:	60 e0       	ldi	r22, 0x00	; 0
    3db6:	81 e0       	ldi	r24, 0x01	; 1
    3db8:	0e 94 29 1b 	call	0x3652	; 0x3652 <LCD_moveCursor>

00003dbc <.LBB116>:
    3dbc:	1b 82       	std	Y+3, r1	; 0x03

00003dbe <.LM100>:
    3dbe:	b1 c0       	rjmp	.+354    	; 0x3f22 <.L58>

00003dc0 <.L67>:
    3dc0:	8b 81       	ldd	r24, Y+3	; 0x03
    3dc2:	08 2f       	mov	r16, r24
    3dc4:	10 e0       	ldi	r17, 0x00	; 0

00003dc6 <.LM102>:
    3dc6:	0e 94 84 1b 	call	0x3708	; 0x3708 <KEYPAD_getPressedKey>
    3dca:	28 2f       	mov	r18, r24

00003dcc <.LM103>:
    3dcc:	ce 01       	movw	r24, r28
    3dce:	8f 96       	adiw	r24, 0x2f	; 47
    3dd0:	80 0f       	add	r24, r16
    3dd2:	91 1f       	adc	r25, r17
    3dd4:	dc 01       	movw	r26, r24
    3dd6:	2c 93       	st	X, r18
    3dd8:	80 e0       	ldi	r24, 0x00	; 0
    3dda:	90 e0       	ldi	r25, 0x00	; 0
    3ddc:	aa ef       	ldi	r26, 0xFA	; 250
    3dde:	b3 e4       	ldi	r27, 0x43	; 67
    3de0:	8d 83       	std	Y+5, r24	; 0x05
    3de2:	9e 83       	std	Y+6, r25	; 0x06
    3de4:	af 83       	std	Y+7, r26	; 0x07
    3de6:	b8 87       	std	Y+8, r27	; 0x08

00003de8 <.LM104>:
    3de8:	20 e0       	ldi	r18, 0x00	; 0
    3dea:	30 e0       	ldi	r19, 0x00	; 0
    3dec:	4a e7       	ldi	r20, 0x7A	; 122
    3dee:	55 e4       	ldi	r21, 0x45	; 69
    3df0:	6d 81       	ldd	r22, Y+5	; 0x05
    3df2:	7e 81       	ldd	r23, Y+6	; 0x06
    3df4:	8f 81       	ldd	r24, Y+7	; 0x07
    3df6:	98 85       	ldd	r25, Y+8	; 0x08
    3df8:	0e 94 da 26 	call	0x4db4	; 0x4db4 <__mulsf3>
    3dfc:	23 96       	adiw	r28, 0x03	; 3
    3dfe:	6c af       	std	Y+60, r22	; 0x3c
    3e00:	7d af       	std	Y+61, r23	; 0x3d
    3e02:	8e af       	std	Y+62, r24	; 0x3e
    3e04:	9f af       	std	Y+63, r25	; 0x3f
    3e06:	23 97       	sbiw	r28, 0x03	; 3
    3e08:	23 96       	adiw	r28, 0x03	; 3
    3e0a:	8c ad       	ldd	r24, Y+60	; 0x3c
    3e0c:	9d ad       	ldd	r25, Y+61	; 0x3d
    3e0e:	ae ad       	ldd	r26, Y+62	; 0x3e
    3e10:	bf ad       	ldd	r27, Y+63	; 0x3f
    3e12:	23 97       	sbiw	r28, 0x03	; 3
    3e14:	89 87       	std	Y+9, r24	; 0x09
    3e16:	9a 87       	std	Y+10, r25	; 0x0a
    3e18:	ab 87       	std	Y+11, r26	; 0x0b
    3e1a:	bc 87       	std	Y+12, r27	; 0x0c

00003e1c <.LM105>:
    3e1c:	20 e0       	ldi	r18, 0x00	; 0
    3e1e:	30 e0       	ldi	r19, 0x00	; 0
    3e20:	40 e8       	ldi	r20, 0x80	; 128
    3e22:	5f e3       	ldi	r21, 0x3F	; 63
    3e24:	69 85       	ldd	r22, Y+9	; 0x09
    3e26:	7a 85       	ldd	r23, Y+10	; 0x0a
    3e28:	8b 85       	ldd	r24, Y+11	; 0x0b
    3e2a:	9c 85       	ldd	r25, Y+12	; 0x0c
    3e2c:	0e 94 ba 25 	call	0x4b74	; 0x4b74 <__cmpsf2>
    3e30:	88 23       	and	r24, r24
    3e32:	2c f4       	brge	.+10     	; 0x3e3e <.L98>

00003e34 <.LM106>:
    3e34:	81 e0       	ldi	r24, 0x01	; 1
    3e36:	90 e0       	ldi	r25, 0x00	; 0
    3e38:	9e 87       	std	Y+14, r25	; 0x0e
    3e3a:	8d 87       	std	Y+13, r24	; 0x0d
    3e3c:	61 c0       	rjmp	.+194    	; 0x3f00 <.L61>

00003e3e <.L98>:
    3e3e:	20 e0       	ldi	r18, 0x00	; 0
    3e40:	3f ef       	ldi	r19, 0xFF	; 255
    3e42:	4f e7       	ldi	r20, 0x7F	; 127
    3e44:	57 e4       	ldi	r21, 0x47	; 71
    3e46:	69 85       	ldd	r22, Y+9	; 0x09
    3e48:	7a 85       	ldd	r23, Y+10	; 0x0a
    3e4a:	8b 85       	ldd	r24, Y+11	; 0x0b
    3e4c:	9c 85       	ldd	r25, Y+12	; 0x0c
    3e4e:	0e 94 d5 26 	call	0x4daa	; 0x4daa <__gesf2>
    3e52:	18 16       	cp	r1, r24
    3e54:	0c f0       	brlt	.+2      	; 0x3e58 <.LM108>

00003e56 <L0^A>:
    3e56:	42 c0       	rjmp	.+132    	; 0x3edc <.L99>

00003e58 <.LM108>:
    3e58:	20 e0       	ldi	r18, 0x00	; 0
    3e5a:	30 e0       	ldi	r19, 0x00	; 0
    3e5c:	40 e2       	ldi	r20, 0x20	; 32
    3e5e:	51 e4       	ldi	r21, 0x41	; 65
    3e60:	6d 81       	ldd	r22, Y+5	; 0x05
    3e62:	7e 81       	ldd	r23, Y+6	; 0x06
    3e64:	8f 81       	ldd	r24, Y+7	; 0x07
    3e66:	98 85       	ldd	r25, Y+8	; 0x08
    3e68:	0e 94 da 26 	call	0x4db4	; 0x4db4 <__mulsf3>
    3e6c:	27 96       	adiw	r28, 0x07	; 7
    3e6e:	6c af       	std	Y+60, r22	; 0x3c
    3e70:	7d af       	std	Y+61, r23	; 0x3d
    3e72:	8e af       	std	Y+62, r24	; 0x3e
    3e74:	9f af       	std	Y+63, r25	; 0x3f
    3e76:	27 97       	sbiw	r28, 0x07	; 7
    3e78:	27 96       	adiw	r28, 0x07	; 7
    3e7a:	8c ad       	ldd	r24, Y+60	; 0x3c
    3e7c:	9d ad       	ldd	r25, Y+61	; 0x3d
    3e7e:	ae ad       	ldd	r26, Y+62	; 0x3e
    3e80:	bf ad       	ldd	r27, Y+63	; 0x3f
    3e82:	27 97       	sbiw	r28, 0x07	; 7
    3e84:	8b ab       	std	Y+51, r24	; 0x33
    3e86:	9c ab       	std	Y+52, r25	; 0x34
    3e88:	ad ab       	std	Y+53, r26	; 0x35
    3e8a:	be ab       	std	Y+54, r27	; 0x36

00003e8c <.LM109>:
    3e8c:	6b a9       	ldd	r22, Y+51	; 0x33
    3e8e:	7c a9       	ldd	r23, Y+52	; 0x34
    3e90:	8d a9       	ldd	r24, Y+53	; 0x35
    3e92:	9e a9       	ldd	r25, Y+54	; 0x36
    3e94:	0e 94 31 26 	call	0x4c62	; 0x4c62 <__fixunssfsi>
    3e98:	2b 96       	adiw	r28, 0x0b	; 11
    3e9a:	6c af       	std	Y+60, r22	; 0x3c
    3e9c:	7d af       	std	Y+61, r23	; 0x3d
    3e9e:	8e af       	std	Y+62, r24	; 0x3e
    3ea0:	9f af       	std	Y+63, r25	; 0x3f
    3ea2:	2b 97       	sbiw	r28, 0x0b	; 11
    3ea4:	29 96       	adiw	r28, 0x09	; 9
    3ea6:	ae ad       	ldd	r26, Y+62	; 0x3e
    3ea8:	bf ad       	ldd	r27, Y+63	; 0x3f
    3eaa:	29 97       	sbiw	r28, 0x09	; 9
    3eac:	be 87       	std	Y+14, r27	; 0x0e
    3eae:	ad 87       	std	Y+13, r26	; 0x0d

00003eb0 <.LM110>:
    3eb0:	10 c0       	rjmp	.+32     	; 0x3ed2 <.L64>

00003eb2 <.L65>:
    3eb2:	80 e9       	ldi	r24, 0x90	; 144
    3eb4:	91 e0       	ldi	r25, 0x01	; 1
    3eb6:	98 8b       	std	Y+16, r25	; 0x10
    3eb8:	8f 87       	std	Y+15, r24	; 0x0f

00003eba <.LM111>:
    3eba:	8f 85       	ldd	r24, Y+15	; 0x0f
    3ebc:	98 89       	ldd	r25, Y+16	; 0x10

00003ebe <.L1^B9>:
    3ebe:	01 97       	sbiw	r24, 0x01	; 1
    3ec0:	f1 f7       	brne	.-4      	; 0x3ebe <.L1^B9>
    3ec2:	98 8b       	std	Y+16, r25	; 0x10
    3ec4:	8f 87       	std	Y+15, r24	; 0x0f

00003ec6 <.LM112>:
	...

00003ec8 <.LM113>:
    3ec8:	8d 85       	ldd	r24, Y+13	; 0x0d
    3eca:	9e 85       	ldd	r25, Y+14	; 0x0e
    3ecc:	01 97       	sbiw	r24, 0x01	; 1
    3ece:	9e 87       	std	Y+14, r25	; 0x0e
    3ed0:	8d 87       	std	Y+13, r24	; 0x0d

00003ed2 <.L64>:
    3ed2:	8d 85       	ldd	r24, Y+13	; 0x0d
    3ed4:	9e 85       	ldd	r25, Y+14	; 0x0e
    3ed6:	89 2b       	or	r24, r25
    3ed8:	61 f7       	brne	.-40     	; 0x3eb2 <.L65>

00003eda <.LM115>:
    3eda:	1d c0       	rjmp	.+58     	; 0x3f16 <.L66>

00003edc <.L99>:
    3edc:	69 85       	ldd	r22, Y+9	; 0x09
    3ede:	7a 85       	ldd	r23, Y+10	; 0x0a
    3ee0:	8b 85       	ldd	r24, Y+11	; 0x0b
    3ee2:	9c 85       	ldd	r25, Y+12	; 0x0c
    3ee4:	0e 94 31 26 	call	0x4c62	; 0x4c62 <__fixunssfsi>
    3ee8:	2f 96       	adiw	r28, 0x0f	; 15
    3eea:	6c af       	std	Y+60, r22	; 0x3c
    3eec:	7d af       	std	Y+61, r23	; 0x3d
    3eee:	8e af       	std	Y+62, r24	; 0x3e
    3ef0:	9f af       	std	Y+63, r25	; 0x3f
    3ef2:	2f 97       	sbiw	r28, 0x0f	; 15
    3ef4:	2d 96       	adiw	r28, 0x0d	; 13
    3ef6:	ee ad       	ldd	r30, Y+62	; 0x3e
    3ef8:	ff ad       	ldd	r31, Y+63	; 0x3f
    3efa:	2d 97       	sbiw	r28, 0x0d	; 13
    3efc:	fe 87       	std	Y+14, r31	; 0x0e
    3efe:	ed 87       	std	Y+13, r30	; 0x0d

00003f00 <.L61>:
    3f00:	8d 85       	ldd	r24, Y+13	; 0x0d
    3f02:	9e 85       	ldd	r25, Y+14	; 0x0e
    3f04:	9a 8b       	std	Y+18, r25	; 0x12
    3f06:	89 8b       	std	Y+17, r24	; 0x11

00003f08 <.LM117>:
    3f08:	89 89       	ldd	r24, Y+17	; 0x11
    3f0a:	9a 89       	ldd	r25, Y+18	; 0x12

00003f0c <.L1^B10>:
    3f0c:	01 97       	sbiw	r24, 0x01	; 1
    3f0e:	f1 f7       	brne	.-4      	; 0x3f0c <.L1^B10>
    3f10:	9a 8b       	std	Y+18, r25	; 0x12
    3f12:	89 8b       	std	Y+17, r24	; 0x11

00003f14 <.LM118>:
	...

00003f16 <.L66>:
    3f16:	8a e2       	ldi	r24, 0x2A	; 42
    3f18:	0e 94 f5 10 	call	0x21ea	; 0x21ea <LCD_displayCharacter>

00003f1c <.LM120>:
    3f1c:	8b 81       	ldd	r24, Y+3	; 0x03
    3f1e:	8f 5f       	subi	r24, 0xFF	; 255
    3f20:	8b 83       	std	Y+3, r24	; 0x03

00003f22 <.L58>:
    3f22:	8b 81       	ldd	r24, Y+3	; 0x03
    3f24:	84 30       	cpi	r24, 0x04	; 4
    3f26:	08 f4       	brcc	.+2      	; 0x3f2a <.LBE116>

00003f28 <L0^A>:
    3f28:	4b cf       	rjmp	.-362    	; 0x3dc0 <.L67>

00003f2a <.LBE116>:
    3f2a:	19 82       	std	Y+1, r1	; 0x01

00003f2c <.LBB123>:
    3f2c:	1c 82       	std	Y+4, r1	; 0x04

00003f2e <.LM124>:
    3f2e:	20 c0       	rjmp	.+64     	; 0x3f70 <.L68>

00003f30 <.L71>:
    3f30:	8c 81       	ldd	r24, Y+4	; 0x04
    3f32:	88 2f       	mov	r24, r24
    3f34:	90 e0       	ldi	r25, 0x00	; 0
    3f36:	9e 01       	movw	r18, r28
    3f38:	21 5d       	subi	r18, 0xD1	; 209
    3f3a:	3f 4f       	sbci	r19, 0xFF	; 255
    3f3c:	82 0f       	add	r24, r18
    3f3e:	93 1f       	adc	r25, r19
    3f40:	dc 01       	movw	r26, r24
    3f42:	2c 91       	ld	r18, X

00003f44 <.LM126>:
    3f44:	8c 81       	ldd	r24, Y+4	; 0x04
    3f46:	88 2f       	mov	r24, r24
    3f48:	90 e0       	ldi	r25, 0x00	; 0
    3f4a:	80 5a       	subi	r24, 0xA0	; 160
    3f4c:	9f 4f       	sbci	r25, 0xFF	; 255
    3f4e:	fc 01       	movw	r30, r24
    3f50:	80 81       	ld	r24, Z

00003f52 <.LM127>:
    3f52:	28 17       	cp	r18, r24
    3f54:	51 f0       	breq	.+20     	; 0x3f6a <.L69>

00003f56 <.LM128>:
    3f56:	93 e0       	ldi	r25, 0x03	; 3
    3f58:	8a 81       	ldd	r24, Y+2	; 0x02
    3f5a:	f9 2f       	mov	r31, r25
    3f5c:	f8 1b       	sub	r31, r24
    3f5e:	8f 2f       	mov	r24, r31
    3f60:	0e 94 f7 24 	call	0x49ee	; 0x49ee <APP_WrongPasswordScreen>

00003f64 <.LM129>:
    3f64:	81 e0       	ldi	r24, 0x01	; 1
    3f66:	89 83       	std	Y+1, r24	; 0x01

00003f68 <.LM130>:
    3f68:	06 c0       	rjmp	.+12     	; 0x3f76 <.L70>

00003f6a <.L69>:
    3f6a:	8c 81       	ldd	r24, Y+4	; 0x04
    3f6c:	8f 5f       	subi	r24, 0xFF	; 255
    3f6e:	8c 83       	std	Y+4, r24	; 0x04

00003f70 <.L68>:
    3f70:	8c 81       	ldd	r24, Y+4	; 0x04
    3f72:	84 30       	cpi	r24, 0x04	; 4
    3f74:	e8 f2       	brcs	.-70     	; 0x3f30 <.L71>

00003f76 <.L70>:
    3f76:	8a 81       	ldd	r24, Y+2	; 0x02
    3f78:	8f 5f       	subi	r24, 0xFF	; 255
    3f7a:	8a 83       	std	Y+2, r24	; 0x02

00003f7c <.L57>:
    3f7c:	8a 81       	ldd	r24, Y+2	; 0x02
    3f7e:	83 30       	cpi	r24, 0x03	; 3
    3f80:	20 f4       	brcc	.+8      	; 0x3f8a <.L72>

00003f82 <.LM135>:
    3f82:	89 81       	ldd	r24, Y+1	; 0x01
    3f84:	81 30       	cpi	r24, 0x01	; 1
    3f86:	09 f4       	brne	.+2      	; 0x3f8a <.L72>

00003f88 <L0^A>:
    3f88:	0f cf       	rjmp	.-482    	; 0x3da8 <.L73>

00003f8a <.L72>:
    3f8a:	89 81       	ldd	r24, Y+1	; 0x01
    3f8c:	88 23       	and	r24, r24
    3f8e:	09 f0       	breq	.+2      	; 0x3f92 <.LM137>

00003f90 <L0^A>:
    3f90:	4b c1       	rjmp	.+662    	; 0x4228 <.L74>

00003f92 <.LM137>:
    3f92:	0e 94 47 24 	call	0x488e	; 0x488e <APP_TruePasswordScreen>
    3f96:	80 e0       	ldi	r24, 0x00	; 0
    3f98:	90 e0       	ldi	r25, 0x00	; 0
    3f9a:	aa e7       	ldi	r26, 0x7A	; 122
    3f9c:	b4 e4       	ldi	r27, 0x44	; 68
    3f9e:	89 a3       	std	Y+33, r24	; 0x21
    3fa0:	9a a3       	std	Y+34, r25	; 0x22
    3fa2:	ab a3       	std	Y+35, r26	; 0x23
    3fa4:	bc a3       	std	Y+36, r27	; 0x24

00003fa6 <.LM138>:
    3fa6:	20 e0       	ldi	r18, 0x00	; 0
    3fa8:	30 e0       	ldi	r19, 0x00	; 0
    3faa:	4a e7       	ldi	r20, 0x7A	; 122
    3fac:	55 e4       	ldi	r21, 0x45	; 69
    3fae:	69 a1       	ldd	r22, Y+33	; 0x21
    3fb0:	7a a1       	ldd	r23, Y+34	; 0x22
    3fb2:	8b a1       	ldd	r24, Y+35	; 0x23
    3fb4:	9c a1       	ldd	r25, Y+36	; 0x24
    3fb6:	0e 94 da 26 	call	0x4db4	; 0x4db4 <__mulsf3>
    3fba:	63 96       	adiw	r28, 0x13	; 19
    3fbc:	6c af       	std	Y+60, r22	; 0x3c
    3fbe:	7d af       	std	Y+61, r23	; 0x3d
    3fc0:	8e af       	std	Y+62, r24	; 0x3e
    3fc2:	9f af       	std	Y+63, r25	; 0x3f
    3fc4:	63 97       	sbiw	r28, 0x13	; 19
    3fc6:	63 96       	adiw	r28, 0x13	; 19
    3fc8:	8c ad       	ldd	r24, Y+60	; 0x3c
    3fca:	9d ad       	ldd	r25, Y+61	; 0x3d
    3fcc:	ae ad       	ldd	r26, Y+62	; 0x3e
    3fce:	bf ad       	ldd	r27, Y+63	; 0x3f
    3fd0:	63 97       	sbiw	r28, 0x13	; 19
    3fd2:	8d a3       	std	Y+37, r24	; 0x25
    3fd4:	9e a3       	std	Y+38, r25	; 0x26
    3fd6:	af a3       	std	Y+39, r26	; 0x27
    3fd8:	b8 a7       	std	Y+40, r27	; 0x28

00003fda <.LM139>:
    3fda:	20 e0       	ldi	r18, 0x00	; 0
    3fdc:	30 e0       	ldi	r19, 0x00	; 0
    3fde:	40 e8       	ldi	r20, 0x80	; 128
    3fe0:	5f e3       	ldi	r21, 0x3F	; 63
    3fe2:	6d a1       	ldd	r22, Y+37	; 0x25
    3fe4:	7e a1       	ldd	r23, Y+38	; 0x26
    3fe6:	8f a1       	ldd	r24, Y+39	; 0x27
    3fe8:	98 a5       	ldd	r25, Y+40	; 0x28
    3fea:	0e 94 ba 25 	call	0x4b74	; 0x4b74 <__cmpsf2>
    3fee:	88 23       	and	r24, r24
    3ff0:	2c f4       	brge	.+10     	; 0x3ffc <.L100>

00003ff2 <.LM140>:
    3ff2:	81 e0       	ldi	r24, 0x01	; 1
    3ff4:	90 e0       	ldi	r25, 0x00	; 0
    3ff6:	9a a7       	std	Y+42, r25	; 0x2a
    3ff8:	89 a7       	std	Y+41, r24	; 0x29
    3ffa:	61 c0       	rjmp	.+194    	; 0x40be <.L77>

00003ffc <.L100>:
    3ffc:	20 e0       	ldi	r18, 0x00	; 0
    3ffe:	3f ef       	ldi	r19, 0xFF	; 255
    4000:	4f e7       	ldi	r20, 0x7F	; 127
    4002:	57 e4       	ldi	r21, 0x47	; 71
    4004:	6d a1       	ldd	r22, Y+37	; 0x25
    4006:	7e a1       	ldd	r23, Y+38	; 0x26
    4008:	8f a1       	ldd	r24, Y+39	; 0x27
    400a:	98 a5       	ldd	r25, Y+40	; 0x28
    400c:	0e 94 d5 26 	call	0x4daa	; 0x4daa <__gesf2>
    4010:	18 16       	cp	r1, r24
    4012:	0c f0       	brlt	.+2      	; 0x4016 <.LM142>

00004014 <L0^A>:
    4014:	42 c0       	rjmp	.+132    	; 0x409a <.L101>

00004016 <.LM142>:
    4016:	20 e0       	ldi	r18, 0x00	; 0
    4018:	30 e0       	ldi	r19, 0x00	; 0
    401a:	40 e2       	ldi	r20, 0x20	; 32
    401c:	51 e4       	ldi	r21, 0x41	; 65
    401e:	69 a1       	ldd	r22, Y+33	; 0x21
    4020:	7a a1       	ldd	r23, Y+34	; 0x22
    4022:	8b a1       	ldd	r24, Y+35	; 0x23
    4024:	9c a1       	ldd	r25, Y+36	; 0x24
    4026:	0e 94 da 26 	call	0x4db4	; 0x4db4 <__mulsf3>
    402a:	67 96       	adiw	r28, 0x17	; 23
    402c:	6c af       	std	Y+60, r22	; 0x3c
    402e:	7d af       	std	Y+61, r23	; 0x3d
    4030:	8e af       	std	Y+62, r24	; 0x3e
    4032:	9f af       	std	Y+63, r25	; 0x3f
    4034:	67 97       	sbiw	r28, 0x17	; 23
    4036:	67 96       	adiw	r28, 0x17	; 23
    4038:	8c ad       	ldd	r24, Y+60	; 0x3c
    403a:	9d ad       	ldd	r25, Y+61	; 0x3d
    403c:	ae ad       	ldd	r26, Y+62	; 0x3e
    403e:	bf ad       	ldd	r27, Y+63	; 0x3f
    4040:	67 97       	sbiw	r28, 0x17	; 23
    4042:	8b af       	std	Y+59, r24	; 0x3b
    4044:	9c af       	std	Y+60, r25	; 0x3c
    4046:	ad af       	std	Y+61, r26	; 0x3d
    4048:	be af       	std	Y+62, r27	; 0x3e

0000404a <.LM143>:
    404a:	6b ad       	ldd	r22, Y+59	; 0x3b
    404c:	7c ad       	ldd	r23, Y+60	; 0x3c
    404e:	8d ad       	ldd	r24, Y+61	; 0x3d
    4050:	9e ad       	ldd	r25, Y+62	; 0x3e
    4052:	0e 94 31 26 	call	0x4c62	; 0x4c62 <__fixunssfsi>
    4056:	6b 96       	adiw	r28, 0x1b	; 27
    4058:	6c af       	std	Y+60, r22	; 0x3c
    405a:	7d af       	std	Y+61, r23	; 0x3d
    405c:	8e af       	std	Y+62, r24	; 0x3e
    405e:	9f af       	std	Y+63, r25	; 0x3f
    4060:	6b 97       	sbiw	r28, 0x1b	; 27
    4062:	69 96       	adiw	r28, 0x19	; 25
    4064:	ae ad       	ldd	r26, Y+62	; 0x3e
    4066:	bf ad       	ldd	r27, Y+63	; 0x3f
    4068:	69 97       	sbiw	r28, 0x19	; 25
    406a:	ba a7       	std	Y+42, r27	; 0x2a
    406c:	a9 a7       	std	Y+41, r26	; 0x29

0000406e <.LM144>:
    406e:	10 c0       	rjmp	.+32     	; 0x4090 <.L80>

00004070 <.L81>:
    4070:	80 e9       	ldi	r24, 0x90	; 144
    4072:	91 e0       	ldi	r25, 0x01	; 1
    4074:	9c a7       	std	Y+44, r25	; 0x2c
    4076:	8b a7       	std	Y+43, r24	; 0x2b

00004078 <.LM145>:
    4078:	8b a5       	ldd	r24, Y+43	; 0x2b
    407a:	9c a5       	ldd	r25, Y+44	; 0x2c

0000407c <.L1^B11>:
    407c:	01 97       	sbiw	r24, 0x01	; 1
    407e:	f1 f7       	brne	.-4      	; 0x407c <.L1^B11>
    4080:	9c a7       	std	Y+44, r25	; 0x2c
    4082:	8b a7       	std	Y+43, r24	; 0x2b

00004084 <.LM146>:
	...

00004086 <.LM147>:
    4086:	89 a5       	ldd	r24, Y+41	; 0x29
    4088:	9a a5       	ldd	r25, Y+42	; 0x2a
    408a:	01 97       	sbiw	r24, 0x01	; 1
    408c:	9a a7       	std	Y+42, r25	; 0x2a
    408e:	89 a7       	std	Y+41, r24	; 0x29

00004090 <.L80>:
    4090:	89 a5       	ldd	r24, Y+41	; 0x29
    4092:	9a a5       	ldd	r25, Y+42	; 0x2a
    4094:	89 2b       	or	r24, r25
    4096:	61 f7       	brne	.-40     	; 0x4070 <.L81>

00004098 <.LM149>:
    4098:	1d c0       	rjmp	.+58     	; 0x40d4 <.L82>

0000409a <.L101>:
    409a:	6d a1       	ldd	r22, Y+37	; 0x25
    409c:	7e a1       	ldd	r23, Y+38	; 0x26
    409e:	8f a1       	ldd	r24, Y+39	; 0x27
    40a0:	98 a5       	ldd	r25, Y+40	; 0x28
    40a2:	0e 94 31 26 	call	0x4c62	; 0x4c62 <__fixunssfsi>
    40a6:	6f 96       	adiw	r28, 0x1f	; 31
    40a8:	6c af       	std	Y+60, r22	; 0x3c
    40aa:	7d af       	std	Y+61, r23	; 0x3d
    40ac:	8e af       	std	Y+62, r24	; 0x3e
    40ae:	9f af       	std	Y+63, r25	; 0x3f
    40b0:	6f 97       	sbiw	r28, 0x1f	; 31
    40b2:	6d 96       	adiw	r28, 0x1d	; 29
    40b4:	ee ad       	ldd	r30, Y+62	; 0x3e
    40b6:	ff ad       	ldd	r31, Y+63	; 0x3f
    40b8:	6d 97       	sbiw	r28, 0x1d	; 29
    40ba:	fa a7       	std	Y+42, r31	; 0x2a
    40bc:	e9 a7       	std	Y+41, r30	; 0x29

000040be <.L77>:
    40be:	89 a5       	ldd	r24, Y+41	; 0x29
    40c0:	9a a5       	ldd	r25, Y+42	; 0x2a
    40c2:	9e a7       	std	Y+46, r25	; 0x2e
    40c4:	8d a7       	std	Y+45, r24	; 0x2d

000040c6 <.LM151>:
    40c6:	8d a5       	ldd	r24, Y+45	; 0x2d
    40c8:	9e a5       	ldd	r25, Y+46	; 0x2e

000040ca <.L1^B12>:
    40ca:	01 97       	sbiw	r24, 0x01	; 1
    40cc:	f1 f7       	brne	.-4      	; 0x40ca <.L1^B12>
    40ce:	9e a7       	std	Y+46, r25	; 0x2e
    40d0:	8d a7       	std	Y+45, r24	; 0x2d

000040d2 <.LM152>:
	...

000040d4 <.L82>:
    40d4:	0e 94 79 1b 	call	0x36f2	; 0x36f2 <LCD_clearScreen>

000040d8 <.LM154>:
    40d8:	83 eb       	ldi	r24, 0xB3	; 179
    40da:	90 e0       	ldi	r25, 0x00	; 0
    40dc:	0e 94 da 1a 	call	0x35b4	; 0x35b4 <LCD_displayString>
    40e0:	80 e0       	ldi	r24, 0x00	; 0
    40e2:	90 e8       	ldi	r25, 0x80	; 128
    40e4:	ab e3       	ldi	r26, 0x3B	; 59
    40e6:	b5 e4       	ldi	r27, 0x45	; 69
    40e8:	8b 8b       	std	Y+19, r24	; 0x13
    40ea:	9c 8b       	std	Y+20, r25	; 0x14
    40ec:	ad 8b       	std	Y+21, r26	; 0x15
    40ee:	be 8b       	std	Y+22, r27	; 0x16

000040f0 <.LM155>:
    40f0:	20 e0       	ldi	r18, 0x00	; 0
    40f2:	30 e0       	ldi	r19, 0x00	; 0
    40f4:	4a e7       	ldi	r20, 0x7A	; 122
    40f6:	55 e4       	ldi	r21, 0x45	; 69
    40f8:	6b 89       	ldd	r22, Y+19	; 0x13
    40fa:	7c 89       	ldd	r23, Y+20	; 0x14
    40fc:	8d 89       	ldd	r24, Y+21	; 0x15
    40fe:	9e 89       	ldd	r25, Y+22	; 0x16
    4100:	0e 94 da 26 	call	0x4db4	; 0x4db4 <__mulsf3>
    4104:	a3 96       	adiw	r28, 0x23	; 35
    4106:	6c af       	std	Y+60, r22	; 0x3c
    4108:	7d af       	std	Y+61, r23	; 0x3d
    410a:	8e af       	std	Y+62, r24	; 0x3e
    410c:	9f af       	std	Y+63, r25	; 0x3f
    410e:	a3 97       	sbiw	r28, 0x23	; 35
    4110:	a3 96       	adiw	r28, 0x23	; 35
    4112:	8c ad       	ldd	r24, Y+60	; 0x3c
    4114:	9d ad       	ldd	r25, Y+61	; 0x3d
    4116:	ae ad       	ldd	r26, Y+62	; 0x3e
    4118:	bf ad       	ldd	r27, Y+63	; 0x3f
    411a:	a3 97       	sbiw	r28, 0x23	; 35
    411c:	8f 8b       	std	Y+23, r24	; 0x17
    411e:	98 8f       	std	Y+24, r25	; 0x18
    4120:	a9 8f       	std	Y+25, r26	; 0x19
    4122:	ba 8f       	std	Y+26, r27	; 0x1a

00004124 <.LM156>:
    4124:	20 e0       	ldi	r18, 0x00	; 0
    4126:	30 e0       	ldi	r19, 0x00	; 0
    4128:	40 e8       	ldi	r20, 0x80	; 128
    412a:	5f e3       	ldi	r21, 0x3F	; 63
    412c:	6f 89       	ldd	r22, Y+23	; 0x17
    412e:	78 8d       	ldd	r23, Y+24	; 0x18
    4130:	89 8d       	ldd	r24, Y+25	; 0x19
    4132:	9a 8d       	ldd	r25, Y+26	; 0x1a
    4134:	0e 94 ba 25 	call	0x4b74	; 0x4b74 <__cmpsf2>
    4138:	88 23       	and	r24, r24
    413a:	2c f4       	brge	.+10     	; 0x4146 <.L102>

0000413c <.LM157>:
    413c:	81 e0       	ldi	r24, 0x01	; 1
    413e:	90 e0       	ldi	r25, 0x00	; 0
    4140:	9c 8f       	std	Y+28, r25	; 0x1c
    4142:	8b 8f       	std	Y+27, r24	; 0x1b
    4144:	61 c0       	rjmp	.+194    	; 0x4208 <.L85>

00004146 <.L102>:
    4146:	20 e0       	ldi	r18, 0x00	; 0
    4148:	3f ef       	ldi	r19, 0xFF	; 255
    414a:	4f e7       	ldi	r20, 0x7F	; 127
    414c:	57 e4       	ldi	r21, 0x47	; 71
    414e:	6f 89       	ldd	r22, Y+23	; 0x17
    4150:	78 8d       	ldd	r23, Y+24	; 0x18
    4152:	89 8d       	ldd	r24, Y+25	; 0x19
    4154:	9a 8d       	ldd	r25, Y+26	; 0x1a
    4156:	0e 94 d5 26 	call	0x4daa	; 0x4daa <__gesf2>
    415a:	18 16       	cp	r1, r24
    415c:	0c f0       	brlt	.+2      	; 0x4160 <.LM159>

0000415e <L0^A>:
    415e:	42 c0       	rjmp	.+132    	; 0x41e4 <.L103>

00004160 <.LM159>:
    4160:	20 e0       	ldi	r18, 0x00	; 0
    4162:	30 e0       	ldi	r19, 0x00	; 0
    4164:	40 e2       	ldi	r20, 0x20	; 32
    4166:	51 e4       	ldi	r21, 0x41	; 65
    4168:	6b 89       	ldd	r22, Y+19	; 0x13
    416a:	7c 89       	ldd	r23, Y+20	; 0x14
    416c:	8d 89       	ldd	r24, Y+21	; 0x15
    416e:	9e 89       	ldd	r25, Y+22	; 0x16
    4170:	0e 94 da 26 	call	0x4db4	; 0x4db4 <__mulsf3>
    4174:	a7 96       	adiw	r28, 0x27	; 39
    4176:	6c af       	std	Y+60, r22	; 0x3c
    4178:	7d af       	std	Y+61, r23	; 0x3d
    417a:	8e af       	std	Y+62, r24	; 0x3e
    417c:	9f af       	std	Y+63, r25	; 0x3f
    417e:	a7 97       	sbiw	r28, 0x27	; 39
    4180:	a7 96       	adiw	r28, 0x27	; 39
    4182:	8c ad       	ldd	r24, Y+60	; 0x3c
    4184:	9d ad       	ldd	r25, Y+61	; 0x3d
    4186:	ae ad       	ldd	r26, Y+62	; 0x3e
    4188:	bf ad       	ldd	r27, Y+63	; 0x3f
    418a:	a7 97       	sbiw	r28, 0x27	; 39
    418c:	8f ab       	std	Y+55, r24	; 0x37
    418e:	98 af       	std	Y+56, r25	; 0x38
    4190:	a9 af       	std	Y+57, r26	; 0x39
    4192:	ba af       	std	Y+58, r27	; 0x3a

00004194 <.LM160>:
    4194:	6f a9       	ldd	r22, Y+55	; 0x37
    4196:	78 ad       	ldd	r23, Y+56	; 0x38
    4198:	89 ad       	ldd	r24, Y+57	; 0x39
    419a:	9a ad       	ldd	r25, Y+58	; 0x3a
    419c:	0e 94 31 26 	call	0x4c62	; 0x4c62 <__fixunssfsi>
    41a0:	ab 96       	adiw	r28, 0x2b	; 43
    41a2:	6c af       	std	Y+60, r22	; 0x3c
    41a4:	7d af       	std	Y+61, r23	; 0x3d
    41a6:	8e af       	std	Y+62, r24	; 0x3e
    41a8:	9f af       	std	Y+63, r25	; 0x3f
    41aa:	ab 97       	sbiw	r28, 0x2b	; 43
    41ac:	a9 96       	adiw	r28, 0x29	; 41
    41ae:	ae ad       	ldd	r26, Y+62	; 0x3e
    41b0:	bf ad       	ldd	r27, Y+63	; 0x3f
    41b2:	a9 97       	sbiw	r28, 0x29	; 41
    41b4:	bc 8f       	std	Y+28, r27	; 0x1c
    41b6:	ab 8f       	std	Y+27, r26	; 0x1b

000041b8 <.LM161>:
    41b8:	10 c0       	rjmp	.+32     	; 0x41da <.L88>

000041ba <.L89>:
    41ba:	80 e9       	ldi	r24, 0x90	; 144
    41bc:	91 e0       	ldi	r25, 0x01	; 1
    41be:	9e 8f       	std	Y+30, r25	; 0x1e
    41c0:	8d 8f       	std	Y+29, r24	; 0x1d

000041c2 <.LM162>:
    41c2:	8d 8d       	ldd	r24, Y+29	; 0x1d
    41c4:	9e 8d       	ldd	r25, Y+30	; 0x1e

000041c6 <.L1^B13>:
    41c6:	01 97       	sbiw	r24, 0x01	; 1
    41c8:	f1 f7       	brne	.-4      	; 0x41c6 <.L1^B13>
    41ca:	9e 8f       	std	Y+30, r25	; 0x1e
    41cc:	8d 8f       	std	Y+29, r24	; 0x1d

000041ce <.LM163>:
	...

000041d0 <.LM164>:
    41d0:	8b 8d       	ldd	r24, Y+27	; 0x1b
    41d2:	9c 8d       	ldd	r25, Y+28	; 0x1c
    41d4:	01 97       	sbiw	r24, 0x01	; 1
    41d6:	9c 8f       	std	Y+28, r25	; 0x1c
    41d8:	8b 8f       	std	Y+27, r24	; 0x1b

000041da <.L88>:
    41da:	8b 8d       	ldd	r24, Y+27	; 0x1b
    41dc:	9c 8d       	ldd	r25, Y+28	; 0x1c
    41de:	89 2b       	or	r24, r25
    41e0:	61 f7       	brne	.-40     	; 0x41ba <.L89>

000041e2 <.LM166>:
    41e2:	1d c0       	rjmp	.+58     	; 0x421e <.L90>

000041e4 <.L103>:
    41e4:	6f 89       	ldd	r22, Y+23	; 0x17
    41e6:	78 8d       	ldd	r23, Y+24	; 0x18
    41e8:	89 8d       	ldd	r24, Y+25	; 0x19
    41ea:	9a 8d       	ldd	r25, Y+26	; 0x1a
    41ec:	0e 94 31 26 	call	0x4c62	; 0x4c62 <__fixunssfsi>
    41f0:	af 96       	adiw	r28, 0x2f	; 47
    41f2:	6c af       	std	Y+60, r22	; 0x3c
    41f4:	7d af       	std	Y+61, r23	; 0x3d
    41f6:	8e af       	std	Y+62, r24	; 0x3e
    41f8:	9f af       	std	Y+63, r25	; 0x3f
    41fa:	af 97       	sbiw	r28, 0x2f	; 47
    41fc:	ad 96       	adiw	r28, 0x2d	; 45
    41fe:	ee ad       	ldd	r30, Y+62	; 0x3e
    4200:	ff ad       	ldd	r31, Y+63	; 0x3f
    4202:	ad 97       	sbiw	r28, 0x2d	; 45
    4204:	fc 8f       	std	Y+28, r31	; 0x1c
    4206:	eb 8f       	std	Y+27, r30	; 0x1b

00004208 <.L85>:
    4208:	8b 8d       	ldd	r24, Y+27	; 0x1b
    420a:	9c 8d       	ldd	r25, Y+28	; 0x1c
    420c:	98 a3       	std	Y+32, r25	; 0x20
    420e:	8f 8f       	std	Y+31, r24	; 0x1f

00004210 <.LM168>:
    4210:	8f 8d       	ldd	r24, Y+31	; 0x1f
    4212:	98 a1       	ldd	r25, Y+32	; 0x20

00004214 <.L1^B14>:
    4214:	01 97       	sbiw	r24, 0x01	; 1
    4216:	f1 f7       	brne	.-4      	; 0x4214 <.L1^B14>
    4218:	98 a3       	std	Y+32, r25	; 0x20
    421a:	8f 8f       	std	Y+31, r24	; 0x1f

0000421c <.LM169>:
	...

0000421e <.L90>:
    421e:	0e 94 79 1b 	call	0x36f2	; 0x36f2 <LCD_clearScreen>

00004222 <.LM171>:
    4222:	0e 94 a4 1c 	call	0x3948	; 0x3948 <APP_Selector>

00004226 <.LM172>:
    4226:	04 c0       	rjmp	.+8      	; 0x4230 <.L104>

00004228 <.L74>:
    4228:	0e 94 99 23 	call	0x4732	; 0x4732 <APP_ThiefAlert>

0000422c <.LM174>:
    422c:	0e 94 fa 1b 	call	0x37f4	; 0x37f4 <APP_WelcomeScreen>

00004230 <.L104>:
    4230:	00 00       	nop
    4232:	c2 59       	subi	r28, 0x92	; 146
    4234:	df 4f       	sbci	r29, 0xFF	; 255
    4236:	0f b6       	in	r0, 0x3f	; 63
    4238:	f8 94       	cli
    423a:	de bf       	out	0x3e, r29	; 62
    423c:	0f be       	out	0x3f, r0	; 63
    423e:	cd bf       	out	0x3d, r28	; 61
    4240:	df 91       	pop	r29
    4242:	cf 91       	pop	r28
    4244:	1f 91       	pop	r17
    4246:	0f 91       	pop	r16
    4248:	08 95       	ret

0000424a <APP_CheckChangePass>:
    424a:	0f 93       	push	r16
    424c:	1f 93       	push	r17
    424e:	cf 93       	push	r28
    4250:	df 93       	push	r29
    4252:	cd b7       	in	r28, 0x3d	; 61
    4254:	de b7       	in	r29, 0x3e	; 62
    4256:	aa 97       	sbiw	r28, 0x2a	; 42
    4258:	0f b6       	in	r0, 0x3f	; 63
    425a:	f8 94       	cli
    425c:	de bf       	out	0x3e, r29	; 62
    425e:	0f be       	out	0x3f, r0	; 63
    4260:	cd bf       	out	0x3d, r28	; 61

00004262 <.LM177>:
    4262:	81 e0       	ldi	r24, 0x01	; 1
    4264:	89 83       	std	Y+1, r24	; 0x01

00004266 <.LBB136>:
    4266:	1a 82       	std	Y+2, r1	; 0x02

00004268 <.LM179>:
    4268:	d9 c0       	rjmp	.+434    	; 0x441c <.L106>

0000426a <.L122>:
    426a:	0e 94 79 1b 	call	0x36f2	; 0x36f2 <LCD_clearScreen>

0000426e <.LM181>:
    426e:	84 ec       	ldi	r24, 0xC4	; 196
    4270:	90 e0       	ldi	r25, 0x00	; 0
    4272:	0e 94 da 1a 	call	0x35b4	; 0x35b4 <LCD_displayString>

00004276 <.LM182>:
    4276:	60 e0       	ldi	r22, 0x00	; 0
    4278:	81 e0       	ldi	r24, 0x01	; 1
    427a:	0e 94 29 1b 	call	0x3652	; 0x3652 <LCD_moveCursor>

0000427e <.LBB137>:
    427e:	1b 82       	std	Y+3, r1	; 0x03

00004280 <.LM184>:
    4280:	a0 c0       	rjmp	.+320    	; 0x43c2 <.L107>

00004282 <.L116>:
    4282:	8b 81       	ldd	r24, Y+3	; 0x03
    4284:	08 2f       	mov	r16, r24
    4286:	10 e0       	ldi	r17, 0x00	; 0

00004288 <.LM186>:
    4288:	0e 94 84 1b 	call	0x3708	; 0x3708 <KEYPAD_getPressedKey>
    428c:	28 2f       	mov	r18, r24

0000428e <.LM187>:
    428e:	ce 01       	movw	r24, r28
    4290:	43 96       	adiw	r24, 0x13	; 19
    4292:	80 0f       	add	r24, r16
    4294:	91 1f       	adc	r25, r17
    4296:	dc 01       	movw	r26, r24
    4298:	2c 93       	st	X, r18
    429a:	80 e0       	ldi	r24, 0x00	; 0
    429c:	90 e0       	ldi	r25, 0x00	; 0
    429e:	aa ef       	ldi	r26, 0xFA	; 250
    42a0:	b3 e4       	ldi	r27, 0x43	; 67
    42a2:	8d 83       	std	Y+5, r24	; 0x05
    42a4:	9e 83       	std	Y+6, r25	; 0x06
    42a6:	af 83       	std	Y+7, r26	; 0x07
    42a8:	b8 87       	std	Y+8, r27	; 0x08

000042aa <.LM188>:
    42aa:	20 e0       	ldi	r18, 0x00	; 0
    42ac:	30 e0       	ldi	r19, 0x00	; 0
    42ae:	4a e7       	ldi	r20, 0x7A	; 122
    42b0:	55 e4       	ldi	r21, 0x45	; 69
    42b2:	6d 81       	ldd	r22, Y+5	; 0x05
    42b4:	7e 81       	ldd	r23, Y+6	; 0x06
    42b6:	8f 81       	ldd	r24, Y+7	; 0x07
    42b8:	98 85       	ldd	r25, Y+8	; 0x08
    42ba:	0e 94 da 26 	call	0x4db4	; 0x4db4 <__mulsf3>
    42be:	6b 8f       	std	Y+27, r22	; 0x1b
    42c0:	7c 8f       	std	Y+28, r23	; 0x1c
    42c2:	8d 8f       	std	Y+29, r24	; 0x1d
    42c4:	9e 8f       	std	Y+30, r25	; 0x1e
    42c6:	8b 8d       	ldd	r24, Y+27	; 0x1b
    42c8:	9c 8d       	ldd	r25, Y+28	; 0x1c
    42ca:	ad 8d       	ldd	r26, Y+29	; 0x1d
    42cc:	be 8d       	ldd	r27, Y+30	; 0x1e
    42ce:	89 87       	std	Y+9, r24	; 0x09
    42d0:	9a 87       	std	Y+10, r25	; 0x0a
    42d2:	ab 87       	std	Y+11, r26	; 0x0b
    42d4:	bc 87       	std	Y+12, r27	; 0x0c

000042d6 <.LM189>:
    42d6:	20 e0       	ldi	r18, 0x00	; 0
    42d8:	30 e0       	ldi	r19, 0x00	; 0
    42da:	40 e8       	ldi	r20, 0x80	; 128
    42dc:	5f e3       	ldi	r21, 0x3F	; 63
    42de:	69 85       	ldd	r22, Y+9	; 0x09
    42e0:	7a 85       	ldd	r23, Y+10	; 0x0a
    42e2:	8b 85       	ldd	r24, Y+11	; 0x0b
    42e4:	9c 85       	ldd	r25, Y+12	; 0x0c
    42e6:	0e 94 ba 25 	call	0x4b74	; 0x4b74 <__cmpsf2>
    42ea:	88 23       	and	r24, r24
    42ec:	2c f4       	brge	.+10     	; 0x42f8 <.L127>

000042ee <.LM190>:
    42ee:	81 e0       	ldi	r24, 0x01	; 1
    42f0:	90 e0       	ldi	r25, 0x00	; 0
    42f2:	9e 87       	std	Y+14, r25	; 0x0e
    42f4:	8d 87       	std	Y+13, r24	; 0x0d
    42f6:	54 c0       	rjmp	.+168    	; 0x43a0 <.L110>

000042f8 <.L127>:
    42f8:	20 e0       	ldi	r18, 0x00	; 0
    42fa:	3f ef       	ldi	r19, 0xFF	; 255
    42fc:	4f e7       	ldi	r20, 0x7F	; 127
    42fe:	57 e4       	ldi	r21, 0x47	; 71
    4300:	69 85       	ldd	r22, Y+9	; 0x09
    4302:	7a 85       	ldd	r23, Y+10	; 0x0a
    4304:	8b 85       	ldd	r24, Y+11	; 0x0b
    4306:	9c 85       	ldd	r25, Y+12	; 0x0c
    4308:	0e 94 d5 26 	call	0x4daa	; 0x4daa <__gesf2>
    430c:	18 16       	cp	r1, r24
    430e:	d4 f5       	brge	.+116    	; 0x4384 <.L128>

00004310 <.LM192>:
    4310:	20 e0       	ldi	r18, 0x00	; 0
    4312:	30 e0       	ldi	r19, 0x00	; 0
    4314:	40 e2       	ldi	r20, 0x20	; 32
    4316:	51 e4       	ldi	r21, 0x41	; 65
    4318:	6d 81       	ldd	r22, Y+5	; 0x05
    431a:	7e 81       	ldd	r23, Y+6	; 0x06
    431c:	8f 81       	ldd	r24, Y+7	; 0x07
    431e:	98 85       	ldd	r25, Y+8	; 0x08
    4320:	0e 94 da 26 	call	0x4db4	; 0x4db4 <__mulsf3>
    4324:	6f 8f       	std	Y+31, r22	; 0x1f
    4326:	78 a3       	std	Y+32, r23	; 0x20
    4328:	89 a3       	std	Y+33, r24	; 0x21
    432a:	9a a3       	std	Y+34, r25	; 0x22
    432c:	8f 8d       	ldd	r24, Y+31	; 0x1f
    432e:	98 a1       	ldd	r25, Y+32	; 0x20
    4330:	a9 a1       	ldd	r26, Y+33	; 0x21
    4332:	ba a1       	ldd	r27, Y+34	; 0x22
    4334:	8f 8b       	std	Y+23, r24	; 0x17
    4336:	98 8f       	std	Y+24, r25	; 0x18
    4338:	a9 8f       	std	Y+25, r26	; 0x19
    433a:	ba 8f       	std	Y+26, r27	; 0x1a

0000433c <.LM193>:
    433c:	6f 89       	ldd	r22, Y+23	; 0x17
    433e:	78 8d       	ldd	r23, Y+24	; 0x18
    4340:	89 8d       	ldd	r24, Y+25	; 0x19
    4342:	9a 8d       	ldd	r25, Y+26	; 0x1a
    4344:	0e 94 31 26 	call	0x4c62	; 0x4c62 <__fixunssfsi>
    4348:	6b a3       	std	Y+35, r22	; 0x23
    434a:	7c a3       	std	Y+36, r23	; 0x24
    434c:	8d a3       	std	Y+37, r24	; 0x25
    434e:	9e a3       	std	Y+38, r25	; 0x26
    4350:	ab a1       	ldd	r26, Y+35	; 0x23
    4352:	bc a1       	ldd	r27, Y+36	; 0x24
    4354:	be 87       	std	Y+14, r27	; 0x0e
    4356:	ad 87       	std	Y+13, r26	; 0x0d

00004358 <.LM194>:
    4358:	10 c0       	rjmp	.+32     	; 0x437a <.L113>

0000435a <.L114>:
    435a:	80 e9       	ldi	r24, 0x90	; 144
    435c:	91 e0       	ldi	r25, 0x01	; 1
    435e:	98 8b       	std	Y+16, r25	; 0x10
    4360:	8f 87       	std	Y+15, r24	; 0x0f

00004362 <.LM195>:
    4362:	8f 85       	ldd	r24, Y+15	; 0x0f
    4364:	98 89       	ldd	r25, Y+16	; 0x10

00004366 <.L1^B15>:
    4366:	01 97       	sbiw	r24, 0x01	; 1
    4368:	f1 f7       	brne	.-4      	; 0x4366 <.L1^B15>
    436a:	98 8b       	std	Y+16, r25	; 0x10
    436c:	8f 87       	std	Y+15, r24	; 0x0f

0000436e <.LM196>:
	...

00004370 <.LM197>:
    4370:	8d 85       	ldd	r24, Y+13	; 0x0d
    4372:	9e 85       	ldd	r25, Y+14	; 0x0e
    4374:	01 97       	sbiw	r24, 0x01	; 1
    4376:	9e 87       	std	Y+14, r25	; 0x0e
    4378:	8d 87       	std	Y+13, r24	; 0x0d

0000437a <.L113>:
    437a:	8d 85       	ldd	r24, Y+13	; 0x0d
    437c:	9e 85       	ldd	r25, Y+14	; 0x0e
    437e:	89 2b       	or	r24, r25
    4380:	61 f7       	brne	.-40     	; 0x435a <.L114>

00004382 <.LM199>:
    4382:	19 c0       	rjmp	.+50     	; 0x43b6 <.L115>

00004384 <.L128>:
    4384:	69 85       	ldd	r22, Y+9	; 0x09
    4386:	7a 85       	ldd	r23, Y+10	; 0x0a
    4388:	8b 85       	ldd	r24, Y+11	; 0x0b
    438a:	9c 85       	ldd	r25, Y+12	; 0x0c
    438c:	0e 94 31 26 	call	0x4c62	; 0x4c62 <__fixunssfsi>
    4390:	6f a3       	std	Y+39, r22	; 0x27
    4392:	78 a7       	std	Y+40, r23	; 0x28
    4394:	89 a7       	std	Y+41, r24	; 0x29
    4396:	9a a7       	std	Y+42, r25	; 0x2a
    4398:	ef a1       	ldd	r30, Y+39	; 0x27
    439a:	f8 a5       	ldd	r31, Y+40	; 0x28
    439c:	fe 87       	std	Y+14, r31	; 0x0e
    439e:	ed 87       	std	Y+13, r30	; 0x0d

000043a0 <.L110>:
    43a0:	8d 85       	ldd	r24, Y+13	; 0x0d
    43a2:	9e 85       	ldd	r25, Y+14	; 0x0e
    43a4:	9a 8b       	std	Y+18, r25	; 0x12
    43a6:	89 8b       	std	Y+17, r24	; 0x11

000043a8 <.LM201>:
    43a8:	89 89       	ldd	r24, Y+17	; 0x11
    43aa:	9a 89       	ldd	r25, Y+18	; 0x12

000043ac <.L1^B16>:
    43ac:	01 97       	sbiw	r24, 0x01	; 1
    43ae:	f1 f7       	brne	.-4      	; 0x43ac <.L1^B16>
    43b0:	9a 8b       	std	Y+18, r25	; 0x12
    43b2:	89 8b       	std	Y+17, r24	; 0x11

000043b4 <.LM202>:
	...

000043b6 <.L115>:
    43b6:	8a e2       	ldi	r24, 0x2A	; 42
    43b8:	0e 94 f5 10 	call	0x21ea	; 0x21ea <LCD_displayCharacter>

000043bc <.LM204>:
    43bc:	8b 81       	ldd	r24, Y+3	; 0x03
    43be:	8f 5f       	subi	r24, 0xFF	; 255
    43c0:	8b 83       	std	Y+3, r24	; 0x03

000043c2 <.L107>:
    43c2:	8b 81       	ldd	r24, Y+3	; 0x03
    43c4:	84 30       	cpi	r24, 0x04	; 4
    43c6:	08 f4       	brcc	.+2      	; 0x43ca <.LBE137>

000043c8 <L0^A>:
    43c8:	5c cf       	rjmp	.-328    	; 0x4282 <.L116>

000043ca <.LBE137>:
    43ca:	19 82       	std	Y+1, r1	; 0x01

000043cc <.LBB144>:
    43cc:	1c 82       	std	Y+4, r1	; 0x04

000043ce <.LM208>:
    43ce:	20 c0       	rjmp	.+64     	; 0x4410 <.L117>

000043d0 <.L120>:
    43d0:	8c 81       	ldd	r24, Y+4	; 0x04
    43d2:	88 2f       	mov	r24, r24
    43d4:	90 e0       	ldi	r25, 0x00	; 0
    43d6:	9e 01       	movw	r18, r28
    43d8:	2d 5e       	subi	r18, 0xED	; 237
    43da:	3f 4f       	sbci	r19, 0xFF	; 255
    43dc:	82 0f       	add	r24, r18
    43de:	93 1f       	adc	r25, r19
    43e0:	dc 01       	movw	r26, r24
    43e2:	2c 91       	ld	r18, X

000043e4 <.LM210>:
    43e4:	8c 81       	ldd	r24, Y+4	; 0x04
    43e6:	88 2f       	mov	r24, r24
    43e8:	90 e0       	ldi	r25, 0x00	; 0
    43ea:	80 5a       	subi	r24, 0xA0	; 160
    43ec:	9f 4f       	sbci	r25, 0xFF	; 255
    43ee:	fc 01       	movw	r30, r24
    43f0:	80 81       	ld	r24, Z

000043f2 <.LM211>:
    43f2:	28 17       	cp	r18, r24
    43f4:	51 f0       	breq	.+20     	; 0x440a <.L118>

000043f6 <.LM212>:
    43f6:	93 e0       	ldi	r25, 0x03	; 3
    43f8:	8a 81       	ldd	r24, Y+2	; 0x02
    43fa:	f9 2f       	mov	r31, r25
    43fc:	f8 1b       	sub	r31, r24
    43fe:	8f 2f       	mov	r24, r31
    4400:	0e 94 f7 24 	call	0x49ee	; 0x49ee <APP_WrongPasswordScreen>

00004404 <.LM213>:
    4404:	81 e0       	ldi	r24, 0x01	; 1
    4406:	89 83       	std	Y+1, r24	; 0x01

00004408 <.LM214>:
    4408:	06 c0       	rjmp	.+12     	; 0x4416 <.L119>

0000440a <.L118>:
    440a:	8c 81       	ldd	r24, Y+4	; 0x04
    440c:	8f 5f       	subi	r24, 0xFF	; 255
    440e:	8c 83       	std	Y+4, r24	; 0x04

00004410 <.L117>:
    4410:	8c 81       	ldd	r24, Y+4	; 0x04
    4412:	84 30       	cpi	r24, 0x04	; 4
    4414:	e8 f2       	brcs	.-70     	; 0x43d0 <.L120>

00004416 <.L119>:
    4416:	8a 81       	ldd	r24, Y+2	; 0x02
    4418:	8f 5f       	subi	r24, 0xFF	; 255
    441a:	8a 83       	std	Y+2, r24	; 0x02

0000441c <.L106>:
    441c:	8a 81       	ldd	r24, Y+2	; 0x02
    441e:	83 30       	cpi	r24, 0x03	; 3
    4420:	20 f4       	brcc	.+8      	; 0x442a <.L121>

00004422 <.LM219>:
    4422:	89 81       	ldd	r24, Y+1	; 0x01
    4424:	81 30       	cpi	r24, 0x01	; 1
    4426:	09 f4       	brne	.+2      	; 0x442a <.L121>

00004428 <L0^A>:
    4428:	20 cf       	rjmp	.-448    	; 0x426a <.L122>

0000442a <.L121>:
    442a:	89 81       	ldd	r24, Y+1	; 0x01
    442c:	88 23       	and	r24, r24
    442e:	29 f4       	brne	.+10     	; 0x443a <.L123>

00004430 <.LM221>:
    4430:	0e 94 2d 22 	call	0x445a	; 0x445a <APP_ChangePassword>

00004434 <.LM222>:
    4434:	0e 94 a4 1c 	call	0x3948	; 0x3948 <APP_Selector>

00004438 <.LM223>:
    4438:	04 c0       	rjmp	.+8      	; 0x4442 <.L129>

0000443a <.L123>:
    443a:	0e 94 99 23 	call	0x4732	; 0x4732 <APP_ThiefAlert>

0000443e <.LM225>:
    443e:	0e 94 fa 1b 	call	0x37f4	; 0x37f4 <APP_WelcomeScreen>

00004442 <.L129>:
    4442:	00 00       	nop
    4444:	aa 96       	adiw	r28, 0x2a	; 42
    4446:	0f b6       	in	r0, 0x3f	; 63
    4448:	f8 94       	cli
    444a:	de bf       	out	0x3e, r29	; 62
    444c:	0f be       	out	0x3f, r0	; 63
    444e:	cd bf       	out	0x3d, r28	; 61
    4450:	df 91       	pop	r29
    4452:	cf 91       	pop	r28
    4454:	1f 91       	pop	r17
    4456:	0f 91       	pop	r16
    4458:	08 95       	ret

0000445a <APP_ChangePassword>:
    445a:	0f 93       	push	r16
    445c:	1f 93       	push	r17
    445e:	cf 93       	push	r28
    4460:	df 93       	push	r29
    4462:	cd b7       	in	r28, 0x3d	; 61
    4464:	de b7       	in	r29, 0x3e	; 62
    4466:	c5 54       	subi	r28, 0x45	; 69
    4468:	d1 09       	sbc	r29, r1
    446a:	0f b6       	in	r0, 0x3f	; 63
    446c:	f8 94       	cli
    446e:	de bf       	out	0x3e, r29	; 62
    4470:	0f be       	out	0x3f, r0	; 63
    4472:	cd bf       	out	0x3d, r28	; 61

00004474 <.LM228>:
    4474:	0e 94 79 1b 	call	0x36f2	; 0x36f2 <LCD_clearScreen>

00004478 <.LM229>:
    4478:	84 ed       	ldi	r24, 0xD4	; 212
    447a:	90 e0       	ldi	r25, 0x00	; 0
    447c:	0e 94 da 1a 	call	0x35b4	; 0x35b4 <LCD_displayString>

00004480 <.LM230>:
    4480:	60 e0       	ldi	r22, 0x00	; 0
    4482:	81 e0       	ldi	r24, 0x01	; 1
    4484:	0e 94 29 1b 	call	0x3652	; 0x3652 <LCD_moveCursor>

00004488 <.LBB145>:
    4488:	19 82       	std	Y+1, r1	; 0x01

0000448a <.LM232>:
    448a:	9f c0       	rjmp	.+318    	; 0x45ca <.L131>

0000448c <.L140>:
    448c:	89 81       	ldd	r24, Y+1	; 0x01
    448e:	08 2f       	mov	r16, r24
    4490:	10 e0       	ldi	r17, 0x00	; 0

00004492 <.LM234>:
    4492:	0e 94 84 1b 	call	0x3708	; 0x3708 <KEYPAD_getPressedKey>
    4496:	28 2f       	mov	r18, r24

00004498 <.LM235>:
    4498:	c8 01       	movw	r24, r16
    449a:	80 5a       	subi	r24, 0xA0	; 160
    449c:	9f 4f       	sbci	r25, 0xFF	; 255
    449e:	dc 01       	movw	r26, r24
    44a0:	2c 93       	st	X, r18
    44a2:	80 e0       	ldi	r24, 0x00	; 0
    44a4:	90 e0       	ldi	r25, 0x00	; 0
    44a6:	aa ef       	ldi	r26, 0xFA	; 250
    44a8:	b3 e4       	ldi	r27, 0x43	; 67
    44aa:	8a 83       	std	Y+2, r24	; 0x02
    44ac:	9b 83       	std	Y+3, r25	; 0x03
    44ae:	ac 83       	std	Y+4, r26	; 0x04
    44b0:	bd 83       	std	Y+5, r27	; 0x05

000044b2 <.LM236>:
    44b2:	20 e0       	ldi	r18, 0x00	; 0
    44b4:	30 e0       	ldi	r19, 0x00	; 0
    44b6:	4a e7       	ldi	r20, 0x7A	; 122
    44b8:	55 e4       	ldi	r21, 0x45	; 69
    44ba:	6a 81       	ldd	r22, Y+2	; 0x02
    44bc:	7b 81       	ldd	r23, Y+3	; 0x03
    44be:	8c 81       	ldd	r24, Y+4	; 0x04
    44c0:	9d 81       	ldd	r25, Y+5	; 0x05
    44c2:	0e 94 da 26 	call	0x4db4	; 0x4db4 <__mulsf3>
    44c6:	6e a3       	std	Y+38, r22	; 0x26
    44c8:	7f a3       	std	Y+39, r23	; 0x27
    44ca:	88 a7       	std	Y+40, r24	; 0x28
    44cc:	99 a7       	std	Y+41, r25	; 0x29
    44ce:	8e a1       	ldd	r24, Y+38	; 0x26
    44d0:	9f a1       	ldd	r25, Y+39	; 0x27
    44d2:	a8 a5       	ldd	r26, Y+40	; 0x28
    44d4:	b9 a5       	ldd	r27, Y+41	; 0x29
    44d6:	8e 83       	std	Y+6, r24	; 0x06
    44d8:	9f 83       	std	Y+7, r25	; 0x07
    44da:	a8 87       	std	Y+8, r26	; 0x08
    44dc:	b9 87       	std	Y+9, r27	; 0x09

000044de <.LM237>:
    44de:	20 e0       	ldi	r18, 0x00	; 0
    44e0:	30 e0       	ldi	r19, 0x00	; 0
    44e2:	40 e8       	ldi	r20, 0x80	; 128
    44e4:	5f e3       	ldi	r21, 0x3F	; 63
    44e6:	6e 81       	ldd	r22, Y+6	; 0x06
    44e8:	7f 81       	ldd	r23, Y+7	; 0x07
    44ea:	88 85       	ldd	r24, Y+8	; 0x08
    44ec:	99 85       	ldd	r25, Y+9	; 0x09
    44ee:	0e 94 ba 25 	call	0x4b74	; 0x4b74 <__cmpsf2>
    44f2:	88 23       	and	r24, r24
    44f4:	2c f4       	brge	.+10     	; 0x4500 <.L153>

000044f6 <.LM238>:
    44f6:	81 e0       	ldi	r24, 0x01	; 1
    44f8:	90 e0       	ldi	r25, 0x00	; 0
    44fa:	9b 87       	std	Y+11, r25	; 0x0b
    44fc:	8a 87       	std	Y+10, r24	; 0x0a
    44fe:	54 c0       	rjmp	.+168    	; 0x45a8 <.L134>

00004500 <.L153>:
    4500:	20 e0       	ldi	r18, 0x00	; 0
    4502:	3f ef       	ldi	r19, 0xFF	; 255
    4504:	4f e7       	ldi	r20, 0x7F	; 127
    4506:	57 e4       	ldi	r21, 0x47	; 71
    4508:	6e 81       	ldd	r22, Y+6	; 0x06
    450a:	7f 81       	ldd	r23, Y+7	; 0x07
    450c:	88 85       	ldd	r24, Y+8	; 0x08
    450e:	99 85       	ldd	r25, Y+9	; 0x09
    4510:	0e 94 d5 26 	call	0x4daa	; 0x4daa <__gesf2>
    4514:	18 16       	cp	r1, r24
    4516:	d4 f5       	brge	.+116    	; 0x458c <.L154>

00004518 <.LM240>:
    4518:	20 e0       	ldi	r18, 0x00	; 0
    451a:	30 e0       	ldi	r19, 0x00	; 0
    451c:	40 e2       	ldi	r20, 0x20	; 32
    451e:	51 e4       	ldi	r21, 0x41	; 65
    4520:	6a 81       	ldd	r22, Y+2	; 0x02
    4522:	7b 81       	ldd	r23, Y+3	; 0x03
    4524:	8c 81       	ldd	r24, Y+4	; 0x04
    4526:	9d 81       	ldd	r25, Y+5	; 0x05
    4528:	0e 94 da 26 	call	0x4db4	; 0x4db4 <__mulsf3>
    452c:	6a a7       	std	Y+42, r22	; 0x2a
    452e:	7b a7       	std	Y+43, r23	; 0x2b
    4530:	8c a7       	std	Y+44, r24	; 0x2c
    4532:	9d a7       	std	Y+45, r25	; 0x2d
    4534:	8a a5       	ldd	r24, Y+42	; 0x2a
    4536:	9b a5       	ldd	r25, Y+43	; 0x2b
    4538:	ac a5       	ldd	r26, Y+44	; 0x2c
    453a:	bd a5       	ldd	r27, Y+45	; 0x2d
    453c:	8e 8f       	std	Y+30, r24	; 0x1e
    453e:	9f 8f       	std	Y+31, r25	; 0x1f
    4540:	a8 a3       	std	Y+32, r26	; 0x20
    4542:	b9 a3       	std	Y+33, r27	; 0x21

00004544 <.LM241>:
    4544:	6e 8d       	ldd	r22, Y+30	; 0x1e
    4546:	7f 8d       	ldd	r23, Y+31	; 0x1f
    4548:	88 a1       	ldd	r24, Y+32	; 0x20
    454a:	99 a1       	ldd	r25, Y+33	; 0x21
    454c:	0e 94 31 26 	call	0x4c62	; 0x4c62 <__fixunssfsi>
    4550:	6e a7       	std	Y+46, r22	; 0x2e
    4552:	7f a7       	std	Y+47, r23	; 0x2f
    4554:	88 ab       	std	Y+48, r24	; 0x30
    4556:	99 ab       	std	Y+49, r25	; 0x31
    4558:	ae a5       	ldd	r26, Y+46	; 0x2e
    455a:	bf a5       	ldd	r27, Y+47	; 0x2f
    455c:	bb 87       	std	Y+11, r27	; 0x0b
    455e:	aa 87       	std	Y+10, r26	; 0x0a

00004560 <.LM242>:
    4560:	10 c0       	rjmp	.+32     	; 0x4582 <.L137>

00004562 <.L138>:
    4562:	80 e9       	ldi	r24, 0x90	; 144
    4564:	91 e0       	ldi	r25, 0x01	; 1
    4566:	9d 87       	std	Y+13, r25	; 0x0d
    4568:	8c 87       	std	Y+12, r24	; 0x0c

0000456a <.LM243>:
    456a:	8c 85       	ldd	r24, Y+12	; 0x0c
    456c:	9d 85       	ldd	r25, Y+13	; 0x0d

0000456e <.L1^B17>:
    456e:	01 97       	sbiw	r24, 0x01	; 1
    4570:	f1 f7       	brne	.-4      	; 0x456e <.L1^B17>
    4572:	9d 87       	std	Y+13, r25	; 0x0d
    4574:	8c 87       	std	Y+12, r24	; 0x0c

00004576 <.LM244>:
	...

00004578 <.LM245>:
    4578:	8a 85       	ldd	r24, Y+10	; 0x0a
    457a:	9b 85       	ldd	r25, Y+11	; 0x0b
    457c:	01 97       	sbiw	r24, 0x01	; 1
    457e:	9b 87       	std	Y+11, r25	; 0x0b
    4580:	8a 87       	std	Y+10, r24	; 0x0a

00004582 <.L137>:
    4582:	8a 85       	ldd	r24, Y+10	; 0x0a
    4584:	9b 85       	ldd	r25, Y+11	; 0x0b
    4586:	89 2b       	or	r24, r25
    4588:	61 f7       	brne	.-40     	; 0x4562 <.L138>

0000458a <.LM247>:
    458a:	19 c0       	rjmp	.+50     	; 0x45be <.L139>

0000458c <.L154>:
    458c:	6e 81       	ldd	r22, Y+6	; 0x06
    458e:	7f 81       	ldd	r23, Y+7	; 0x07
    4590:	88 85       	ldd	r24, Y+8	; 0x08
    4592:	99 85       	ldd	r25, Y+9	; 0x09
    4594:	0e 94 31 26 	call	0x4c62	; 0x4c62 <__fixunssfsi>
    4598:	6a ab       	std	Y+50, r22	; 0x32
    459a:	7b ab       	std	Y+51, r23	; 0x33
    459c:	8c ab       	std	Y+52, r24	; 0x34
    459e:	9d ab       	std	Y+53, r25	; 0x35
    45a0:	ea a9       	ldd	r30, Y+50	; 0x32
    45a2:	fb a9       	ldd	r31, Y+51	; 0x33
    45a4:	fb 87       	std	Y+11, r31	; 0x0b
    45a6:	ea 87       	std	Y+10, r30	; 0x0a

000045a8 <.L134>:
    45a8:	8a 85       	ldd	r24, Y+10	; 0x0a
    45aa:	9b 85       	ldd	r25, Y+11	; 0x0b
    45ac:	9f 87       	std	Y+15, r25	; 0x0f
    45ae:	8e 87       	std	Y+14, r24	; 0x0e

000045b0 <.LM249>:
    45b0:	8e 85       	ldd	r24, Y+14	; 0x0e
    45b2:	9f 85       	ldd	r25, Y+15	; 0x0f

000045b4 <.L1^B18>:
    45b4:	01 97       	sbiw	r24, 0x01	; 1
    45b6:	f1 f7       	brne	.-4      	; 0x45b4 <.L1^B18>
    45b8:	9f 87       	std	Y+15, r25	; 0x0f
    45ba:	8e 87       	std	Y+14, r24	; 0x0e

000045bc <.LM250>:
	...

000045be <.L139>:
    45be:	8a e2       	ldi	r24, 0x2A	; 42
    45c0:	0e 94 f5 10 	call	0x21ea	; 0x21ea <LCD_displayCharacter>

000045c4 <.LM252>:
    45c4:	89 81       	ldd	r24, Y+1	; 0x01
    45c6:	8f 5f       	subi	r24, 0xFF	; 255
    45c8:	89 83       	std	Y+1, r24	; 0x01

000045ca <.L131>:
    45ca:	89 81       	ldd	r24, Y+1	; 0x01
    45cc:	84 30       	cpi	r24, 0x04	; 4
    45ce:	08 f4       	brcc	.+2      	; 0x45d2 <.LBE145>

000045d0 <L0^A>:
    45d0:	5d cf       	rjmp	.-326    	; 0x448c <.L140>

000045d2 <.LBE145>:
    45d2:	0e 94 79 1b 	call	0x36f2	; 0x36f2 <LCD_clearScreen>

000045d6 <.LM255>:
    45d6:	84 ee       	ldi	r24, 0xE4	; 228
    45d8:	90 e0       	ldi	r25, 0x00	; 0
    45da:	0e 94 da 1a 	call	0x35b4	; 0x35b4 <LCD_displayString>

000045de <.LM256>:
    45de:	60 e0       	ldi	r22, 0x00	; 0
    45e0:	81 e0       	ldi	r24, 0x01	; 1
    45e2:	0e 94 29 1b 	call	0x3652	; 0x3652 <LCD_moveCursor>

000045e6 <.LM257>:
    45e6:	85 ef       	ldi	r24, 0xF5	; 245
    45e8:	90 e0       	ldi	r25, 0x00	; 0
    45ea:	0e 94 da 1a 	call	0x35b4	; 0x35b4 <LCD_displayString>
    45ee:	80 e0       	ldi	r24, 0x00	; 0
    45f0:	90 e0       	ldi	r25, 0x00	; 0
    45f2:	aa e7       	ldi	r26, 0x7A	; 122
    45f4:	b4 e4       	ldi	r27, 0x44	; 68
    45f6:	88 8b       	std	Y+16, r24	; 0x10
    45f8:	99 8b       	std	Y+17, r25	; 0x11
    45fa:	aa 8b       	std	Y+18, r26	; 0x12
    45fc:	bb 8b       	std	Y+19, r27	; 0x13

000045fe <.LM258>:
    45fe:	20 e0       	ldi	r18, 0x00	; 0
    4600:	30 e0       	ldi	r19, 0x00	; 0
    4602:	4a e7       	ldi	r20, 0x7A	; 122
    4604:	55 e4       	ldi	r21, 0x45	; 69
    4606:	68 89       	ldd	r22, Y+16	; 0x10
    4608:	79 89       	ldd	r23, Y+17	; 0x11
    460a:	8a 89       	ldd	r24, Y+18	; 0x12
    460c:	9b 89       	ldd	r25, Y+19	; 0x13
    460e:	0e 94 da 26 	call	0x4db4	; 0x4db4 <__mulsf3>
    4612:	6e ab       	std	Y+54, r22	; 0x36
    4614:	7f ab       	std	Y+55, r23	; 0x37
    4616:	88 af       	std	Y+56, r24	; 0x38
    4618:	99 af       	std	Y+57, r25	; 0x39
    461a:	8e a9       	ldd	r24, Y+54	; 0x36
    461c:	9f a9       	ldd	r25, Y+55	; 0x37
    461e:	a8 ad       	ldd	r26, Y+56	; 0x38
    4620:	b9 ad       	ldd	r27, Y+57	; 0x39
    4622:	8c 8b       	std	Y+20, r24	; 0x14
    4624:	9d 8b       	std	Y+21, r25	; 0x15
    4626:	ae 8b       	std	Y+22, r26	; 0x16
    4628:	bf 8b       	std	Y+23, r27	; 0x17

0000462a <.LM259>:
    462a:	20 e0       	ldi	r18, 0x00	; 0
    462c:	30 e0       	ldi	r19, 0x00	; 0
    462e:	40 e8       	ldi	r20, 0x80	; 128
    4630:	5f e3       	ldi	r21, 0x3F	; 63
    4632:	6c 89       	ldd	r22, Y+20	; 0x14
    4634:	7d 89       	ldd	r23, Y+21	; 0x15
    4636:	8e 89       	ldd	r24, Y+22	; 0x16
    4638:	9f 89       	ldd	r25, Y+23	; 0x17
    463a:	0e 94 ba 25 	call	0x4b74	; 0x4b74 <__cmpsf2>
    463e:	88 23       	and	r24, r24
    4640:	2c f4       	brge	.+10     	; 0x464c <.L155>

00004642 <.LM260>:
    4642:	81 e0       	ldi	r24, 0x01	; 1
    4644:	90 e0       	ldi	r25, 0x00	; 0
    4646:	99 8f       	std	Y+25, r25	; 0x19
    4648:	88 8f       	std	Y+24, r24	; 0x18
    464a:	5b c0       	rjmp	.+182    	; 0x4702 <.L143>

0000464c <.L155>:
    464c:	20 e0       	ldi	r18, 0x00	; 0
    464e:	3f ef       	ldi	r19, 0xFF	; 255
    4650:	4f e7       	ldi	r20, 0x7F	; 127
    4652:	57 e4       	ldi	r21, 0x47	; 71
    4654:	6c 89       	ldd	r22, Y+20	; 0x14
    4656:	7d 89       	ldd	r23, Y+21	; 0x15
    4658:	8e 89       	ldd	r24, Y+22	; 0x16
    465a:	9f 89       	ldd	r25, Y+23	; 0x17
    465c:	0e 94 d5 26 	call	0x4daa	; 0x4daa <__gesf2>
    4660:	18 16       	cp	r1, r24
    4662:	0c f0       	brlt	.+2      	; 0x4666 <.LM262>

00004664 <L0^A>:
    4664:	3c c0       	rjmp	.+120    	; 0x46de <.L156>

00004666 <.LM262>:
    4666:	20 e0       	ldi	r18, 0x00	; 0
    4668:	30 e0       	ldi	r19, 0x00	; 0
    466a:	40 e2       	ldi	r20, 0x20	; 32
    466c:	51 e4       	ldi	r21, 0x41	; 65
    466e:	68 89       	ldd	r22, Y+16	; 0x10
    4670:	79 89       	ldd	r23, Y+17	; 0x11
    4672:	8a 89       	ldd	r24, Y+18	; 0x12
    4674:	9b 89       	ldd	r25, Y+19	; 0x13
    4676:	0e 94 da 26 	call	0x4db4	; 0x4db4 <__mulsf3>
    467a:	6a af       	std	Y+58, r22	; 0x3a
    467c:	7b af       	std	Y+59, r23	; 0x3b
    467e:	8c af       	std	Y+60, r24	; 0x3c
    4680:	9d af       	std	Y+61, r25	; 0x3d
    4682:	8a ad       	ldd	r24, Y+58	; 0x3a
    4684:	9b ad       	ldd	r25, Y+59	; 0x3b
    4686:	ac ad       	ldd	r26, Y+60	; 0x3c
    4688:	bd ad       	ldd	r27, Y+61	; 0x3d
    468a:	8a a3       	std	Y+34, r24	; 0x22
    468c:	9b a3       	std	Y+35, r25	; 0x23
    468e:	ac a3       	std	Y+36, r26	; 0x24
    4690:	bd a3       	std	Y+37, r27	; 0x25

00004692 <.LM263>:
    4692:	6a a1       	ldd	r22, Y+34	; 0x22
    4694:	7b a1       	ldd	r23, Y+35	; 0x23
    4696:	8c a1       	ldd	r24, Y+36	; 0x24
    4698:	9d a1       	ldd	r25, Y+37	; 0x25
    469a:	0e 94 31 26 	call	0x4c62	; 0x4c62 <__fixunssfsi>
    469e:	22 96       	adiw	r28, 0x02	; 2
    46a0:	6c af       	std	Y+60, r22	; 0x3c
    46a2:	7d af       	std	Y+61, r23	; 0x3d
    46a4:	8e af       	std	Y+62, r24	; 0x3e
    46a6:	9f af       	std	Y+63, r25	; 0x3f
    46a8:	22 97       	sbiw	r28, 0x02	; 2
    46aa:	ae ad       	ldd	r26, Y+62	; 0x3e
    46ac:	bf ad       	ldd	r27, Y+63	; 0x3f
    46ae:	b9 8f       	std	Y+25, r27	; 0x19
    46b0:	a8 8f       	std	Y+24, r26	; 0x18

000046b2 <.LM264>:
    46b2:	10 c0       	rjmp	.+32     	; 0x46d4 <.L146>

000046b4 <.L147>:
    46b4:	80 e9       	ldi	r24, 0x90	; 144
    46b6:	91 e0       	ldi	r25, 0x01	; 1
    46b8:	9b 8f       	std	Y+27, r25	; 0x1b
    46ba:	8a 8f       	std	Y+26, r24	; 0x1a

000046bc <.LM265>:
    46bc:	8a 8d       	ldd	r24, Y+26	; 0x1a
    46be:	9b 8d       	ldd	r25, Y+27	; 0x1b

000046c0 <.L1^B19>:
    46c0:	01 97       	sbiw	r24, 0x01	; 1
    46c2:	f1 f7       	brne	.-4      	; 0x46c0 <.L1^B19>
    46c4:	9b 8f       	std	Y+27, r25	; 0x1b
    46c6:	8a 8f       	std	Y+26, r24	; 0x1a

000046c8 <.LM266>:
	...

000046ca <.LM267>:
    46ca:	88 8d       	ldd	r24, Y+24	; 0x18
    46cc:	99 8d       	ldd	r25, Y+25	; 0x19
    46ce:	01 97       	sbiw	r24, 0x01	; 1
    46d0:	99 8f       	std	Y+25, r25	; 0x19
    46d2:	88 8f       	std	Y+24, r24	; 0x18

000046d4 <.L146>:
    46d4:	88 8d       	ldd	r24, Y+24	; 0x18
    46d6:	99 8d       	ldd	r25, Y+25	; 0x19
    46d8:	89 2b       	or	r24, r25
    46da:	61 f7       	brne	.-40     	; 0x46b4 <.L147>

000046dc <.LM269>:
    46dc:	1d c0       	rjmp	.+58     	; 0x4718 <.L148>

000046de <.L156>:
    46de:	6c 89       	ldd	r22, Y+20	; 0x14
    46e0:	7d 89       	ldd	r23, Y+21	; 0x15
    46e2:	8e 89       	ldd	r24, Y+22	; 0x16
    46e4:	9f 89       	ldd	r25, Y+23	; 0x17
    46e6:	0e 94 31 26 	call	0x4c62	; 0x4c62 <__fixunssfsi>
    46ea:	26 96       	adiw	r28, 0x06	; 6
    46ec:	6c af       	std	Y+60, r22	; 0x3c
    46ee:	7d af       	std	Y+61, r23	; 0x3d
    46f0:	8e af       	std	Y+62, r24	; 0x3e
    46f2:	9f af       	std	Y+63, r25	; 0x3f
    46f4:	26 97       	sbiw	r28, 0x06	; 6
    46f6:	24 96       	adiw	r28, 0x04	; 4
    46f8:	ee ad       	ldd	r30, Y+62	; 0x3e
    46fa:	ff ad       	ldd	r31, Y+63	; 0x3f
    46fc:	24 97       	sbiw	r28, 0x04	; 4
    46fe:	f9 8f       	std	Y+25, r31	; 0x19
    4700:	e8 8f       	std	Y+24, r30	; 0x18

00004702 <.L143>:
    4702:	88 8d       	ldd	r24, Y+24	; 0x18
    4704:	99 8d       	ldd	r25, Y+25	; 0x19
    4706:	9d 8f       	std	Y+29, r25	; 0x1d
    4708:	8c 8f       	std	Y+28, r24	; 0x1c

0000470a <.LM271>:
    470a:	8c 8d       	ldd	r24, Y+28	; 0x1c
    470c:	9d 8d       	ldd	r25, Y+29	; 0x1d

0000470e <.L1^B20>:
    470e:	01 97       	sbiw	r24, 0x01	; 1
    4710:	f1 f7       	brne	.-4      	; 0x470e <.L1^B20>
    4712:	9d 8f       	std	Y+29, r25	; 0x1d
    4714:	8c 8f       	std	Y+28, r24	; 0x1c

00004716 <.LM272>:
	...

00004718 <.L148>:
    4718:	00 00       	nop
    471a:	cb 5b       	subi	r28, 0xBB	; 187
    471c:	df 4f       	sbci	r29, 0xFF	; 255
    471e:	0f b6       	in	r0, 0x3f	; 63
    4720:	f8 94       	cli
    4722:	de bf       	out	0x3e, r29	; 62
    4724:	0f be       	out	0x3f, r0	; 63
    4726:	cd bf       	out	0x3d, r28	; 61
    4728:	df 91       	pop	r29
    472a:	cf 91       	pop	r28
    472c:	1f 91       	pop	r17
    472e:	0f 91       	pop	r16
    4730:	08 95       	ret

00004732 <APP_ThiefAlert>:
    4732:	cf 93       	push	r28
    4734:	df 93       	push	r29
    4736:	cd b7       	in	r28, 0x3d	; 61
    4738:	de b7       	in	r29, 0x3e	; 62
    473a:	a2 97       	sbiw	r28, 0x22	; 34
    473c:	0f b6       	in	r0, 0x3f	; 63
    473e:	f8 94       	cli
    4740:	de bf       	out	0x3e, r29	; 62
    4742:	0f be       	out	0x3f, r0	; 63
    4744:	cd bf       	out	0x3d, r28	; 61

00004746 <.LM275>:
    4746:	0e 94 79 1b 	call	0x36f2	; 0x36f2 <LCD_clearScreen>

0000474a <.LM276>:
    474a:	84 e0       	ldi	r24, 0x04	; 4
    474c:	91 e0       	ldi	r25, 0x01	; 1
    474e:	0e 94 da 1a 	call	0x35b4	; 0x35b4 <LCD_displayString>

00004752 <.LM277>:
    4752:	0e 94 5e 03 	call	0x6bc	; 0x6bc <RED_LED_on>
    4756:	80 e0       	ldi	r24, 0x00	; 0
    4758:	90 e8       	ldi	r25, 0x80	; 128
    475a:	ab e3       	ldi	r26, 0x3B	; 59
    475c:	b5 e4       	ldi	r27, 0x45	; 69
    475e:	89 83       	std	Y+1, r24	; 0x01
    4760:	9a 83       	std	Y+2, r25	; 0x02
    4762:	ab 83       	std	Y+3, r26	; 0x03
    4764:	bc 83       	std	Y+4, r27	; 0x04

00004766 <.LM278>:
    4766:	20 e0       	ldi	r18, 0x00	; 0
    4768:	30 e0       	ldi	r19, 0x00	; 0
    476a:	4a e7       	ldi	r20, 0x7A	; 122
    476c:	55 e4       	ldi	r21, 0x45	; 69
    476e:	69 81       	ldd	r22, Y+1	; 0x01
    4770:	7a 81       	ldd	r23, Y+2	; 0x02
    4772:	8b 81       	ldd	r24, Y+3	; 0x03
    4774:	9c 81       	ldd	r25, Y+4	; 0x04
    4776:	0e 94 da 26 	call	0x4db4	; 0x4db4 <__mulsf3>
    477a:	6b 8b       	std	Y+19, r22	; 0x13
    477c:	7c 8b       	std	Y+20, r23	; 0x14
    477e:	8d 8b       	std	Y+21, r24	; 0x15
    4780:	9e 8b       	std	Y+22, r25	; 0x16
    4782:	8b 89       	ldd	r24, Y+19	; 0x13
    4784:	9c 89       	ldd	r25, Y+20	; 0x14
    4786:	ad 89       	ldd	r26, Y+21	; 0x15
    4788:	be 89       	ldd	r27, Y+22	; 0x16
    478a:	8d 83       	std	Y+5, r24	; 0x05
    478c:	9e 83       	std	Y+6, r25	; 0x06
    478e:	af 83       	std	Y+7, r26	; 0x07
    4790:	b8 87       	std	Y+8, r27	; 0x08

00004792 <.LM279>:
    4792:	20 e0       	ldi	r18, 0x00	; 0
    4794:	30 e0       	ldi	r19, 0x00	; 0
    4796:	40 e8       	ldi	r20, 0x80	; 128
    4798:	5f e3       	ldi	r21, 0x3F	; 63
    479a:	6d 81       	ldd	r22, Y+5	; 0x05
    479c:	7e 81       	ldd	r23, Y+6	; 0x06
    479e:	8f 81       	ldd	r24, Y+7	; 0x07
    47a0:	98 85       	ldd	r25, Y+8	; 0x08
    47a2:	0e 94 ba 25 	call	0x4b74	; 0x4b74 <__cmpsf2>
    47a6:	88 23       	and	r24, r24
    47a8:	2c f4       	brge	.+10     	; 0x47b4 <.L168>

000047aa <.LM280>:
    47aa:	81 e0       	ldi	r24, 0x01	; 1
    47ac:	90 e0       	ldi	r25, 0x00	; 0
    47ae:	9a 87       	std	Y+10, r25	; 0x0a
    47b0:	89 87       	std	Y+9, r24	; 0x09
    47b2:	54 c0       	rjmp	.+168    	; 0x485c <.L160>

000047b4 <.L168>:
    47b4:	20 e0       	ldi	r18, 0x00	; 0
    47b6:	3f ef       	ldi	r19, 0xFF	; 255
    47b8:	4f e7       	ldi	r20, 0x7F	; 127
    47ba:	57 e4       	ldi	r21, 0x47	; 71
    47bc:	6d 81       	ldd	r22, Y+5	; 0x05
    47be:	7e 81       	ldd	r23, Y+6	; 0x06
    47c0:	8f 81       	ldd	r24, Y+7	; 0x07
    47c2:	98 85       	ldd	r25, Y+8	; 0x08
    47c4:	0e 94 d5 26 	call	0x4daa	; 0x4daa <__gesf2>
    47c8:	18 16       	cp	r1, r24
    47ca:	d4 f5       	brge	.+116    	; 0x4840 <.L169>

000047cc <.LM282>:
    47cc:	20 e0       	ldi	r18, 0x00	; 0
    47ce:	30 e0       	ldi	r19, 0x00	; 0
    47d0:	40 e2       	ldi	r20, 0x20	; 32
    47d2:	51 e4       	ldi	r21, 0x41	; 65
    47d4:	69 81       	ldd	r22, Y+1	; 0x01
    47d6:	7a 81       	ldd	r23, Y+2	; 0x02
    47d8:	8b 81       	ldd	r24, Y+3	; 0x03
    47da:	9c 81       	ldd	r25, Y+4	; 0x04
    47dc:	0e 94 da 26 	call	0x4db4	; 0x4db4 <__mulsf3>
    47e0:	6f 8b       	std	Y+23, r22	; 0x17
    47e2:	78 8f       	std	Y+24, r23	; 0x18
    47e4:	89 8f       	std	Y+25, r24	; 0x19
    47e6:	9a 8f       	std	Y+26, r25	; 0x1a
    47e8:	8f 89       	ldd	r24, Y+23	; 0x17
    47ea:	98 8d       	ldd	r25, Y+24	; 0x18
    47ec:	a9 8d       	ldd	r26, Y+25	; 0x19
    47ee:	ba 8d       	ldd	r27, Y+26	; 0x1a
    47f0:	8f 87       	std	Y+15, r24	; 0x0f
    47f2:	98 8b       	std	Y+16, r25	; 0x10
    47f4:	a9 8b       	std	Y+17, r26	; 0x11
    47f6:	ba 8b       	std	Y+18, r27	; 0x12

000047f8 <.LM283>:
    47f8:	6f 85       	ldd	r22, Y+15	; 0x0f
    47fa:	78 89       	ldd	r23, Y+16	; 0x10
    47fc:	89 89       	ldd	r24, Y+17	; 0x11
    47fe:	9a 89       	ldd	r25, Y+18	; 0x12
    4800:	0e 94 31 26 	call	0x4c62	; 0x4c62 <__fixunssfsi>
    4804:	6b 8f       	std	Y+27, r22	; 0x1b
    4806:	7c 8f       	std	Y+28, r23	; 0x1c
    4808:	8d 8f       	std	Y+29, r24	; 0x1d
    480a:	9e 8f       	std	Y+30, r25	; 0x1e
    480c:	ab 8d       	ldd	r26, Y+27	; 0x1b
    480e:	bc 8d       	ldd	r27, Y+28	; 0x1c
    4810:	ba 87       	std	Y+10, r27	; 0x0a
    4812:	a9 87       	std	Y+9, r26	; 0x09

00004814 <.LM284>:
    4814:	10 c0       	rjmp	.+32     	; 0x4836 <.L163>

00004816 <.L164>:
    4816:	80 e9       	ldi	r24, 0x90	; 144
    4818:	91 e0       	ldi	r25, 0x01	; 1
    481a:	9c 87       	std	Y+12, r25	; 0x0c
    481c:	8b 87       	std	Y+11, r24	; 0x0b

0000481e <.LM285>:
    481e:	8b 85       	ldd	r24, Y+11	; 0x0b
    4820:	9c 85       	ldd	r25, Y+12	; 0x0c

00004822 <.L1^B21>:
    4822:	01 97       	sbiw	r24, 0x01	; 1
    4824:	f1 f7       	brne	.-4      	; 0x4822 <.L1^B21>
    4826:	9c 87       	std	Y+12, r25	; 0x0c
    4828:	8b 87       	std	Y+11, r24	; 0x0b

0000482a <.LM286>:
	...

0000482c <.LM287>:
    482c:	89 85       	ldd	r24, Y+9	; 0x09
    482e:	9a 85       	ldd	r25, Y+10	; 0x0a
    4830:	01 97       	sbiw	r24, 0x01	; 1
    4832:	9a 87       	std	Y+10, r25	; 0x0a
    4834:	89 87       	std	Y+9, r24	; 0x09

00004836 <.L163>:
    4836:	89 85       	ldd	r24, Y+9	; 0x09
    4838:	9a 85       	ldd	r25, Y+10	; 0x0a
    483a:	89 2b       	or	r24, r25
    483c:	61 f7       	brne	.-40     	; 0x4816 <.L164>

0000483e <.LM289>:
    483e:	19 c0       	rjmp	.+50     	; 0x4872 <.L165>

00004840 <.L169>:
    4840:	6d 81       	ldd	r22, Y+5	; 0x05
    4842:	7e 81       	ldd	r23, Y+6	; 0x06
    4844:	8f 81       	ldd	r24, Y+7	; 0x07
    4846:	98 85       	ldd	r25, Y+8	; 0x08
    4848:	0e 94 31 26 	call	0x4c62	; 0x4c62 <__fixunssfsi>
    484c:	6f 8f       	std	Y+31, r22	; 0x1f
    484e:	78 a3       	std	Y+32, r23	; 0x20
    4850:	89 a3       	std	Y+33, r24	; 0x21
    4852:	9a a3       	std	Y+34, r25	; 0x22
    4854:	8f 8d       	ldd	r24, Y+31	; 0x1f
    4856:	98 a1       	ldd	r25, Y+32	; 0x20
    4858:	9a 87       	std	Y+10, r25	; 0x0a
    485a:	89 87       	std	Y+9, r24	; 0x09

0000485c <.L160>:
    485c:	89 85       	ldd	r24, Y+9	; 0x09
    485e:	9a 85       	ldd	r25, Y+10	; 0x0a
    4860:	9e 87       	std	Y+14, r25	; 0x0e
    4862:	8d 87       	std	Y+13, r24	; 0x0d

00004864 <.LM291>:
    4864:	8d 85       	ldd	r24, Y+13	; 0x0d
    4866:	9e 85       	ldd	r25, Y+14	; 0x0e

00004868 <.L1^B22>:
    4868:	01 97       	sbiw	r24, 0x01	; 1
    486a:	f1 f7       	brne	.-4      	; 0x4868 <.L1^B22>
    486c:	9e 87       	std	Y+14, r25	; 0x0e
    486e:	8d 87       	std	Y+13, r24	; 0x0d

00004870 <.LM292>:
	...

00004872 <.L165>:
    4872:	0e 94 6b 03 	call	0x6d6	; 0x6d6 <RED_LED_off>

00004876 <.LM294>:
    4876:	0e 94 a4 1c 	call	0x3948	; 0x3948 <APP_Selector>

0000487a <.LM295>:
    487a:	00 00       	nop
    487c:	a2 96       	adiw	r28, 0x22	; 34
    487e:	0f b6       	in	r0, 0x3f	; 63
    4880:	f8 94       	cli
    4882:	de bf       	out	0x3e, r29	; 62
    4884:	0f be       	out	0x3f, r0	; 63
    4886:	cd bf       	out	0x3d, r28	; 61
    4888:	df 91       	pop	r29
    488a:	cf 91       	pop	r28
    488c:	08 95       	ret

0000488e <APP_TruePasswordScreen>:
    488e:	cf 93       	push	r28
    4890:	df 93       	push	r29
    4892:	cd b7       	in	r28, 0x3d	; 61
    4894:	de b7       	in	r29, 0x3e	; 62
    4896:	a2 97       	sbiw	r28, 0x22	; 34
    4898:	0f b6       	in	r0, 0x3f	; 63
    489a:	f8 94       	cli
    489c:	de bf       	out	0x3e, r29	; 62
    489e:	0f be       	out	0x3f, r0	; 63
    48a0:	cd bf       	out	0x3d, r28	; 61

000048a2 <.LM297>:
    48a2:	0e 94 79 1b 	call	0x36f2	; 0x36f2 <LCD_clearScreen>

000048a6 <.LM298>:
    48a6:	83 e1       	ldi	r24, 0x13	; 19
    48a8:	91 e0       	ldi	r25, 0x01	; 1
    48aa:	0e 94 da 1a 	call	0x35b4	; 0x35b4 <LCD_displayString>

000048ae <.LM299>:
    48ae:	60 e0       	ldi	r22, 0x00	; 0
    48b0:	81 e0       	ldi	r24, 0x01	; 1
    48b2:	0e 94 29 1b 	call	0x3652	; 0x3652 <LCD_moveCursor>

000048b6 <.LM300>:
    48b6:	0e 94 32 03 	call	0x664	; 0x664 <GRN_LED_on>
    48ba:	80 e0       	ldi	r24, 0x00	; 0
    48bc:	90 e8       	ldi	r25, 0x80	; 128
    48be:	ab e3       	ldi	r26, 0x3B	; 59
    48c0:	b5 e4       	ldi	r27, 0x45	; 69
    48c2:	89 83       	std	Y+1, r24	; 0x01
    48c4:	9a 83       	std	Y+2, r25	; 0x02
    48c6:	ab 83       	std	Y+3, r26	; 0x03
    48c8:	bc 83       	std	Y+4, r27	; 0x04

000048ca <.LM301>:
    48ca:	20 e0       	ldi	r18, 0x00	; 0
    48cc:	30 e0       	ldi	r19, 0x00	; 0
    48ce:	4a e7       	ldi	r20, 0x7A	; 122
    48d0:	55 e4       	ldi	r21, 0x45	; 69
    48d2:	69 81       	ldd	r22, Y+1	; 0x01
    48d4:	7a 81       	ldd	r23, Y+2	; 0x02
    48d6:	8b 81       	ldd	r24, Y+3	; 0x03
    48d8:	9c 81       	ldd	r25, Y+4	; 0x04
    48da:	0e 94 da 26 	call	0x4db4	; 0x4db4 <__mulsf3>
    48de:	6b 8b       	std	Y+19, r22	; 0x13
    48e0:	7c 8b       	std	Y+20, r23	; 0x14
    48e2:	8d 8b       	std	Y+21, r24	; 0x15
    48e4:	9e 8b       	std	Y+22, r25	; 0x16
    48e6:	8b 89       	ldd	r24, Y+19	; 0x13
    48e8:	9c 89       	ldd	r25, Y+20	; 0x14
    48ea:	ad 89       	ldd	r26, Y+21	; 0x15
    48ec:	be 89       	ldd	r27, Y+22	; 0x16
    48ee:	8d 83       	std	Y+5, r24	; 0x05
    48f0:	9e 83       	std	Y+6, r25	; 0x06
    48f2:	af 83       	std	Y+7, r26	; 0x07
    48f4:	b8 87       	std	Y+8, r27	; 0x08

000048f6 <.LM302>:
    48f6:	20 e0       	ldi	r18, 0x00	; 0
    48f8:	30 e0       	ldi	r19, 0x00	; 0
    48fa:	40 e8       	ldi	r20, 0x80	; 128
    48fc:	5f e3       	ldi	r21, 0x3F	; 63
    48fe:	6d 81       	ldd	r22, Y+5	; 0x05
    4900:	7e 81       	ldd	r23, Y+6	; 0x06
    4902:	8f 81       	ldd	r24, Y+7	; 0x07
    4904:	98 85       	ldd	r25, Y+8	; 0x08
    4906:	0e 94 ba 25 	call	0x4b74	; 0x4b74 <__cmpsf2>
    490a:	88 23       	and	r24, r24
    490c:	2c f4       	brge	.+10     	; 0x4918 <.L181>

0000490e <.LM303>:
    490e:	81 e0       	ldi	r24, 0x01	; 1
    4910:	90 e0       	ldi	r25, 0x00	; 0
    4912:	9a 87       	std	Y+10, r25	; 0x0a
    4914:	89 87       	std	Y+9, r24	; 0x09
    4916:	54 c0       	rjmp	.+168    	; 0x49c0 <.L173>

00004918 <.L181>:
    4918:	20 e0       	ldi	r18, 0x00	; 0
    491a:	3f ef       	ldi	r19, 0xFF	; 255
    491c:	4f e7       	ldi	r20, 0x7F	; 127
    491e:	57 e4       	ldi	r21, 0x47	; 71
    4920:	6d 81       	ldd	r22, Y+5	; 0x05
    4922:	7e 81       	ldd	r23, Y+6	; 0x06
    4924:	8f 81       	ldd	r24, Y+7	; 0x07
    4926:	98 85       	ldd	r25, Y+8	; 0x08
    4928:	0e 94 d5 26 	call	0x4daa	; 0x4daa <__gesf2>
    492c:	18 16       	cp	r1, r24
    492e:	d4 f5       	brge	.+116    	; 0x49a4 <.L182>

00004930 <.LM305>:
    4930:	20 e0       	ldi	r18, 0x00	; 0
    4932:	30 e0       	ldi	r19, 0x00	; 0
    4934:	40 e2       	ldi	r20, 0x20	; 32
    4936:	51 e4       	ldi	r21, 0x41	; 65
    4938:	69 81       	ldd	r22, Y+1	; 0x01
    493a:	7a 81       	ldd	r23, Y+2	; 0x02
    493c:	8b 81       	ldd	r24, Y+3	; 0x03
    493e:	9c 81       	ldd	r25, Y+4	; 0x04
    4940:	0e 94 da 26 	call	0x4db4	; 0x4db4 <__mulsf3>
    4944:	6f 8b       	std	Y+23, r22	; 0x17
    4946:	78 8f       	std	Y+24, r23	; 0x18
    4948:	89 8f       	std	Y+25, r24	; 0x19
    494a:	9a 8f       	std	Y+26, r25	; 0x1a
    494c:	8f 89       	ldd	r24, Y+23	; 0x17
    494e:	98 8d       	ldd	r25, Y+24	; 0x18
    4950:	a9 8d       	ldd	r26, Y+25	; 0x19
    4952:	ba 8d       	ldd	r27, Y+26	; 0x1a
    4954:	8f 87       	std	Y+15, r24	; 0x0f
    4956:	98 8b       	std	Y+16, r25	; 0x10
    4958:	a9 8b       	std	Y+17, r26	; 0x11
    495a:	ba 8b       	std	Y+18, r27	; 0x12

0000495c <.LM306>:
    495c:	6f 85       	ldd	r22, Y+15	; 0x0f
    495e:	78 89       	ldd	r23, Y+16	; 0x10
    4960:	89 89       	ldd	r24, Y+17	; 0x11
    4962:	9a 89       	ldd	r25, Y+18	; 0x12
    4964:	0e 94 31 26 	call	0x4c62	; 0x4c62 <__fixunssfsi>
    4968:	6b 8f       	std	Y+27, r22	; 0x1b
    496a:	7c 8f       	std	Y+28, r23	; 0x1c
    496c:	8d 8f       	std	Y+29, r24	; 0x1d
    496e:	9e 8f       	std	Y+30, r25	; 0x1e
    4970:	ab 8d       	ldd	r26, Y+27	; 0x1b
    4972:	bc 8d       	ldd	r27, Y+28	; 0x1c
    4974:	ba 87       	std	Y+10, r27	; 0x0a
    4976:	a9 87       	std	Y+9, r26	; 0x09

00004978 <.LM307>:
    4978:	10 c0       	rjmp	.+32     	; 0x499a <.L176>

0000497a <.L177>:
    497a:	80 e9       	ldi	r24, 0x90	; 144
    497c:	91 e0       	ldi	r25, 0x01	; 1
    497e:	9c 87       	std	Y+12, r25	; 0x0c
    4980:	8b 87       	std	Y+11, r24	; 0x0b

00004982 <.LM308>:
    4982:	8b 85       	ldd	r24, Y+11	; 0x0b
    4984:	9c 85       	ldd	r25, Y+12	; 0x0c

00004986 <.L1^B23>:
    4986:	01 97       	sbiw	r24, 0x01	; 1
    4988:	f1 f7       	brne	.-4      	; 0x4986 <.L1^B23>
    498a:	9c 87       	std	Y+12, r25	; 0x0c
    498c:	8b 87       	std	Y+11, r24	; 0x0b

0000498e <.LM309>:
	...

00004990 <.LM310>:
    4990:	89 85       	ldd	r24, Y+9	; 0x09
    4992:	9a 85       	ldd	r25, Y+10	; 0x0a
    4994:	01 97       	sbiw	r24, 0x01	; 1
    4996:	9a 87       	std	Y+10, r25	; 0x0a
    4998:	89 87       	std	Y+9, r24	; 0x09

0000499a <.L176>:
    499a:	89 85       	ldd	r24, Y+9	; 0x09
    499c:	9a 85       	ldd	r25, Y+10	; 0x0a
    499e:	89 2b       	or	r24, r25
    49a0:	61 f7       	brne	.-40     	; 0x497a <.L177>

000049a2 <.LM312>:
    49a2:	19 c0       	rjmp	.+50     	; 0x49d6 <.L178>

000049a4 <.L182>:
    49a4:	6d 81       	ldd	r22, Y+5	; 0x05
    49a6:	7e 81       	ldd	r23, Y+6	; 0x06
    49a8:	8f 81       	ldd	r24, Y+7	; 0x07
    49aa:	98 85       	ldd	r25, Y+8	; 0x08
    49ac:	0e 94 31 26 	call	0x4c62	; 0x4c62 <__fixunssfsi>
    49b0:	6f 8f       	std	Y+31, r22	; 0x1f
    49b2:	78 a3       	std	Y+32, r23	; 0x20
    49b4:	89 a3       	std	Y+33, r24	; 0x21
    49b6:	9a a3       	std	Y+34, r25	; 0x22
    49b8:	8f 8d       	ldd	r24, Y+31	; 0x1f
    49ba:	98 a1       	ldd	r25, Y+32	; 0x20
    49bc:	9a 87       	std	Y+10, r25	; 0x0a
    49be:	89 87       	std	Y+9, r24	; 0x09

000049c0 <.L173>:
    49c0:	89 85       	ldd	r24, Y+9	; 0x09
    49c2:	9a 85       	ldd	r25, Y+10	; 0x0a
    49c4:	9e 87       	std	Y+14, r25	; 0x0e
    49c6:	8d 87       	std	Y+13, r24	; 0x0d

000049c8 <.LM314>:
    49c8:	8d 85       	ldd	r24, Y+13	; 0x0d
    49ca:	9e 85       	ldd	r25, Y+14	; 0x0e

000049cc <.L1^B24>:
    49cc:	01 97       	sbiw	r24, 0x01	; 1
    49ce:	f1 f7       	brne	.-4      	; 0x49cc <.L1^B24>
    49d0:	9e 87       	std	Y+14, r25	; 0x0e
    49d2:	8d 87       	std	Y+13, r24	; 0x0d

000049d4 <.LM315>:
	...

000049d6 <.L178>:
    49d6:	0e 94 3f 03 	call	0x67e	; 0x67e <GRN_LED_off>

000049da <.LM317>:
    49da:	00 00       	nop
    49dc:	a2 96       	adiw	r28, 0x22	; 34
    49de:	0f b6       	in	r0, 0x3f	; 63
    49e0:	f8 94       	cli
    49e2:	de bf       	out	0x3e, r29	; 62
    49e4:	0f be       	out	0x3f, r0	; 63
    49e6:	cd bf       	out	0x3d, r28	; 61
    49e8:	df 91       	pop	r29
    49ea:	cf 91       	pop	r28
    49ec:	08 95       	ret

000049ee <APP_WrongPasswordScreen>:
    49ee:	cf 93       	push	r28
    49f0:	df 93       	push	r29
    49f2:	cd b7       	in	r28, 0x3d	; 61
    49f4:	de b7       	in	r29, 0x3e	; 62
    49f6:	a3 97       	sbiw	r28, 0x23	; 35
    49f8:	0f b6       	in	r0, 0x3f	; 63
    49fa:	f8 94       	cli
    49fc:	de bf       	out	0x3e, r29	; 62
    49fe:	0f be       	out	0x3f, r0	; 63
    4a00:	cd bf       	out	0x3d, r28	; 61
    4a02:	8f 87       	std	Y+15, r24	; 0x0f

00004a04 <.LM319>:
    4a04:	0e 94 79 1b 	call	0x36f2	; 0x36f2 <LCD_clearScreen>

00004a08 <.LM320>:
    4a08:	84 e2       	ldi	r24, 0x24	; 36
    4a0a:	91 e0       	ldi	r25, 0x01	; 1
    4a0c:	0e 94 da 1a 	call	0x35b4	; 0x35b4 <LCD_displayString>

00004a10 <.LM321>:
    4a10:	60 e0       	ldi	r22, 0x00	; 0
    4a12:	81 e0       	ldi	r24, 0x01	; 1
    4a14:	0e 94 29 1b 	call	0x3652	; 0x3652 <LCD_moveCursor>

00004a18 <.LM322>:
    4a18:	8f 85       	ldd	r24, Y+15	; 0x0f
    4a1a:	88 2f       	mov	r24, r24
    4a1c:	90 e0       	ldi	r25, 0x00	; 0
    4a1e:	0e 94 05 1b 	call	0x360a	; 0x360a <LCD_integerToString>

00004a22 <.LM323>:
    4a22:	86 e3       	ldi	r24, 0x36	; 54
    4a24:	91 e0       	ldi	r25, 0x01	; 1
    4a26:	0e 94 da 1a 	call	0x35b4	; 0x35b4 <LCD_displayString>

00004a2a <.LM324>:
    4a2a:	0e 94 5e 03 	call	0x6bc	; 0x6bc <RED_LED_on>
    4a2e:	80 e0       	ldi	r24, 0x00	; 0
    4a30:	90 e8       	ldi	r25, 0x80	; 128
    4a32:	ab e3       	ldi	r26, 0x3B	; 59
    4a34:	b5 e4       	ldi	r27, 0x45	; 69
    4a36:	89 83       	std	Y+1, r24	; 0x01
    4a38:	9a 83       	std	Y+2, r25	; 0x02
    4a3a:	ab 83       	std	Y+3, r26	; 0x03
    4a3c:	bc 83       	std	Y+4, r27	; 0x04

00004a3e <.LM325>:
    4a3e:	20 e0       	ldi	r18, 0x00	; 0
    4a40:	30 e0       	ldi	r19, 0x00	; 0
    4a42:	4a e7       	ldi	r20, 0x7A	; 122
    4a44:	55 e4       	ldi	r21, 0x45	; 69
    4a46:	69 81       	ldd	r22, Y+1	; 0x01
    4a48:	7a 81       	ldd	r23, Y+2	; 0x02
    4a4a:	8b 81       	ldd	r24, Y+3	; 0x03
    4a4c:	9c 81       	ldd	r25, Y+4	; 0x04
    4a4e:	0e 94 da 26 	call	0x4db4	; 0x4db4 <__mulsf3>
    4a52:	6c 8b       	std	Y+20, r22	; 0x14
    4a54:	7d 8b       	std	Y+21, r23	; 0x15
    4a56:	8e 8b       	std	Y+22, r24	; 0x16
    4a58:	9f 8b       	std	Y+23, r25	; 0x17
    4a5a:	8c 89       	ldd	r24, Y+20	; 0x14
    4a5c:	9d 89       	ldd	r25, Y+21	; 0x15
    4a5e:	ae 89       	ldd	r26, Y+22	; 0x16
    4a60:	bf 89       	ldd	r27, Y+23	; 0x17
    4a62:	8d 83       	std	Y+5, r24	; 0x05
    4a64:	9e 83       	std	Y+6, r25	; 0x06
    4a66:	af 83       	std	Y+7, r26	; 0x07
    4a68:	b8 87       	std	Y+8, r27	; 0x08

00004a6a <.LM326>:
    4a6a:	20 e0       	ldi	r18, 0x00	; 0
    4a6c:	30 e0       	ldi	r19, 0x00	; 0
    4a6e:	40 e8       	ldi	r20, 0x80	; 128
    4a70:	5f e3       	ldi	r21, 0x3F	; 63
    4a72:	6d 81       	ldd	r22, Y+5	; 0x05
    4a74:	7e 81       	ldd	r23, Y+6	; 0x06
    4a76:	8f 81       	ldd	r24, Y+7	; 0x07
    4a78:	98 85       	ldd	r25, Y+8	; 0x08
    4a7a:	0e 94 ba 25 	call	0x4b74	; 0x4b74 <__cmpsf2>
    4a7e:	88 23       	and	r24, r24
    4a80:	2c f4       	brge	.+10     	; 0x4a8c <.L194>

00004a82 <.LM327>:
    4a82:	81 e0       	ldi	r24, 0x01	; 1
    4a84:	90 e0       	ldi	r25, 0x00	; 0
    4a86:	9a 87       	std	Y+10, r25	; 0x0a
    4a88:	89 87       	std	Y+9, r24	; 0x09
    4a8a:	54 c0       	rjmp	.+168    	; 0x4b34 <.L186>

00004a8c <.L194>:
    4a8c:	20 e0       	ldi	r18, 0x00	; 0
    4a8e:	3f ef       	ldi	r19, 0xFF	; 255
    4a90:	4f e7       	ldi	r20, 0x7F	; 127
    4a92:	57 e4       	ldi	r21, 0x47	; 71
    4a94:	6d 81       	ldd	r22, Y+5	; 0x05
    4a96:	7e 81       	ldd	r23, Y+6	; 0x06
    4a98:	8f 81       	ldd	r24, Y+7	; 0x07
    4a9a:	98 85       	ldd	r25, Y+8	; 0x08
    4a9c:	0e 94 d5 26 	call	0x4daa	; 0x4daa <__gesf2>
    4aa0:	18 16       	cp	r1, r24
    4aa2:	d4 f5       	brge	.+116    	; 0x4b18 <.L195>

00004aa4 <.LM329>:
    4aa4:	20 e0       	ldi	r18, 0x00	; 0
    4aa6:	30 e0       	ldi	r19, 0x00	; 0
    4aa8:	40 e2       	ldi	r20, 0x20	; 32
    4aaa:	51 e4       	ldi	r21, 0x41	; 65
    4aac:	69 81       	ldd	r22, Y+1	; 0x01
    4aae:	7a 81       	ldd	r23, Y+2	; 0x02
    4ab0:	8b 81       	ldd	r24, Y+3	; 0x03
    4ab2:	9c 81       	ldd	r25, Y+4	; 0x04
    4ab4:	0e 94 da 26 	call	0x4db4	; 0x4db4 <__mulsf3>
    4ab8:	68 8f       	std	Y+24, r22	; 0x18
    4aba:	79 8f       	std	Y+25, r23	; 0x19
    4abc:	8a 8f       	std	Y+26, r24	; 0x1a
    4abe:	9b 8f       	std	Y+27, r25	; 0x1b
    4ac0:	88 8d       	ldd	r24, Y+24	; 0x18
    4ac2:	99 8d       	ldd	r25, Y+25	; 0x19
    4ac4:	aa 8d       	ldd	r26, Y+26	; 0x1a
    4ac6:	bb 8d       	ldd	r27, Y+27	; 0x1b
    4ac8:	88 8b       	std	Y+16, r24	; 0x10
    4aca:	99 8b       	std	Y+17, r25	; 0x11
    4acc:	aa 8b       	std	Y+18, r26	; 0x12
    4ace:	bb 8b       	std	Y+19, r27	; 0x13

00004ad0 <.LM330>:
    4ad0:	68 89       	ldd	r22, Y+16	; 0x10
    4ad2:	79 89       	ldd	r23, Y+17	; 0x11
    4ad4:	8a 89       	ldd	r24, Y+18	; 0x12
    4ad6:	9b 89       	ldd	r25, Y+19	; 0x13
    4ad8:	0e 94 31 26 	call	0x4c62	; 0x4c62 <__fixunssfsi>
    4adc:	6c 8f       	std	Y+28, r22	; 0x1c
    4ade:	7d 8f       	std	Y+29, r23	; 0x1d
    4ae0:	8e 8f       	std	Y+30, r24	; 0x1e
    4ae2:	9f 8f       	std	Y+31, r25	; 0x1f
    4ae4:	ac 8d       	ldd	r26, Y+28	; 0x1c
    4ae6:	bd 8d       	ldd	r27, Y+29	; 0x1d
    4ae8:	ba 87       	std	Y+10, r27	; 0x0a
    4aea:	a9 87       	std	Y+9, r26	; 0x09

00004aec <.LM331>:
    4aec:	10 c0       	rjmp	.+32     	; 0x4b0e <.L189>

00004aee <.L190>:
    4aee:	80 e9       	ldi	r24, 0x90	; 144
    4af0:	91 e0       	ldi	r25, 0x01	; 1
    4af2:	9c 87       	std	Y+12, r25	; 0x0c
    4af4:	8b 87       	std	Y+11, r24	; 0x0b

00004af6 <.LM332>:
    4af6:	8b 85       	ldd	r24, Y+11	; 0x0b
    4af8:	9c 85       	ldd	r25, Y+12	; 0x0c

00004afa <.L1^B25>:
    4afa:	01 97       	sbiw	r24, 0x01	; 1
    4afc:	f1 f7       	brne	.-4      	; 0x4afa <.L1^B25>
    4afe:	9c 87       	std	Y+12, r25	; 0x0c
    4b00:	8b 87       	std	Y+11, r24	; 0x0b

00004b02 <.LM333>:
	...

00004b04 <.LM334>:
    4b04:	89 85       	ldd	r24, Y+9	; 0x09
    4b06:	9a 85       	ldd	r25, Y+10	; 0x0a
    4b08:	01 97       	sbiw	r24, 0x01	; 1
    4b0a:	9a 87       	std	Y+10, r25	; 0x0a
    4b0c:	89 87       	std	Y+9, r24	; 0x09

00004b0e <.L189>:
    4b0e:	89 85       	ldd	r24, Y+9	; 0x09
    4b10:	9a 85       	ldd	r25, Y+10	; 0x0a
    4b12:	89 2b       	or	r24, r25
    4b14:	61 f7       	brne	.-40     	; 0x4aee <.L190>

00004b16 <.LM336>:
    4b16:	19 c0       	rjmp	.+50     	; 0x4b4a <.L191>

00004b18 <.L195>:
    4b18:	6d 81       	ldd	r22, Y+5	; 0x05
    4b1a:	7e 81       	ldd	r23, Y+6	; 0x06
    4b1c:	8f 81       	ldd	r24, Y+7	; 0x07
    4b1e:	98 85       	ldd	r25, Y+8	; 0x08
    4b20:	0e 94 31 26 	call	0x4c62	; 0x4c62 <__fixunssfsi>
    4b24:	68 a3       	std	Y+32, r22	; 0x20
    4b26:	79 a3       	std	Y+33, r23	; 0x21
    4b28:	8a a3       	std	Y+34, r24	; 0x22
    4b2a:	9b a3       	std	Y+35, r25	; 0x23
    4b2c:	88 a1       	ldd	r24, Y+32	; 0x20
    4b2e:	99 a1       	ldd	r25, Y+33	; 0x21
    4b30:	9a 87       	std	Y+10, r25	; 0x0a
    4b32:	89 87       	std	Y+9, r24	; 0x09

00004b34 <.L186>:
    4b34:	89 85       	ldd	r24, Y+9	; 0x09
    4b36:	9a 85       	ldd	r25, Y+10	; 0x0a
    4b38:	9e 87       	std	Y+14, r25	; 0x0e
    4b3a:	8d 87       	std	Y+13, r24	; 0x0d

00004b3c <.LM338>:
    4b3c:	8d 85       	ldd	r24, Y+13	; 0x0d
    4b3e:	9e 85       	ldd	r25, Y+14	; 0x0e

00004b40 <.L1^B26>:
    4b40:	01 97       	sbiw	r24, 0x01	; 1
    4b42:	f1 f7       	brne	.-4      	; 0x4b40 <.L1^B26>
    4b44:	9e 87       	std	Y+14, r25	; 0x0e
    4b46:	8d 87       	std	Y+13, r24	; 0x0d

00004b48 <.LM339>:
	...

00004b4a <.L191>:
    4b4a:	0e 94 6b 03 	call	0x6d6	; 0x6d6 <RED_LED_off>

00004b4e <.LM341>:
    4b4e:	00 00       	nop
    4b50:	a3 96       	adiw	r28, 0x23	; 35
    4b52:	0f b6       	in	r0, 0x3f	; 63
    4b54:	f8 94       	cli
    4b56:	de bf       	out	0x3e, r29	; 62
    4b58:	0f be       	out	0x3f, r0	; 63
    4b5a:	cd bf       	out	0x3d, r28	; 61
    4b5c:	df 91       	pop	r29
    4b5e:	cf 91       	pop	r28
    4b60:	08 95       	ret

00004b62 <main>:
    4b62:	cf 93       	push	r28
    4b64:	df 93       	push	r29
    4b66:	cd b7       	in	r28, 0x3d	; 61
    4b68:	de b7       	in	r29, 0x3e	; 62

00004b6a <.LM1>:
    4b6a:	0e 94 ec 1b 	call	0x37d8	; 0x37d8 <APP_voidInit>

00004b6e <.LM2>:
    4b6e:	0e 94 fa 1b 	call	0x37f4	; 0x37f4 <APP_WelcomeScreen>

00004b72 <.L2>:
    4b72:	ff cf       	rjmp	.-2      	; 0x4b72 <.L2>

00004b74 <__cmpsf2>:
    4b74:	0e 94 60 26 	call	0x4cc0	; 0x4cc0 <__fp_cmp>
    4b78:	08 f4       	brcc	.+2      	; 0x4b7c <.L1^B1>
    4b7a:	81 e0       	ldi	r24, 0x01	; 1

00004b7c <.L1^B1>:
    4b7c:	08 95       	ret

00004b7e <__divsf3>:
    4b7e:	0e 94 d3 25 	call	0x4ba6	; 0x4ba6 <__divsf3x>
    4b82:	0c 94 9b 26 	jmp	0x4d36	; 0x4d36 <__fp_round>

00004b86 <.L^B1>:
    4b86:	0e 94 94 26 	call	0x4d28	; 0x4d28 <__fp_pscB>
    4b8a:	58 f0       	brcs	.+22     	; 0x4ba2 <.L_nan>
    4b8c:	0e 94 8d 26 	call	0x4d1a	; 0x4d1a <__fp_pscA>
    4b90:	40 f0       	brcs	.+16     	; 0x4ba2 <.L_nan>
    4b92:	29 f4       	brne	.+10     	; 0x4b9e <.L_zr>
    4b94:	5f 3f       	cpi	r21, 0xFF	; 255
    4b96:	29 f0       	breq	.+10     	; 0x4ba2 <.L_nan>

00004b98 <.L_inf>:
    4b98:	0c 94 84 26 	jmp	0x4d08	; 0x4d08 <__fp_inf>

00004b9c <.L1^B1>:
    4b9c:	51 11       	cpse	r21, r1

00004b9e <.L_zr>:
    4b9e:	0c 94 cf 26 	jmp	0x4d9e	; 0x4d9e <__fp_szero>

00004ba2 <.L_nan>:
    4ba2:	0c 94 8a 26 	jmp	0x4d14	; 0x4d14 <__fp_nan>

00004ba6 <__divsf3x>:
    4ba6:	0e 94 ac 26 	call	0x4d58	; 0x4d58 <__fp_split3>
    4baa:	68 f3       	brcs	.-38     	; 0x4b86 <.L^B1>

00004bac <__divsf3_pse>:
    4bac:	99 23       	and	r25, r25
    4bae:	b1 f3       	breq	.-20     	; 0x4b9c <.L1^B1>
    4bb0:	55 23       	and	r21, r21
    4bb2:	91 f3       	breq	.-28     	; 0x4b98 <.L_inf>
    4bb4:	95 1b       	sub	r25, r21
    4bb6:	55 0b       	sbc	r21, r21
    4bb8:	bb 27       	eor	r27, r27
    4bba:	aa 27       	eor	r26, r26

00004bbc <.L2^B1>:
    4bbc:	62 17       	cp	r22, r18
    4bbe:	73 07       	cpc	r23, r19
    4bc0:	84 07       	cpc	r24, r20
    4bc2:	38 f0       	brcs	.+14     	; 0x4bd2 <.L3^B1>
    4bc4:	9f 5f       	subi	r25, 0xFF	; 255
    4bc6:	5f 4f       	sbci	r21, 0xFF	; 255
    4bc8:	22 0f       	add	r18, r18
    4bca:	33 1f       	adc	r19, r19
    4bcc:	44 1f       	adc	r20, r20
    4bce:	aa 1f       	adc	r26, r26
    4bd0:	a9 f3       	breq	.-22     	; 0x4bbc <.L2^B1>

00004bd2 <.L3^B1>:
    4bd2:	35 d0       	rcall	.+106    	; 0x4c3e <.L_div>
    4bd4:	0e 2e       	mov	r0, r30
    4bd6:	3a f0       	brmi	.+14     	; 0x4be6 <.L5^B1>

00004bd8 <.L4^B1>:
    4bd8:	e0 e8       	ldi	r30, 0x80	; 128
    4bda:	32 d0       	rcall	.+100    	; 0x4c40 <.L_div1>
    4bdc:	91 50       	subi	r25, 0x01	; 1
    4bde:	50 40       	sbci	r21, 0x00	; 0
    4be0:	e6 95       	lsr	r30
    4be2:	00 1c       	adc	r0, r0
    4be4:	ca f7       	brpl	.-14     	; 0x4bd8 <.L4^B1>

00004be6 <.L5^B1>:
    4be6:	2b d0       	rcall	.+86     	; 0x4c3e <.L_div>
    4be8:	fe 2f       	mov	r31, r30
    4bea:	29 d0       	rcall	.+82     	; 0x4c3e <.L_div>
    4bec:	66 0f       	add	r22, r22
    4bee:	77 1f       	adc	r23, r23
    4bf0:	88 1f       	adc	r24, r24
    4bf2:	bb 1f       	adc	r27, r27
    4bf4:	26 17       	cp	r18, r22
    4bf6:	37 07       	cpc	r19, r23
    4bf8:	48 07       	cpc	r20, r24
    4bfa:	ab 07       	cpc	r26, r27
    4bfc:	b0 e8       	ldi	r27, 0x80	; 128
    4bfe:	09 f0       	breq	.+2      	; 0x4c02 <.L4^B2>
    4c00:	bb 0b       	sbc	r27, r27

00004c02 <.L4^B2>:
    4c02:	80 2d       	mov	r24, r0
    4c04:	bf 01       	movw	r22, r30
    4c06:	ff 27       	eor	r31, r31
    4c08:	93 58       	subi	r25, 0x83	; 131
    4c0a:	5f 4f       	sbci	r21, 0xFF	; 255
    4c0c:	3a f0       	brmi	.+14     	; 0x4c1c <.L13^B1>
    4c0e:	9e 3f       	cpi	r25, 0xFE	; 254
    4c10:	51 05       	cpc	r21, r1
    4c12:	78 f0       	brcs	.+30     	; 0x4c32 <.L15^B1>
    4c14:	0c 94 84 26 	jmp	0x4d08	; 0x4d08 <__fp_inf>

00004c18 <.L12^B1>:
    4c18:	0c 94 cf 26 	jmp	0x4d9e	; 0x4d9e <__fp_szero>

00004c1c <.L13^B1>:
    4c1c:	5f 3f       	cpi	r21, 0xFF	; 255
    4c1e:	e4 f3       	brlt	.-8      	; 0x4c18 <.L12^B1>
    4c20:	98 3e       	cpi	r25, 0xE8	; 232
    4c22:	d4 f3       	brlt	.-12     	; 0x4c18 <.L12^B1>

00004c24 <.L14^B1>:
    4c24:	86 95       	lsr	r24
    4c26:	77 95       	ror	r23
    4c28:	67 95       	ror	r22
    4c2a:	b7 95       	ror	r27
    4c2c:	f7 95       	ror	r31
    4c2e:	9f 5f       	subi	r25, 0xFF	; 255
    4c30:	c9 f7       	brne	.-14     	; 0x4c24 <.L14^B1>

00004c32 <.L15^B1>:
    4c32:	88 0f       	add	r24, r24
    4c34:	91 1d       	adc	r25, r1
    4c36:	96 95       	lsr	r25
    4c38:	87 95       	ror	r24
    4c3a:	97 f9       	bld	r25, 7
    4c3c:	08 95       	ret

00004c3e <.L_div>:
    4c3e:	e1 e0       	ldi	r30, 0x01	; 1

00004c40 <.L_div1>:
    4c40:	66 0f       	add	r22, r22
    4c42:	77 1f       	adc	r23, r23
    4c44:	88 1f       	adc	r24, r24
    4c46:	bb 1f       	adc	r27, r27
    4c48:	62 17       	cp	r22, r18
    4c4a:	73 07       	cpc	r23, r19
    4c4c:	84 07       	cpc	r24, r20
    4c4e:	ba 07       	cpc	r27, r26
    4c50:	20 f0       	brcs	.+8      	; 0x4c5a <.L2^B2>
    4c52:	62 1b       	sub	r22, r18
    4c54:	73 0b       	sbc	r23, r19
    4c56:	84 0b       	sbc	r24, r20
    4c58:	ba 0b       	sbc	r27, r26

00004c5a <.L2^B2>:
    4c5a:	ee 1f       	adc	r30, r30
    4c5c:	88 f7       	brcc	.-30     	; 0x4c40 <.L_div1>
    4c5e:	e0 95       	com	r30
    4c60:	08 95       	ret

00004c62 <__fixunssfsi>:
    4c62:	0e 94 b4 26 	call	0x4d68	; 0x4d68 <__fp_splitA>
    4c66:	88 f0       	brcs	.+34     	; 0x4c8a <.L_err>
    4c68:	9f 57       	subi	r25, 0x7F	; 127
    4c6a:	98 f0       	brcs	.+38     	; 0x4c92 <.L_zr>
    4c6c:	b9 2f       	mov	r27, r25
    4c6e:	99 27       	eor	r25, r25
    4c70:	b7 51       	subi	r27, 0x17	; 23
    4c72:	b0 f0       	brcs	.+44     	; 0x4ca0 <.L4^B1>
    4c74:	e1 f0       	breq	.+56     	; 0x4cae <.L_sign>

00004c76 <.L1^B1>:
    4c76:	66 0f       	add	r22, r22
    4c78:	77 1f       	adc	r23, r23
    4c7a:	88 1f       	adc	r24, r24
    4c7c:	99 1f       	adc	r25, r25
    4c7e:	1a f0       	brmi	.+6      	; 0x4c86 <.L2^B1>
    4c80:	ba 95       	dec	r27
    4c82:	c9 f7       	brne	.-14     	; 0x4c76 <.L1^B1>
    4c84:	14 c0       	rjmp	.+40     	; 0x4cae <.L_sign>

00004c86 <.L2^B1>:
    4c86:	b1 30       	cpi	r27, 0x01	; 1
    4c88:	91 f0       	breq	.+36     	; 0x4cae <.L_sign>

00004c8a <.L_err>:
    4c8a:	0e 94 ce 26 	call	0x4d9c	; 0x4d9c <__fp_zero>
    4c8e:	b1 e0       	ldi	r27, 0x01	; 1
    4c90:	08 95       	ret

00004c92 <.L_zr>:
    4c92:	0c 94 ce 26 	jmp	0x4d9c	; 0x4d9c <__fp_zero>

00004c96 <.L3^B1>:
    4c96:	67 2f       	mov	r22, r23
    4c98:	78 2f       	mov	r23, r24
    4c9a:	88 27       	eor	r24, r24
    4c9c:	b8 5f       	subi	r27, 0xF8	; 248
    4c9e:	39 f0       	breq	.+14     	; 0x4cae <.L_sign>

00004ca0 <.L4^B1>:
    4ca0:	b9 3f       	cpi	r27, 0xF9	; 249
    4ca2:	cc f3       	brlt	.-14     	; 0x4c96 <.L3^B1>

00004ca4 <.L5^B1>:
    4ca4:	86 95       	lsr	r24
    4ca6:	77 95       	ror	r23
    4ca8:	67 95       	ror	r22
    4caa:	b3 95       	inc	r27
    4cac:	d9 f7       	brne	.-10     	; 0x4ca4 <.L5^B1>

00004cae <.L_sign>:
    4cae:	3e f4       	brtc	.+14     	; 0x4cbe <.L6^B1>
    4cb0:	90 95       	com	r25
    4cb2:	80 95       	com	r24
    4cb4:	70 95       	com	r23
    4cb6:	61 95       	neg	r22
    4cb8:	7f 4f       	sbci	r23, 0xFF	; 255
    4cba:	8f 4f       	sbci	r24, 0xFF	; 255
    4cbc:	9f 4f       	sbci	r25, 0xFF	; 255

00004cbe <.L6^B1>:
    4cbe:	08 95       	ret

00004cc0 <__fp_cmp>:
    4cc0:	99 0f       	add	r25, r25
    4cc2:	00 08       	sbc	r0, r0
    4cc4:	55 0f       	add	r21, r21
    4cc6:	aa 0b       	sbc	r26, r26
    4cc8:	e0 e8       	ldi	r30, 0x80	; 128
    4cca:	fe ef       	ldi	r31, 0xFE	; 254
    4ccc:	16 16       	cp	r1, r22
    4cce:	17 06       	cpc	r1, r23
    4cd0:	e8 07       	cpc	r30, r24
    4cd2:	f9 07       	cpc	r31, r25
    4cd4:	c0 f0       	brcs	.+48     	; 0x4d06 <.L9^B1>
    4cd6:	12 16       	cp	r1, r18
    4cd8:	13 06       	cpc	r1, r19
    4cda:	e4 07       	cpc	r30, r20
    4cdc:	f5 07       	cpc	r31, r21
    4cde:	98 f0       	brcs	.+38     	; 0x4d06 <.L9^B1>
    4ce0:	62 1b       	sub	r22, r18
    4ce2:	73 0b       	sbc	r23, r19
    4ce4:	84 0b       	sbc	r24, r20
    4ce6:	95 0b       	sbc	r25, r21
    4ce8:	39 f4       	brne	.+14     	; 0x4cf8 <.L1^B1>
    4cea:	0a 26       	eor	r0, r26
    4cec:	61 f0       	breq	.+24     	; 0x4d06 <.L9^B1>
    4cee:	23 2b       	or	r18, r19
    4cf0:	24 2b       	or	r18, r20
    4cf2:	25 2b       	or	r18, r21
    4cf4:	21 f4       	brne	.+8      	; 0x4cfe <.L2^B1>
    4cf6:	08 95       	ret

00004cf8 <.L1^B1>:
    4cf8:	0a 26       	eor	r0, r26
    4cfa:	09 f4       	brne	.+2      	; 0x4cfe <.L2^B1>
    4cfc:	a1 40       	sbci	r26, 0x01	; 1

00004cfe <.L2^B1>:
    4cfe:	a6 95       	lsr	r26
    4d00:	8f ef       	ldi	r24, 0xFF	; 255
    4d02:	81 1d       	adc	r24, r1
    4d04:	81 1d       	adc	r24, r1

00004d06 <.L9^B1>:
    4d06:	08 95       	ret

00004d08 <__fp_inf>:
    4d08:	97 f9       	bld	r25, 7
    4d0a:	9f 67       	ori	r25, 0x7F	; 127
    4d0c:	80 e8       	ldi	r24, 0x80	; 128
    4d0e:	70 e0       	ldi	r23, 0x00	; 0
    4d10:	60 e0       	ldi	r22, 0x00	; 0
    4d12:	08 95       	ret

00004d14 <__fp_nan>:
    4d14:	9f ef       	ldi	r25, 0xFF	; 255
    4d16:	80 ec       	ldi	r24, 0xC0	; 192
    4d18:	08 95       	ret

00004d1a <__fp_pscA>:
    4d1a:	00 24       	eor	r0, r0
    4d1c:	0a 94       	dec	r0
    4d1e:	16 16       	cp	r1, r22
    4d20:	17 06       	cpc	r1, r23
    4d22:	18 06       	cpc	r1, r24
    4d24:	09 06       	cpc	r0, r25
    4d26:	08 95       	ret

00004d28 <__fp_pscB>:
    4d28:	00 24       	eor	r0, r0
    4d2a:	0a 94       	dec	r0
    4d2c:	12 16       	cp	r1, r18
    4d2e:	13 06       	cpc	r1, r19
    4d30:	14 06       	cpc	r1, r20
    4d32:	05 06       	cpc	r0, r21
    4d34:	08 95       	ret

00004d36 <__fp_round>:
    4d36:	09 2e       	mov	r0, r25
    4d38:	03 94       	inc	r0
    4d3a:	00 0c       	add	r0, r0
    4d3c:	11 f4       	brne	.+4      	; 0x4d42 <.L1^B1>
    4d3e:	88 23       	and	r24, r24
    4d40:	52 f0       	brmi	.+20     	; 0x4d56 <.L3^B1>

00004d42 <.L1^B1>:
    4d42:	bb 0f       	add	r27, r27
    4d44:	40 f4       	brcc	.+16     	; 0x4d56 <.L3^B1>
    4d46:	bf 2b       	or	r27, r31
    4d48:	11 f4       	brne	.+4      	; 0x4d4e <.L2^B1>
    4d4a:	60 ff       	sbrs	r22, 0
    4d4c:	04 c0       	rjmp	.+8      	; 0x4d56 <.L3^B1>

00004d4e <.L2^B1>:
    4d4e:	6f 5f       	subi	r22, 0xFF	; 255
    4d50:	7f 4f       	sbci	r23, 0xFF	; 255
    4d52:	8f 4f       	sbci	r24, 0xFF	; 255
    4d54:	9f 4f       	sbci	r25, 0xFF	; 255

00004d56 <.L3^B1>:
    4d56:	08 95       	ret

00004d58 <__fp_split3>:
    4d58:	57 fd       	sbrc	r21, 7
    4d5a:	90 58       	subi	r25, 0x80	; 128
    4d5c:	44 0f       	add	r20, r20
    4d5e:	55 1f       	adc	r21, r21
    4d60:	59 f0       	breq	.+22     	; 0x4d78 <.L4^B1>
    4d62:	5f 3f       	cpi	r21, 0xFF	; 255
    4d64:	71 f0       	breq	.+28     	; 0x4d82 <.L5^B1>

00004d66 <.L1^B1>:
    4d66:	47 95       	ror	r20

00004d68 <__fp_splitA>:
    4d68:	88 0f       	add	r24, r24
    4d6a:	97 fb       	bst	r25, 7
    4d6c:	99 1f       	adc	r25, r25
    4d6e:	61 f0       	breq	.+24     	; 0x4d88 <.L6^B1>
    4d70:	9f 3f       	cpi	r25, 0xFF	; 255
    4d72:	79 f0       	breq	.+30     	; 0x4d92 <.L7^B1>

00004d74 <.L3^B1>:
    4d74:	87 95       	ror	r24
    4d76:	08 95       	ret

00004d78 <.L4^B1>:
    4d78:	12 16       	cp	r1, r18
    4d7a:	13 06       	cpc	r1, r19
    4d7c:	14 06       	cpc	r1, r20
    4d7e:	55 1f       	adc	r21, r21
    4d80:	f2 cf       	rjmp	.-28     	; 0x4d66 <.L1^B1>

00004d82 <.L5^B1>:
    4d82:	46 95       	lsr	r20
    4d84:	f1 df       	rcall	.-30     	; 0x4d68 <__fp_splitA>
    4d86:	08 c0       	rjmp	.+16     	; 0x4d98 <.L8^B1>

00004d88 <.L6^B1>:
    4d88:	16 16       	cp	r1, r22
    4d8a:	17 06       	cpc	r1, r23
    4d8c:	18 06       	cpc	r1, r24
    4d8e:	99 1f       	adc	r25, r25
    4d90:	f1 cf       	rjmp	.-30     	; 0x4d74 <.L3^B1>

00004d92 <.L7^B1>:
    4d92:	86 95       	lsr	r24
    4d94:	71 05       	cpc	r23, r1
    4d96:	61 05       	cpc	r22, r1

00004d98 <.L8^B1>:
    4d98:	08 94       	sec
    4d9a:	08 95       	ret

00004d9c <__fp_zero>:
    4d9c:	e8 94       	clt

00004d9e <__fp_szero>:
    4d9e:	bb 27       	eor	r27, r27
    4da0:	66 27       	eor	r22, r22
    4da2:	77 27       	eor	r23, r23
    4da4:	cb 01       	movw	r24, r22
    4da6:	97 f9       	bld	r25, 7
    4da8:	08 95       	ret

00004daa <__gesf2>:
    4daa:	0e 94 60 26 	call	0x4cc0	; 0x4cc0 <__fp_cmp>
    4dae:	08 f4       	brcc	.+2      	; 0x4db2 <.L1^B1>
    4db0:	8f ef       	ldi	r24, 0xFF	; 255

00004db2 <.L1^B1>:
    4db2:	08 95       	ret

00004db4 <__mulsf3>:
    4db4:	0e 94 ed 26 	call	0x4dda	; 0x4dda <__mulsf3x>
    4db8:	0c 94 9b 26 	jmp	0x4d36	; 0x4d36 <__fp_round>

00004dbc <.L^B1>:
    4dbc:	0e 94 8d 26 	call	0x4d1a	; 0x4d1a <__fp_pscA>
    4dc0:	38 f0       	brcs	.+14     	; 0x4dd0 <.L1^B1>
    4dc2:	0e 94 94 26 	call	0x4d28	; 0x4d28 <__fp_pscB>
    4dc6:	20 f0       	brcs	.+8      	; 0x4dd0 <.L1^B1>
    4dc8:	95 23       	and	r25, r21
    4dca:	11 f0       	breq	.+4      	; 0x4dd0 <.L1^B1>
    4dcc:	0c 94 84 26 	jmp	0x4d08	; 0x4d08 <__fp_inf>

00004dd0 <.L1^B1>:
    4dd0:	0c 94 8a 26 	jmp	0x4d14	; 0x4d14 <__fp_nan>

00004dd4 <.L2^B1>:
    4dd4:	11 24       	eor	r1, r1
    4dd6:	0c 94 cf 26 	jmp	0x4d9e	; 0x4d9e <__fp_szero>

00004dda <__mulsf3x>:
    4dda:	0e 94 ac 26 	call	0x4d58	; 0x4d58 <__fp_split3>
    4dde:	70 f3       	brcs	.-36     	; 0x4dbc <.L^B1>

00004de0 <__mulsf3_pse>:
    4de0:	95 9f       	mul	r25, r21
    4de2:	c1 f3       	breq	.-16     	; 0x4dd4 <.L2^B1>
    4de4:	95 0f       	add	r25, r21
    4de6:	50 e0       	ldi	r21, 0x00	; 0
    4de8:	55 1f       	adc	r21, r21
    4dea:	62 9f       	mul	r22, r18
    4dec:	f0 01       	movw	r30, r0
    4dee:	72 9f       	mul	r23, r18
    4df0:	bb 27       	eor	r27, r27
    4df2:	f0 0d       	add	r31, r0
    4df4:	b1 1d       	adc	r27, r1
    4df6:	63 9f       	mul	r22, r19
    4df8:	aa 27       	eor	r26, r26
    4dfa:	f0 0d       	add	r31, r0
    4dfc:	b1 1d       	adc	r27, r1
    4dfe:	aa 1f       	adc	r26, r26
    4e00:	64 9f       	mul	r22, r20
    4e02:	66 27       	eor	r22, r22
    4e04:	b0 0d       	add	r27, r0
    4e06:	a1 1d       	adc	r26, r1
    4e08:	66 1f       	adc	r22, r22
    4e0a:	82 9f       	mul	r24, r18
    4e0c:	22 27       	eor	r18, r18
    4e0e:	b0 0d       	add	r27, r0
    4e10:	a1 1d       	adc	r26, r1
    4e12:	62 1f       	adc	r22, r18
    4e14:	73 9f       	mul	r23, r19
    4e16:	b0 0d       	add	r27, r0
    4e18:	a1 1d       	adc	r26, r1
    4e1a:	62 1f       	adc	r22, r18
    4e1c:	83 9f       	mul	r24, r19
    4e1e:	a0 0d       	add	r26, r0
    4e20:	61 1d       	adc	r22, r1
    4e22:	22 1f       	adc	r18, r18
    4e24:	74 9f       	mul	r23, r20
    4e26:	33 27       	eor	r19, r19
    4e28:	a0 0d       	add	r26, r0
    4e2a:	61 1d       	adc	r22, r1
    4e2c:	23 1f       	adc	r18, r19
    4e2e:	84 9f       	mul	r24, r20
    4e30:	60 0d       	add	r22, r0
    4e32:	21 1d       	adc	r18, r1
    4e34:	82 2f       	mov	r24, r18
    4e36:	76 2f       	mov	r23, r22
    4e38:	6a 2f       	mov	r22, r26
    4e3a:	11 24       	eor	r1, r1
    4e3c:	9f 57       	subi	r25, 0x7F	; 127
    4e3e:	50 40       	sbci	r21, 0x00	; 0
    4e40:	9a f0       	brmi	.+38     	; 0x4e68 <.L13^B1>
    4e42:	f1 f0       	breq	.+60     	; 0x4e80 <.L15^B1>

00004e44 <.L10^B1>:
    4e44:	88 23       	and	r24, r24
    4e46:	4a f0       	brmi	.+18     	; 0x4e5a <.L11^B1>
    4e48:	ee 0f       	add	r30, r30
    4e4a:	ff 1f       	adc	r31, r31
    4e4c:	bb 1f       	adc	r27, r27
    4e4e:	66 1f       	adc	r22, r22
    4e50:	77 1f       	adc	r23, r23
    4e52:	88 1f       	adc	r24, r24
    4e54:	91 50       	subi	r25, 0x01	; 1
    4e56:	50 40       	sbci	r21, 0x00	; 0
    4e58:	a9 f7       	brne	.-22     	; 0x4e44 <.L10^B1>

00004e5a <.L11^B1>:
    4e5a:	9e 3f       	cpi	r25, 0xFE	; 254
    4e5c:	51 05       	cpc	r21, r1
    4e5e:	80 f0       	brcs	.+32     	; 0x4e80 <.L15^B1>
    4e60:	0c 94 84 26 	jmp	0x4d08	; 0x4d08 <__fp_inf>

00004e64 <.L12^B1>:
    4e64:	0c 94 cf 26 	jmp	0x4d9e	; 0x4d9e <__fp_szero>

00004e68 <.L13^B1>:
    4e68:	5f 3f       	cpi	r21, 0xFF	; 255
    4e6a:	e4 f3       	brlt	.-8      	; 0x4e64 <.L12^B1>
    4e6c:	98 3e       	cpi	r25, 0xE8	; 232
    4e6e:	d4 f3       	brlt	.-12     	; 0x4e64 <.L12^B1>

00004e70 <.L14^B1>:
    4e70:	86 95       	lsr	r24
    4e72:	77 95       	ror	r23
    4e74:	67 95       	ror	r22
    4e76:	b7 95       	ror	r27
    4e78:	f7 95       	ror	r31
    4e7a:	e7 95       	ror	r30
    4e7c:	9f 5f       	subi	r25, 0xFF	; 255
    4e7e:	c1 f7       	brne	.-16     	; 0x4e70 <.L14^B1>

00004e80 <.L15^B1>:
    4e80:	fe 2b       	or	r31, r30
    4e82:	88 0f       	add	r24, r24
    4e84:	91 1d       	adc	r25, r1
    4e86:	96 95       	lsr	r25
    4e88:	87 95       	ror	r24
    4e8a:	97 f9       	bld	r25, 7
    4e8c:	08 95       	ret

00004e8e <itoa>:
    4e8e:	45 32       	cpi	r20, 0x25	; 37
    4e90:	51 05       	cpc	r21, r1
    4e92:	20 f4       	brcc	.+8      	; 0x4e9c <.L1^B1>
    4e94:	42 30       	cpi	r20, 0x02	; 2
    4e96:	10 f0       	brcs	.+4      	; 0x4e9c <.L1^B1>
    4e98:	0c 94 52 27 	jmp	0x4ea4	; 0x4ea4 <__itoa_ncheck>

00004e9c <.L1^B1>:
    4e9c:	fb 01       	movw	r30, r22
    4e9e:	10 82       	st	Z, r1
    4ea0:	cb 01       	movw	r24, r22
    4ea2:	08 95       	ret

00004ea4 <__itoa_ncheck>:
    4ea4:	bb 27       	eor	r27, r27
    4ea6:	4a 30       	cpi	r20, 0x0A	; 10
    4ea8:	31 f4       	brne	.+12     	; 0x4eb6 <.L1^B1>
    4eaa:	99 23       	and	r25, r25
    4eac:	22 f4       	brpl	.+8      	; 0x4eb6 <.L1^B1>
    4eae:	bd e2       	ldi	r27, 0x2D	; 45
    4eb0:	90 95       	com	r25
    4eb2:	81 95       	neg	r24
    4eb4:	9f 4f       	sbci	r25, 0xFF	; 255

00004eb6 <.L1^B1>:
    4eb6:	0c 94 5e 27 	jmp	0x4ebc	; 0x4ebc <__utoa_common>

00004eba <__utoa_ncheck>:
    4eba:	bb 27       	eor	r27, r27

00004ebc <__utoa_common>:
    4ebc:	fb 01       	movw	r30, r22
    4ebe:	55 27       	eor	r21, r21

00004ec0 <.L1^B1>:
    4ec0:	aa 27       	eor	r26, r26

00004ec2 <.L2^B1>:
    4ec2:	88 0f       	add	r24, r24
    4ec4:	99 1f       	adc	r25, r25
    4ec6:	aa 1f       	adc	r26, r26
    4ec8:	a4 17       	cp	r26, r20
    4eca:	10 f0       	brcs	.+4      	; 0x4ed0 <.L3^B1>
    4ecc:	a4 1b       	sub	r26, r20
    4ece:	83 95       	inc	r24

00004ed0 <.L3^B1>:
    4ed0:	50 51       	subi	r21, 0x10	; 16
    4ed2:	b9 f7       	brne	.-18     	; 0x4ec2 <.L2^B1>
    4ed4:	a0 5d       	subi	r26, 0xD0	; 208
    4ed6:	aa 33       	cpi	r26, 0x3A	; 58
    4ed8:	08 f0       	brcs	.+2      	; 0x4edc <.L4^B1>
    4eda:	a9 5d       	subi	r26, 0xD9	; 217

00004edc <.L4^B1>:
    4edc:	a1 93       	st	Z+, r26
    4ede:	00 97       	sbiw	r24, 0x00	; 0
    4ee0:	79 f7       	brne	.-34     	; 0x4ec0 <.L1^B1>
    4ee2:	b1 11       	cpse	r27, r1
    4ee4:	b1 93       	st	Z+, r27
    4ee6:	11 92       	st	Z+, r1
    4ee8:	cb 01       	movw	r24, r22
    4eea:	0c 94 77 27 	jmp	0x4eee	; 0x4eee <strrev>

00004eee <strrev>:
    4eee:	dc 01       	movw	r26, r24
    4ef0:	fc 01       	movw	r30, r24

00004ef2 <.L1^B1>:
    4ef2:	67 2f       	mov	r22, r23
    4ef4:	71 91       	ld	r23, Z+
    4ef6:	77 23       	and	r23, r23
    4ef8:	e1 f7       	brne	.-8      	; 0x4ef2 <.L1^B1>
    4efa:	32 97       	sbiw	r30, 0x02	; 2
    4efc:	04 c0       	rjmp	.+8      	; 0x4f06 <.L3^B1>

00004efe <.L2^B1>:
    4efe:	7c 91       	ld	r23, X
    4f00:	6d 93       	st	X+, r22
    4f02:	70 83       	st	Z, r23
    4f04:	62 91       	ld	r22, -Z

00004f06 <.L3^B1>:
    4f06:	ae 17       	cp	r26, r30
    4f08:	bf 07       	cpc	r27, r31
    4f0a:	c8 f3       	brcs	.-14     	; 0x4efe <.L2^B1>
    4f0c:	08 95       	ret

00004f0e <_exit>:
    4f0e:	f8 94       	cli

00004f10 <__stop_program>:
    4f10:	ff cf       	rjmp	.-2      	; 0x4f10 <__stop_program>
